(dp1
Vitem_satanic
p2
V156
p3
sVitem_recipe_helm_of_the_dominator
p4
V163
p5
sVtiny_avalanche
p6
V5106
p7
sVdoom_bringer_devour
p8
V5339
p9
sVspecial_bonus_cast_range_300
p10
V6213
p11
sVitem_eagle
p12
V52
p13
sVtinker_march_of_the_machines
p14
V5152
p15
sVbig_thunder_lizard_frenzy
p16
V5333
p17
sVitem_recipe_null_talisman
p18
V76
p19
sVitem_magic_wand
p20
V36
p21
sVlina_dragon_slave
p22
V5040
p23
sVnpc_dota_hero_abyssal_underlord
p24
Vunderlord
p25
sVnpc_dota_broodmother_spiderling
p26
Vspiderling
p27
sVspecial_bonus_unique_windranger_3
p28
V6562
p29
sVspecial_bonus_unique_windranger_2
p30
V6413
p31
sVspecial_bonus_unique_windranger_5
p32
V6993
p33
sVspecial_bonus_unique_windranger_4
p34
V6992
p35
sVspecial_bonus_unique_windranger_6
p36
V7062
p37
sVrubick_telekinesis
p38
V5448
p39
sVpuck_dream_coil
p40
V5073
p41
sVspecial_bonus_attack_speed_250
p42
V7020
p43
sVphoenix sun
p44
Vnpc_dota_phoenix_sun
p45
sVitem_gloves
p46
V25
p47
sVspecial_bonus_unique_oracle
p48
V6206
p49
sVtidehunter_anchor_smash
p50
V5120
p51
sVursa_enrage
p52
V5360
p53
sVrazor_unstable_current
p54
V5084
p55
sVspecial_bonus_movement_speed_90
p56
V6706
p57
sVbatrider
p58
Vnpc_dota_hero_batrider
p59
sVelder_titan_natural_order_spirit
p60
V5750
p61
sVnpc_dota_hero_antimage
p62
Vanti-mage
p63
sVnpc_dota_goodguys_siege_upgraded_mega
p64
Vmega siege creep
p65
sVspectre_haunt
p66
V5337
p67
sVspecial_bonus_unique_undying
p68
V6155
p69
sVdazzle_poison_touch
p70
V5233
p71
sVspecial_bonus_unique_dragon_knight
p72
V6090
p73
sVspecial_bonus_mp_regen_175
p74
V6926
p75
sVnpc_dota_hero_tiny
p76
Vtiny
p77
sVspecial_bonus_unique_venomancer
p78
V6058
p79
sVchen
p80
Vnpc_dota_hero_chen
p81
sVitem_talisman_of_evasion
p82
V32
p83
sVtreant protector
p84
Vnpc_dota_hero_treant
p85
sVitem_recipe_force_staff
p86
V101
p87
sVbane_enfeeble
p88
V5012
p89
sValchemist_goblins_greed
p90
V5368
p91
sVnpc_dota_warlock_golem_1
p92
Vwarlock golem
p93
sVnpc_dota_warlock_golem_2
p94
Vwarlock golem
p95
sVnpc_dota_warlock_golem_3
p96
Vwarlock golem
p97
sVinvoker_ghost_walk
p98
V5381
p99
sVspecial_bonus_respawn_reduction_60
p100
V6059
p101
sVnpc_dota_neutral_alpha_wolf
p102
Valpha wolf
p103
sVnpc_dota_juggernaut_healing_ward
p104
Vhealing ward
p105
sVoutworld devourer
p106
Vnpc_dota_hero_obsidian_destroyer
p107
sVmedusa_split_shot
p108
V5504
p109
sVterrorblade_conjure_image
p110
V5620
p111
sVgreevil_time_lock
p112
V5555
p113
sVitem_recipe_vanguard
p114
V124
p115
sVspawnlord_aura
p116
V6125
p117
sVnpc_dota_hero_terrorblade
p118
Vterrorblade
p119
sVnpc_dota_goodguys_tower2_mid
p120
Vtower
p121
sValchemist
p122
Vnpc_dota_hero_alchemist
p123
sVnpc_dota_neutral_centaur_outrunner
p124
Vcentaur courser
p125
sVpangolier_swashbuckle
p126
V6344
p127
sVspecial_bonus_hp_300
p128
V5993
p129
sVdark_seer_surge
p130
V5257
p131
sVnpc_dota_hero_dark_seer
p132
Vdark seer
p133
sVspecial_bonus_unique_warlock_4
p134
V6505
p135
sVspecial_bonus_unique_warlock_5
p136
V6982
p137
sVspecial_bonus_unique_warlock_6
p138
V6986
p139
sVriki_blink_strike
p140
V5143
p141
sVspecial_bonus_unique_warlock_1
p142
V6053
p143
sVspecial_bonus_unique_warlock_2
p144
V6054
p145
sVspecial_bonus_unique_warlock_3
p146
V6412
p147
sVsandking_caustic_finale
p148
V5104
p149
sVspecial_bonus_unique_slark_2
p150
V6892
p151
sVspecial_bonus_unique_slark_3
p152
V6893
p153
sVspecial_bonus_unique_slark_4
p154
V6894
p155
sVpudge_meat_hook
p156
V5075
p157
sVnpc_dota_hero_night_stalker
p158
Vnight stalker
p159
sVmonkey_king_boundless_strike
p160
V5716
p161
sVspecial_bonus_unique_night_stalker
p162
V6129
p163
sVnpc_dota_badguys_melee_rax_bot
p164
Vmelee barracks
p165
sVoracle_purifying_flames
p166
V5639
p167
sVabyssal_underlord_atrophy_aura
p168
V5615
p169
sVnpc_dota_looping_sound
p170
g170
sVitem_recipe_desolator
p171
V167
p172
sVnpc_dota_goodguys_tower2_top
p173
Vtower
p174
sVpudge
p175
Vnpc_dota_hero_pudge
p176
sVnpc_dota_neutral_enraged_wildkin
p177
Vwildwing ripper
p178
sVphantom lancer
p179
Vnpc_dota_hero_phantom_lancer
p180
sVgreevil_cold_snap
p181
V5530
p182
sVmagnataur_reverse_polarity
p183
V5521
p184
sVitem_rod_of_atos
p185
V206
p186
sVspecial_bonus_intelligence_20
p187
V5995
p188
sVitem_vanguard
p189
V125
p190
sVomniknight
p191
Vnpc_dota_hero_omniknight
p192
sVitem_heart
p193
V114
p194
sVaxe_culling_blade
p195
V5010
p196
sVspecial_bonus_unique_weaver_1
p197
V6200
p198
sVspecial_bonus_unique_weaver_2
p199
V6131
p200
sVspecial_bonus_unique_weaver_3
p201
V6988
p202
sVspecial_bonus_unique_weaver_4
p203
V6989
p204
sVspecial_bonus_unique_weaver_5
p205
V6990
p206
sVitem_hyperstone
p207
V55
p208
sVroquelaire
p209
Vnpc_dota_roquelaire
p210
sVitem_cloak
p211
V31
p212
sVspecial_bonus_hp_275
p213
V6311
p214
sVsniper_shrapnel
p215
V5154
p216
sVitem_recipe_mjollnir
p217
V157
p218
sVspecial_bonus_unique_tinker_3
p219
V6953
p220
sVspecial_bonus_unique_tinker_2
p221
V6952
p222
sVspecial_bonus_agility_30
p223
V6406
p224
sVitem_recipe_refresher
p225
V109
p226
sVnpc_dota_neutral_harpy_storm
p227
Vharpy stormcrafter
p228
sVspecial_bonus_unique_phantom_assassin
p229
V6192
p230
sVclockwerk
p231
Vnpc_dota_hero_rattletrap
p232
sVnpc_dota_warlock_golem_scepter_1
p233
Vwarlock golem
p234
sVitem_recipe_vladmir
p235
V80
p236
sVspecial_bonus_gold_income_50
p237
V6318
p238
sVancient stalker
p239
Vnpc_dota_neutral_jungle_stalker
p240
sVforest_troll_high_priest_mana_aura
p241
V5491
p242
sVitem_recipe_heart
p243
V113
p244
sVrubick
p245
Vnpc_dota_hero_rubick
p246
sVenchantress
p247
Vnpc_dota_hero_enchantress
p248
sVitem_recipe_ancient_janggo
p249
V184
p250
sVvenomancer_plague_ward
p251
V5180
p252
sVnpc_dota_broodmother_web
p253
Vspin web
p254
sVelder_titan_echo_stomp
p255
V5589
p256
sVspecial_bonus_attack_range_300
p257
V6051
p258
sVdrow_ranger_trueshot
p259
V5021
p260
sVitem_necronomicon_2
p261
V193
p262
sVitem_necronomicon_3
p263
V194
p264
sVspecial_bonus_unique_underlord
p265
V6019
p266
sVitem_gauntlets
p267
V13
p268
sVspecial_bonus_unique_spirit_breaker_2
p269
V6296
p270
sVspecial_bonus_unique_spirit_breaker_3
p271
V6543
p272
sVspecial_bonus_unique_spirit_breaker_1
p273
V6149
p274
sVcrafty megagreevil
p275
Vnpc_dota_greevil_miniboss_yellow
p276
sVdragon_knight_elder_dragon_form
p277
V5229
p278
sVitem_power_treads
p279
V63
p280
sVitem_javelin
p281
V7
sVspecial_bonus_unique_necrophos_2
p282
V6703
p283
sVpuck
p284
Vnpc_dota_hero_puck
p285
sVlycan_howl
p286
V5396
p287
sVfaceless_void_backtrack
p288
V5183
p289
sVblue_dragonspawn_sorcerer_evasion
p290
V5325
p291
sVnpc_dota_neutral_kobold_tunneler
p292
Vkobold soldier
p293
sVitem_recipe_blade_mail
p294
V126
p295
sVitem_spirit_vessel
p296
V267
p297
sVnpc_dota_hero_lion
p298
Vlion
p299
sVbatrider_flamebreak
p300
V5321
p301
sValpha_wolf_command_aura
p302
V5309
p303
sVitem_recipe_wraith_band
p304
V74
p305
sVnpc_dota_hero_shadow_demon
p306
Vshadow demon
p307
sVmedusa
p308
Vnpc_dota_hero_medusa
p309
sVroshan_spell_block
p310
V5213
p311
sVhill troll priest
p312
Vnpc_dota_neutral_forest_troll_high_priest
p313
sVtiny_toss
p314
V5107
p315
sVnpc_dota_lesser_eidolon
p316
Vlesser eidolon
p317
sVnpc_dota_badguys_siege_upgraded
p318
Vsuper siege creep
p319
sVspecial_bonus_attack_speed_80
p320
V6030
p321
sVviper_corrosive_skin
p322
V5220
p323
sVitem_orb_of_venom
p324
V181
p325
sVitem_recipe_nullifier
p326
V224
p327
sVspecial_bonus_unique_omniknight_1
p328
V5981
p329
sVspecial_bonus_unique_omniknight_2
p330
V6300
p331
sVspecial_bonus_unique_omniknight_3
p332
V6709
p333
sVspecial_bonus_unique_phantom_assassin_3
p334
V6848
p335
sVspecial_bonus_unique_phantom_assassin_2
p336
V6847
p337
sVnpc_dota_neutral_harpy_scout
p338
Vharpy scout
p339
sVgiant_wolf_critical_strike
p340
V5307
p341
sVcourier_transfer_items
p342
V5206
p343
sg339
g338
sVitem_mantle
p344
V15
p345
sVattribute_bonus
p346
V5002
p347
sVbounty_hunter_shuriken_toss
p348
V5285
p349
sVtinker_rearm
p350
V5153
p351
sVancient_apparition_chilling_touch
p352
V5347
p353
sVitem_recipe_sheepstick
p354
V95
p355
sVroshan_halloween_wave_of_force
p356
V9993
p357
sVbatrider_firefly
p358
V5322
p359
sS'ability_order'
p360
(dp361
Vmega siege creep
p362
(lp363
V
aV
aV
aV
aV
aV
aV
aV
asVnaga siren
p364
(lp365
Vnaga_siren_mirror_image
p366
aVnaga_siren_ensnare
p367
aVnaga_siren_rip_tide
p368
aVgeneric_hidden
p369
aVgeneric_hidden
p370
aVnaga_siren_song_of_the_siren
p371
aVnaga_siren_song_of_the_siren_cancel
p372
aVspecial_bonus_movement_speed_25
p373
aVspecial_bonus_unique_naga_siren_4
p374
aVspecial_bonus_agility_15
p375
aVspecial_bonus_strength_14
p376
aVspecial_bonus_unique_naga_siren_2
p377
aVspecial_bonus_unique_naga_siren
p378
aVspecial_bonus_evasion_30
p379
aVspecial_bonus_unique_naga_siren_3
p380
asVradiant's ancient
p381
(lp382
Vbackdoor_protection_in_base
p383
aV
aV
aV
aV
aV
aV
aV
asVdivine megagreevil
p384
(lp385
Vgreevil_miniboss_white_purification
p386
aVgreevil_miniboss_white_degen_aura
p387
aVgreevil_miniboss_sight
p388
aV
asVbeetle
p389
(lp390
V
aV
aV
aV
asVdiretide crawler
p391
(lp392
V
aV
aV
aV
aV
aV
aV
aV
asVnpc_dota_wisp_spirit
p393
(lp394
V
aV
aV
aV
asVmega ranged creep
p395
(lp396
V
aV
aV
aV
aV
aV
aV
aV
asg308
(lp397
Vmedusa_split_shot
p398
aVmedusa_mystic_snake
p399
aVmedusa_mana_shield
p400
aVgeneric_hidden
p401
aVgeneric_hidden
p402
aVmedusa_stone_gaze
p403
aVspecial_bonus_attack_damage_20
p404
aVspecial_bonus_evasion_15
p405
aVspecial_bonus_attack_speed_30
p406
aVspecial_bonus_unique_medusa_3
p407
aVspecial_bonus_mp_700
p408
aVspecial_bonus_unique_medusa
p409
aVspecial_bonus_unique_medusa_2
p410
aVspecial_bonus_unique_medusa_4
p411
asg312
(lp412
Vforest_troll_high_priest_heal
p413
aVforest_troll_high_priest_mana_aura
p414
aV
aV
asVmelee creep
p415
(lp416
V
aV
aV
aV
aV
aV
aV
aV
asg103
(lp417
Valpha_wolf_critical_strike
p418
aValpha_wolf_command_aura
p419
aV
aV
asVnpc_dota_treant_eyes
p420
(lp421
V
aV
aV
aV
aV
asVfrozen megagreevil
p422
(lp423
Vgreevil_miniboss_blue_cold_feet
p424
aVgreevil_miniboss_blue_ice_vortex
p425
aVgreevil_miniboss_sight
p426
aV
asVhellbear smasher
p427
(lp428
Vpolar_furbolg_ursa_warrior_thunder_clap
p429
aVcentaur_khan_endurance_aura
p430
aV
aV
asg209
(lp431
V
aV
aV
aV
asVfell spirit
p432
(lp433
V
aV
aV
aV
asVproximity mine
p434
(lp435
V
aV
aV
aV
asVnpc_dota_halloween_chaos_unit
p436
(lp437
V
aV
aV
aV
aV
aV
aV
aV
asVspiderite
p438
(lp439
V
aV
aV
aV
aV
aV
aV
aV
asVundying
p440
(lp441
Vundying_decay
p442
aVundying_soul_rip
p443
aVundying_tombstone
p444
aVgeneric_hidden
p445
aVgeneric_hidden
p446
aVundying_flesh_golem
p447
aVspecial_bonus_cast_range_100
p448
aVspecial_bonus_hp_regen_8
p449
aVspecial_bonus_unique_undying_3
p450
aVspecial_bonus_unique_undying_4
p451
aVspecial_bonus_unique_undying
p452
aVspecial_bonus_unique_undying_5
p453
aVspecial_bonus_reincarnation_200
p454
aVspecial_bonus_unique_undying_2
p455
asVriki
p456
(lp457
Vriki_smoke_screen
p458
aVriki_blink_strike
p459
aVriki_permanent_invisibility
p460
aVgeneric_hidden
p461
aVgeneric_hidden
p462
aVriki_tricks_of_the_trade
p463
aVspecial_bonus_hp_regen_5
p464
aVspecial_bonus_agility_8
p465
aVspecial_bonus_20_crit_15
p466
aVspecial_bonus_unique_riki_2
p467
aVspecial_bonus_unique_riki_1
p468
aVspecial_bonus_unique_riki_3
p469
aVspecial_bonus_unique_riki_4
p470
aVspecial_bonus_unique_riki_5
p471
asVnpc_dota_roshan_halloween_minion
p472
(lp473
V
aV
aV
aV
aV
aV
aV
aV
asVdire year beast
p474
(lp475
Vcny_beast_force_attack
p476
aVcny_beast_teleport
p477
aV
aV
aV
aV
aV
aV
asVsiege creep
p478
(lp479
V
aV
aV
aV
aV
aV
aV
aV
asVtusk
p480
(lp481
Vtusk_ice_shards
p482
aVtusk_snowball
p483
aVtusk_frozen_sigil
p484
aVtusk_walrus_kick
p485
aVgeneric_hidden
p486
aVtusk_walrus_punch
p487
aVtusk_launch_snowball
p488
aVspecial_bonus_exp_boost_40
p489
aVspecial_bonus_gold_income_15
p490
aVspecial_bonus_hp_350
p491
aVspecial_bonus_unique_tusk_2
p492
aVspecial_bonus_unique_tusk_3
p493
aVspecial_bonus_unique_tusk
p494
aVspecial_bonus_unique_tusk_4
p495
aVspecial_bonus_unique_tusk_5
p496
asVsuper ranged creep
p497
(lp498
V
aV
aV
aV
aV
aV
aV
aV
asVnpc_dota_stormspirit_remnant
p499
(lp500
V
aV
aV
aV
asVsniper
p501
(lp502
Vsniper_shrapnel
p503
aVsniper_headshot
p504
aVsniper_take_aim
p505
aVgeneric_hidden
p506
aVgeneric_hidden
p507
aVsniper_assassinate
p508
aVspecial_bonus_cooldown_reduction_15
p509
aVspecial_bonus_attack_damage_20
p510
aVspecial_bonus_attack_speed_40
p511
aVspecial_bonus_unique_sniper_1
p512
aVspecial_bonus_unique_sniper_3
p513
aVspecial_bonus_unique_sniper_4
p514
aVspecial_bonus_attack_range_125
p515
aVspecial_bonus_unique_sniper_2
p516
asg159
(lp517
Vnight_stalker_void
p518
aVnight_stalker_crippling_fear
p519
aVnight_stalker_hunter_in_the_night
p520
aVgeneric_hidden
p521
aVgeneric_hidden
p522
aVnight_stalker_darkness
p523
aVspecial_bonus_hp_200
p524
aVspecial_bonus_mp_200
p525
aVspecial_bonus_strength_15
p526
aVspecial_bonus_cast_range_150
p527
aVspecial_bonus_movement_speed_50
p528
aVspecial_bonus_attack_damage_50
p529
aVspecial_bonus_unique_night_stalker_2
p530
aVspecial_bonus_unique_night_stalker
p531
asg133
(lp532
Vdark_seer_vacuum
p533
aVdark_seer_ion_shell
p534
aVdark_seer_surge
p535
aVgeneric_hidden
p536
aVgeneric_hidden
p537
aVdark_seer_wall_of_replica
p538
aVspecial_bonus_evasion_12
p539
aVspecial_bonus_attack_damage_90
p540
aVspecial_bonus_hp_regen_12
p541
aVspecial_bonus_unique_dark_seer_2
p542
aVspecial_bonus_cooldown_reduction_15
p543
aVspecial_bonus_unique_dark_seer_3
p544
aVspecial_bonus_unique_dark_seer_4
p545
aVspecial_bonus_unique_dark_seer
p546
asg339
(lp547
V
aV
aV
aV
asVpugna
p548
(lp549
Vpugna_nether_blast
p550
aVpugna_decrepify
p551
aVpugna_nether_ward
p552
aVgeneric_hidden
p553
aVgeneric_hidden
p554
aVpugna_life_drain
p555
aVspecial_bonus_movement_speed_25
p556
aVspecial_bonus_hp_225
p557
aVspecial_bonus_unique_pugna_4
p558
aVspecial_bonus_unique_pugna_6
p559
aVspecial_bonus_unique_pugna_1
p560
aVspecial_bonus_unique_pugna_5
p561
aVspecial_bonus_unique_pugna_2
p562
aVspecial_bonus_unique_pugna_3
p563
asVstone remnant
p564
(lp565
V
aV
aV
aV
asVsatyr mindstealer
p566
(lp567
Vsatyr_soulstealer_mana_burn
p568
aV
aV
aV
asVranged barracks
p569
(lp570
Vbackdoor_protection_in_base
p571
aV
aV
aV
aV
aV
aV
aV
asVwitch doctor
p572
(lp573
Vwitch_doctor_paralyzing_cask
p574
aVwitch_doctor_voodoo_restoration
p575
aVwitch_doctor_maledict
p576
aVgeneric_hidden
p577
aVgeneric_hidden
p578
aVwitch_doctor_death_ward
p579
aVspecial_bonus_attack_damage_75
p580
aVspecial_bonus_armor_5
p581
aVspecial_bonus_unique_witch_doctor_3
p582
aVspecial_bonus_gold_income_20
p583
aVspecial_bonus_unique_witch_doctor_1
p584
aVspecial_bonus_unique_witch_doctor_4
p585
aVspecial_bonus_unique_witch_doctor_2
p586
aVspecial_bonus_unique_witch_doctor_5
p587
asVnpc_dota_rattletrap_rocket
p588
(lp589
V
aV
aV
aV
asVbane
p590
(lp591
Vbane_enfeeble
p592
aVbane_brain_sap
p593
aVbane_nightmare
p594
aVgeneric_hidden
p595
aVgeneric_hidden
p596
aVbane_fiends_grip
p597
aVbane_nightmare_end
p598
aVspecial_bonus_armor_6
p599
aVspecial_bonus_cast_range_100
p600
aVspecial_bonus_unique_bane_4
p601
aVspecial_bonus_exp_boost_40
p602
aVspecial_bonus_unique_bane_1
p603
aVspecial_bonus_movement_speed_75
p604
aVspecial_bonus_unique_bane_2
p605
aVspecial_bonus_unique_bane_3
p606
asVwindranger
p607
(lp608
Vwindrunner_shackleshot
p609
aVwindrunner_powershot
p610
aVwindrunner_windrun
p611
aVgeneric_hidden
p612
aVgeneric_hidden
p613
aVwindrunner_focusfire
p614
aVspecial_bonus_mp_regen_175
p615
aVspecial_bonus_unique_windranger_2
p616
aVspecial_bonus_unique_windranger_3
p617
aVspecial_bonus_attack_range_100
p618
aVspecial_bonus_unique_windranger_6
p619
aVspecial_bonus_unique_windranger
p620
aVspecial_bonus_unique_windranger_4
p621
aVspecial_bonus_cooldown_reduction_30
p622
asg44
(lp623
V
aV
aV
aV
asVancient rock golem
p624
(lp625
V
aV
aV
aV
asVancient rumblehide
p626
(lp627
V
aV
aV
aV
asVhill troll berserker
p628
(lp629
V
aV
aV
aV
asVkobold
p630
(lp631
V
aV
aV
aV
asVwraith king skeleton
p632
(lp633
V
aV
aV
aV
aV
aV
aV
aV
asVrotten greevil minion
p634
(lp635
V
aV
aV
aV
asVplague ward
p636
(lp637
V
aV
aV
aV
aV
asVember spirit
p638
(lp639
sg58
(lp640
Vbatrider_sticky_napalm
p641
aVbatrider_flamebreak
p642
aVbatrider_firefly
p643
aVgeneric_hidden
p644
aVgeneric_hidden
p645
aVbatrider_flaming_lasso
p646
aVspecial_bonus_spell_amplify_6
p647
aVspecial_bonus_armor_5
p648
aVspecial_bonus_unique_batrider_3
p649
aVspecial_bonus_hp_300
p650
aVspecial_bonus_cooldown_reduction_15
p651
aVspecial_bonus_movement_speed_50
p652
aVspecial_bonus_unique_batrider_1
p653
aVspecial_bonus_unique_batrider_2
p654
asVsuper siege creep
p655
(lp656
V
aV
aV
aV
aV
aV
aV
aV
asg105
(lp657
V
aV
aV
aV
aV
aV
aV
aV
asVearth spirit
p658
(lp659
Vearth_spirit_boulder_smash
p660
aVearth_spirit_rolling_boulder
p661
aVearth_spirit_geomagnetic_grip
p662
aVearth_spirit_stone_caller
p663
aVearth_spirit_petrify
p664
aVearth_spirit_magnetize
p665
aVspecial_bonus_intelligence_10
p666
aVspecial_bonus_attack_damage_40
p667
aVspecial_bonus_armor_7
p668
aVspecial_bonus_unique_earth_spirit
p669
aVspecial_bonus_spell_amplify_15
p670
aVspecial_bonus_gold_income_25
p671
aVspecial_bonus_unique_earth_spirit_2
p672
aVspecial_bonus_unique_earth_spirit_3
p673
asVabaddon
p674
(lp675
Vabaddon_death_coil
p676
aVabaddon_aphotic_shield
p677
aVabaddon_frostmourne
p678
aVgeneric_hidden
p679
aVgeneric_hidden
p680
aVabaddon_borrowed_time
p681
aVspecial_bonus_movement_speed_25
p682
aVspecial_bonus_exp_boost_20
p683
aVspecial_bonus_armor_6
p684
aVspecial_bonus_unique_abaddon_2
p685
aVspecial_bonus_cooldown_reduction_15
p686
aVspecial_bonus_attack_damage_90
p687
aVspecial_bonus_unique_abaddon
p688
aVspecial_bonus_unique_abaddon_3
p689
asVkunkka
p690
(lp691
Vkunkka_torrent
p692
aVkunkka_tidebringer
p693
aVkunkka_x_marks_the_spot
p694
aVgeneric_hidden
p695
aVgeneric_hidden
p696
aVkunkka_ghostship
p697
aVkunkka_return
p698
aVspecial_bonus_attack_damage_40
p699
aVspecial_bonus_armor_6
p700
aVspecial_bonus_hp_regen_10
p701
aVspecial_bonus_unique_kunkka_2
p702
aVspecial_bonus_unique_kunkka
p703
aVspecial_bonus_strength_25
p704
aVspecial_bonus_unique_kunkka_3
p705
aVspecial_bonus_unique_kunkka_4
p706
asVroshling
p707
(lp708
V
aV
aV
aV
aV
aV
aV
aV
asVparadox memorial
p709
(lp710
V
aV
aV
aV
aV
asVdire eidolon
p711
(lp712
V
aV
aV
aV
aV
aV
aV
aV
asVnpc_dota_invisible_vision_source
p713
(lp714
sVphoenix
p715
(lp716
Vphoenix_icarus_dive
p717
aVphoenix_fire_spirits
p718
aVphoenix_sun_ray
p719
aVphoenix_sun_ray_toggle_move
p720
aVgeneric_hidden
p721
aVphoenix_supernova
p722
aVphoenix_launch_fire_spirit
p723
aVphoenix_icarus_dive_stop
p724
aVphoenix_sun_ray_stop
p725
aVspecial_bonus_gold_income_15
p726
aVspecial_bonus_spell_amplify_8
p727
aVspecial_bonus_unique_phoenix_3
p728
aVspecial_bonus_exp_boost_40
p729
aVspecial_bonus_unique_phoenix_4
p730
aVspecial_bonus_unique_phoenix_2
p731
aVspecial_bonus_unique_phoenix_1
p732
aVspecial_bonus_unique_phoenix_5
p733
asVscorching megagreevil
p734
(lp735
Vgreevil_miniboss_orange_dragon_slave
p736
aVgreevil_miniboss_orange_light_strike_array
p737
aVgreevil_miniboss_sight
p738
aV
asVweaver
p739
(lp740
Vweaver_the_swarm
p741
aVweaver_shukuchi
p742
aVweaver_geminate_attack
p743
aVgeneric_hidden
p744
aVgeneric_hidden
p745
aVweaver_time_lapse
p746
aVspecial_bonus_mana_break_20
p747
aVspecial_bonus_exp_boost_25
p748
aVspecial_bonus_strength_12
p749
aVspecial_bonus_unique_weaver_1
p750
aVspecial_bonus_unique_weaver_3
p751
aVspecial_bonus_unique_weaver_4
p752
aVspecial_bonus_unique_weaver_2
p753
aVspecial_bonus_unique_weaver_5
p754
asVcentaur warrunner
p755
(lp756
Vcentaur_hoof_stomp
p757
aVcentaur_double_edge
p758
aVcentaur_return
p759
aVgeneric_hidden
p760
aVgeneric_hidden
p761
aVcentaur_stampede
p762
aVspecial_bonus_evasion_10
p763
aVspecial_bonus_magic_resistance_10
p764
aVspecial_bonus_attack_damage_75
p765
aVspecial_bonus_unique_centaur_3
p766
aVspecial_bonus_unique_centaur_4
p767
aVspecial_bonus_strength_20
p768
aVspecial_bonus_unique_centaur_1
p769
aVspecial_bonus_unique_centaur_2
p770
asVvicious greevil minion
p771
(lp772
V
aV
aV
aV
asVclinkz
p773
(lp774
Vclinkz_strafe
p775
aVclinkz_searing_arrows
p776
aVclinkz_wind_walk
p777
aVgeneric_hidden
p778
aVgeneric_hidden
p779
aVclinkz_death_pact
p780
aVspecial_bonus_magic_resistance_12
p781
aVspecial_bonus_armor_5
p782
aVspecial_bonus_evasion_15
p783
aVspecial_bonus_unique_clinkz_1
p784
aVspecial_bonus_attack_range_100
p785
aVspecial_bonus_hp_regen_20
p786
aVspecial_bonus_unique_clinkz_2
p787
aVspecial_bonus_unique_clinkz_3
p788
asVearthshaker
p789
(lp790
Vearthshaker_fissure
p791
aVearthshaker_enchant_totem
p792
aVearthshaker_aftershock
p793
aVgeneric_hidden
p794
aVgeneric_hidden
p795
aVearthshaker_echo_slam
p796
aVspecial_bonus_attack_damage_30
p797
aVspecial_bonus_mp_250
p798
aVspecial_bonus_movement_speed_30
p799
aVspecial_bonus_armor_7
p800
aVspecial_bonus_unique_earthshaker_2
p801
aVspecial_bonus_unique_earthshaker_3
p802
aVspecial_bonus_magic_resistance_50
p803
aVspecial_bonus_unique_earthshaker
p804
asg293
(lp805
V
aV
aV
aV
asVgreater hawk
p806
(lp807
Vbeastmaster_hawk_invisibility
p808
aV
aV
aV
asVwarlock golem
p809
(lp810
Vwarlock_golem_flaming_fists
p811
aVwarlock_golem_permanent_immolation
p812
aV
aV
asVclever greevil minion
p813
(lp814
V
aV
aV
aV
asVvile greevil minion
p815
(lp816
V
aV
aV
aV
asVdoom shard
p817
(lp818
Vmud_golem_hurl_boulder
p819
aV
aV
aV
asg299
(lp820
Vlion_impale
p821
aVlion_voodoo
p822
aVlion_mana_drain
p823
aVgeneric_hidden
p824
aVgeneric_hidden
p825
aVlion_finger_of_death
p826
aVspecial_bonus_cast_range_75
p827
aVspecial_bonus_attack_damage_75
p828
aVspecial_bonus_unique_lion_3
p829
aVspecial_bonus_gold_income_15
p830
aVspecial_bonus_hp_500
p831
aVspecial_bonus_unique_lion
p832
aVspecial_bonus_unique_lion_2
p833
aVspecial_bonus_unique_lion_4
p834
asVnecrophos
p835
(lp836
Vnecrolyte_death_pulse
p837
aVnecrolyte_sadist
p838
aVnecrolyte_heartstopper_aura
p839
aVgeneric_hidden
p840
aVgeneric_hidden
p841
aVnecrolyte_reapers_scythe
p842
aVspecial_bonus_attack_damage_40
p843
aVspecial_bonus_strength_10
p844
aVspecial_bonus_hp_300
p845
aVspecial_bonus_movement_speed_30
p846
aVspecial_bonus_magic_resistance_20
p847
aVspecial_bonus_attack_speed_80
p848
aVspecial_bonus_unique_necrophos_2
p849
aVspecial_bonus_unique_necrophos
p850
asVearth
p851
(lp852
Vbrewmaster_earth_hurl_boulder
p853
aVbrewmaster_earth_spell_immunity
p854
aVbrewmaster_earth_pulverize
p855
aVbrewmaster_thunder_clap
p856
aVgeneric_hidden
p857
aVgeneric_hidden
p858
asg80
(lp859
Vchen_penitence
p860
aVchen_test_of_faith
p861
aVchen_holy_persuasion
p862
aVgeneric_hidden
p863
aVgeneric_hidden
p864
aVchen_hand_of_god
p865
aVspecial_bonus_exp_boost_35
p866
aVspecial_bonus_cast_range_200
p867
aVspecial_bonus_armor_7
p868
aVspecial_bonus_unique_chen_3
p869
aVspecial_bonus_gold_income_30
p870
aVspecial_bonus_unique_chen_4
p871
aVspecial_bonus_unique_chen_1
p872
aVspecial_bonus_unique_chen_2
p873
asVbrittle greevil minion
p874
(lp875
V
aV
aV
aV
asVtroll warlord
p876
(lp877
Vtroll_warlord_berserkers_rage
p878
aVtroll_warlord_whirling_axes_ranged
p879
aVtroll_warlord_whirling_axes_melee
p880
aVtroll_warlord_fervor
p881
aVgeneric_hidden
p882
aVtroll_warlord_battle_trance
p883
aVspecial_bonus_agility_10
p884
aVspecial_bonus_hp_200
p885
aVspecial_bonus_unique_troll_warlord_2
p886
aVspecial_bonus_unique_troll_warlord_3
p887
aVspecial_bonus_evasion_20
p888
aVspecial_bonus_attack_damage_50
p889
aVspecial_bonus_unique_troll_warlord
p890
aVspecial_bonus_unique_troll_warlord_4
p891
asg84
(lp892
Vtreant_natures_guise
p893
aVtreant_leech_seed
p894
aVtreant_living_armor
p895
aVtreant_eyes_in_the_forest
p896
aVgeneric_hidden
p897
aVtreant_overgrowth
p898
aVspecial_bonus_exp_boost_35
p899
aVspecial_bonus_cooldown_reduction_10
p900
aVspecial_bonus_attack_damage_90
p901
aVspecial_bonus_unique_treant_3
p902
aVspecial_bonus_unique_treant_4
p903
aVspecial_bonus_unique_treant_2
p904
aVspecial_bonus_unique_treant
p905
aVspecial_bonus_unique_treant_5
p906
asVdisruptor
p907
(lp908
Vdisruptor_thunder_strike
p909
aVdisruptor_glimpse
p910
aVdisruptor_kinetic_field
p911
aVgeneric_hidden
p912
aVgeneric_hidden
p913
aVdisruptor_static_storm
p914
aVspecial_bonus_hp_200
p915
aVspecial_bonus_unique_disruptor_3
p916
aVspecial_bonus_cast_range_150
p917
aVspecial_bonus_unique_disruptor_2
p918
aVspecial_bonus_gold_income_30
p919
aVspecial_bonus_unique_disruptor
p920
aVspecial_bonus_unique_disruptor_4
p921
aVspecial_bonus_unique_disruptor_5
p922
asVspirit breaker
p923
(lp924
Vspirit_breaker_charge_of_darkness
p925
aVspirit_breaker_empowering_haste
p926
aVspirit_breaker_greater_bash
p927
aVgeneric_hidden
p928
aVgeneric_hidden
p929
aVspirit_breaker_nether_strike
p930
aVspecial_bonus_night_vision_400
p931
aVspecial_bonus_armor_5
p932
aVspecial_bonus_hp_regen_10
p933
aVspecial_bonus_attack_damage_40
p934
aVspecial_bonus_unique_spirit_breaker_3
p935
aVspecial_bonus_unique_spirit_breaker_2
p936
aVspecial_bonus_unique_spirit_breaker_1
p937
aVspecial_bonus_hp_800
p938
asVnpc_dota_death_prophet_torment
p939
(lp940
V
aV
aV
aV
asVogre frostmage
p941
(lp942
Vogre_magi_frost_armor
p943
aV
aV
aV
asVvhoul assassin
p944
(lp945
Vgnoll_assassin_envenomed_weapon
p946
aV
aV
aV
asVlegion commander
p947
(lp948
Vlegion_commander_overwhelming_odds
p949
aVlegion_commander_press_the_attack
p950
aVlegion_commander_moment_of_courage
p951
aVgeneric_hidden
p952
aVgeneric_hidden
p953
aVlegion_commander_duel
p954
aVspecial_bonus_strength_8
p955
aVspecial_bonus_exp_boost_25
p956
aVspecial_bonus_attack_speed_30
p957
aVspecial_bonus_unique_legion_commander_4
p958
aVspecial_bonus_movement_speed_60
p959
aVspecial_bonus_unique_legion_commander_3
p960
aVspecial_bonus_unique_legion_commander
p961
aVspecial_bonus_unique_legion_commander_2
p962
asg63
(lp963
Vantimage_mana_break
p964
aVantimage_blink
p965
aVantimage_spell_shield
p966
aVgeneric_hidden
p967
aVgeneric_hidden
p968
aVantimage_mana_void
p969
aVspecial_bonus_hp_175
p970
aVspecial_bonus_attack_speed_20
p971
aVspecial_bonus_unique_antimage
p972
aVspecial_bonus_agility_15
p973
aVspecial_bonus_unique_antimage_5
p974
aVspecial_bonus_unique_antimage_3
p975
aVspecial_bonus_unique_antimage_4
p976
aVspecial_bonus_unique_antimage_2
p977
asVspirit bear
p978
(lp979
Vbear_empty1
p980
aVbear_empty2
p981
aVlone_druid_savage_roar_bear
p982
aV
asVdeath prophet
p983
(lp984
Vdeath_prophet_carrion_swarm
p985
aVdeath_prophet_silence
p986
aVdeath_prophet_spirit_siphon
p987
aVgeneric_hidden
p988
aVgeneric_hidden
p989
aVdeath_prophet_exorcism
p990
aVspecial_bonus_attack_damage_50
p991
aVspecial_bonus_magic_resistance_12
p992
aVspecial_bonus_unique_death_prophet_3
p993
aVspecial_bonus_cast_range_150
p994
aVspecial_bonus_hp_500
p995
aVspecial_bonus_unique_death_prophet_2
p996
aVspecial_bonus_unique_death_prophet_4
p997
aVspecial_bonus_unique_death_prophet
p998
asVdiretide zombie
p999
(lp1000
V
aV
aV
aV
aV
aV
aV
aV
asVdrow ranger
p1001
(lp1002
Vdrow_ranger_frost_arrows
p1003
aVdrow_ranger_wave_of_silence
p1004
aVdrow_ranger_trueshot
p1005
aVgeneric_hidden
p1006
aVgeneric_hidden
p1007
aVdrow_ranger_marksmanship
p1008
aVspecial_bonus_movement_speed_20
p1009
aVspecial_bonus_all_stats_5
p1010
aVspecial_bonus_attack_speed_25
p1011
aVspecial_bonus_unique_drow_ranger_2
p1012
aVspecial_bonus_unique_drow_ranger_3
p1013
aVspecial_bonus_unique_drow_ranger_4
p1014
aVspecial_bonus_unique_drow_ranger_1
p1015
aVspecial_bonus_cooldown_reduction_50
p1016
asVinvoker
p1017
(lp1018
Vinvoker_quas
p1019
aVinvoker_wex
p1020
aVinvoker_exort
p1021
aVinvoker_empty1
p1022
aVinvoker_empty2
p1023
aVinvoker_invoke
p1024
aVinvoker_cold_snap
p1025
aVinvoker_ghost_walk
p1026
aVinvoker_tornado
p1027
aVinvoker_emp
p1028
aVinvoker_alacrity
p1029
aVinvoker_chaos_meteor
p1030
aVinvoker_sun_strike
p1031
aVinvoker_forge_spirit
p1032
aVinvoker_ice_wall
p1033
aVinvoker_deafening_blast
p1034
aVspecial_bonus_unique_invoker_8
p1035
aVspecial_bonus_unique_invoker_6
p1036
aVspecial_bonus_unique_invoker_1
p1037
aVspecial_bonus_unique_invoker_7
p1038
aVspecial_bonus_unique_invoker_4
p1039
aVspecial_bonus_unique_invoker_5
p1040
aVspecial_bonus_unique_invoker_2
p1041
aVspecial_bonus_unique_invoker_3
p1042
asVjuggernaut
p1043
(lp1044
Vjuggernaut_blade_fury
p1045
aVjuggernaut_healing_ward
p1046
aVjuggernaut_blade_dance
p1047
aVgeneric_hidden
p1048
aVgeneric_hidden
p1049
aVjuggernaut_omni_slash
p1050
aVspecial_bonus_all_stats_5
p1051
aVspecial_bonus_movement_speed_20
p1052
aVspecial_bonus_unique_juggernaut
p1053
aVspecial_bonus_attack_speed_25
p1054
aVspecial_bonus_armor_10
p1055
aVspecial_bonus_unique_juggernaut_3
p1056
aVspecial_bonus_hp_600
p1057
aVspecial_bonus_unique_juggernaut_2
p1058
asVforged spirit
p1059
(lp1060
Vforged_spirit_melting_strike
p1061
aV
aV
aV
aV
aV
aV
aV
asVursa
p1062
(lp1063
Vursa_earthshock
p1064
aVursa_overpower
p1065
aVursa_fury_swipes
p1066
aVgeneric_hidden
p1067
aVgeneric_hidden
p1068
aVursa_enrage
p1069
aVspecial_bonus_mp_regen_175
p1070
aVspecial_bonus_strength_8
p1071
aVspecial_bonus_agility_16
p1072
aVspecial_bonus_unique_ursa_2
p1073
aVspecial_bonus_unique_ursa_3
p1074
aVspecial_bonus_unique_ursa_4
p1075
aVspecial_bonus_unique_ursa_5
p1076
aVspecial_bonus_unique_ursa
p1077
asg125
(lp1078
Vmudgolem_cloak_aura
p1079
aV
aV
aV
asVnpc_dota_techies_minefield_sign
p1080
(lp1081
V
aV
aV
aV
aV
asVlycan
p1082
(lp1083
Vlycan_summon_wolves
p1084
aVlycan_howl
p1085
aVlycan_feral_impulse
p1086
aVgeneric_hidden
p1087
aVgeneric_hidden
p1088
aVlycan_shapeshift
p1089
aVspecial_bonus_armor_5
p1090
aVspecial_bonus_attack_damage_20
p1091
aVspecial_bonus_unique_lycan_3
p1092
aVspecial_bonus_cooldown_reduction_12
p1093
aVspecial_bonus_unique_lycan_1
p1094
aVspecial_bonus_unique_lycan_4
p1095
aVspecial_bonus_unique_lycan_5
p1096
aVspecial_bonus_unique_lycan_2
p1097
asVshadow shaman
p1098
(lp1099
Vshadow_shaman_ether_shock
p1100
aVshadow_shaman_voodoo
p1101
aVshadow_shaman_shackles
p1102
aVgeneric_hidden
p1103
aVgeneric_hidden
p1104
aVshadow_shaman_mass_serpent_ward
p1105
aVspecial_bonus_hp_200
p1106
aVspecial_bonus_exp_boost_20
p1107
aVspecial_bonus_cast_range_125
p1108
aVspecial_bonus_unique_shadow_shaman_5
p1109
aVspecial_bonus_unique_shadow_shaman_2
p1110
aVspecial_bonus_unique_shadow_shaman_1
p1111
aVspecial_bonus_unique_shadow_shaman_3
p1112
aVspecial_bonus_unique_shadow_shaman_4
p1113
asVblessed greevil minion
p1114
(lp1115
V
aV
aV
aV
asVmeepo
p1116
(lp1117
Vmeepo_earthbind
p1118
aVmeepo_poof
p1119
aVmeepo_geostrike
p1120
aVgeneric_hidden
p1121
aVgeneric_hidden
p1122
aVmeepo_divided_we_stand
p1123
aVspecial_bonus_strength_7
p1124
aVspecial_bonus_attack_damage_20
p1125
aVspecial_bonus_lifesteal_10
p1126
aVspecial_bonus_unique_meepo_2
p1127
aVspecial_bonus_unique_meepo_3
p1128
aVspecial_bonus_evasion_15
p1129
aVspecial_bonus_hp_600
p1130
aVspecial_bonus_unique_meepo
p1131
asVflying courier
p1132
(lp1133
Vcourier_return_to_base
p1134
aVcourier_go_to_secretshop
p1135
aVcourier_return_stash_items
p1136
aVcourier_take_stash_items
p1137
aVcourier_transfer_items
p1138
aVcourier_shield
p1139
asVeidolon
p1140
(lp1141
V
aV
aV
aV
aV
aV
aV
aV
asg27
(lp1142
Vbroodmother_poison_sting
p1143
aVbroodmother_spawn_spiderite
p1144
aV
aV
aV
aV
aV
aV
asVfrozen sigil
p1145
(lp1146
V
aV
aV
aV
aV
aV
aV
aV
asVshard golem
p1147
(lp1148
Vmud_golem_hurl_boulder
p1149
aV
aV
aV
asg106
(lp1150
Vobsidian_destroyer_arcane_orb
p1151
aVobsidian_destroyer_astral_imprisonment
p1152
aVobsidian_destroyer_essence_aura
p1153
aVgeneric_hidden
p1154
aVgeneric_hidden
p1155
aVobsidian_destroyer_sanity_eclipse
p1156
aVspecial_bonus_hp_200
p1157
aVspecial_bonus_attack_speed_20
p1158
aVspecial_bonus_movement_speed_40
p1159
aVspecial_bonus_unique_outworld_devourer_2
p1160
aVspecial_bonus_strength_20
p1161
aVspecial_bonus_unique_outworld_devourer_3
p1162
aVspecial_bonus_unique_outworld_devourer
p1163
aVspecial_bonus_spell_lifesteal_15
p1164
asVnpc_dota_wraith_ghost
p1165
(lp1166
Vghost_frost_attack
p1167
aV
aV
aV
asVruthless megagreevil
p1168
(lp1169
Vgreevil_miniboss_red_earthshock
p1170
aVgreevil_miniboss_red_overpower
p1171
aVgreevil_miniboss_sight
p1172
aV
asVhill troll
p1173
(lp1174
V
aV
aV
aV
asVtinker
p1175
(lp1176
Vtinker_laser
p1177
aVtinker_heat_seeking_missile
p1178
aVtinker_march_of_the_machines
p1179
aVgeneric_hidden
p1180
aVgeneric_hidden
p1181
aVtinker_rearm
p1182
aVspecial_bonus_spell_amplify_6
p1183
aVspecial_bonus_cast_range_75
p1184
aVspecial_bonus_movement_speed_40
p1185
aVspecial_bonus_spell_lifesteal_10
p1186
aVspecial_bonus_attack_damage_100
p1187
aVspecial_bonus_unique_tinker_2
p1188
aVspecial_bonus_unique_tinker
p1189
aVspecial_bonus_unique_tinker_3
p1190
asVbroodmother
p1191
(lp1192
Vbroodmother_spawn_spiderlings
p1193
aVbroodmother_spin_web
p1194
aVbroodmother_incapacitating_bite
p1195
aVgeneric_hidden
p1196
aVgeneric_hidden
p1197
aVbroodmother_insatiable_hunger
p1198
aVspecial_bonus_unique_broodmother_3
p1199
aVspecial_bonus_hp_200
p1200
aVspecial_bonus_cooldown_reduction_20
p1201
aVspecial_bonus_exp_boost_35
p1202
aVspecial_bonus_unique_broodmother_4
p1203
aVspecial_bonus_attack_speed_50
p1204
aVspecial_bonus_unique_broodmother_1
p1205
aVspecial_bonus_unique_broodmother_2
p1206
asVastral spirit
p1207
(lp1208
Velder_titan_echo_stomp_spirit
p1209
aVelder_titan_return_spirit
p1210
aVelder_titan_natural_order_spirit
p1211
asVtoasty greevil minion
p1212
(lp1213
V
aV
aV
aV
asVhuskar
p1214
(lp1215
Vhuskar_inner_vitality
p1216
aVhuskar_burning_spear
p1217
aVhuskar_berserkers_blood
p1218
aVgeneric_hidden
p1219
aVgeneric_hidden
p1220
aVhuskar_life_break
p1221
aVspecial_bonus_hp_175
p1222
aVspecial_bonus_attack_damage_20
p1223
aVspecial_bonus_unique_huskar_2
p1224
aVspecial_bonus_lifesteal_15
p1225
aVspecial_bonus_strength_15
p1226
aVspecial_bonus_unique_huskar
p1227
aVspecial_bonus_attack_range_125
p1228
aVspecial_bonus_unique_huskar_3
p1229
asVnpc_dota_beastmaster_axe
p1230
(lp1231
V
aV
aV
aV
asVpangolier
p1232
(lp1233
Vpangolier_swashbuckle
p1234
aVpangolier_shield_crash
p1235
aVpangolier_heartpiercer
p1236
aVgeneric_hidden
p1237
aVgeneric_hidden
p1238
aVpangolier_gyroshell
p1239
aVpangolier_gyroshell_stop
p1240
aVspecial_bonus_mp_regen_2
p1241
aVspecial_bonus_movement_speed_25
p1242
aVspecial_bonus_unique_pangolier_2
p1243
aVspecial_bonus_attack_speed_30
p1244
aVspecial_bonus_unique_pangolier_3
p1245
aVspecial_bonus_strength_20
p1246
aVspecial_bonus_unique_pangolier_4
p1247
aVspecial_bonus_unique_pangolier_5
p1248
asVnature's prophet
p1249
(lp1250
Vfurion_sprout
p1251
aVfurion_teleportation
p1252
aVfurion_force_of_nature
p1253
aVgeneric_hidden
p1254
aVgeneric_hidden
p1255
aVfurion_wrath_of_nature
p1256
aVspecial_bonus_attack_damage_30
p1257
aVspecial_bonus_movement_speed_30
p1258
aVspecial_bonus_armor_8
p1259
aVspecial_bonus_unique_furion_2
p1260
aVspecial_bonus_attack_speed_40
p1261
aVspecial_bonus_unique_furion_4
p1262
aVspecial_bonus_unique_furion_3
p1263
aVspecial_bonus_unique_furion
p1264
asVtechies
p1265
(lp1266
Vtechies_land_mines
p1267
aVtechies_stasis_trap
p1268
aVtechies_suicide
p1269
aVtechies_focused_detonate
p1270
aVtechies_minefield_sign
p1271
aVtechies_remote_mines
p1272
aVspecial_bonus_exp_boost_30
p1273
aVspecial_bonus_unique_techies_3
p1274
aVspecial_bonus_unique_techies
p1275
aVspecial_bonus_mp_regen_4
p1276
aVspecial_bonus_movement_speed_75
p1277
aVspecial_bonus_gold_income_25
p1278
aVspecial_bonus_attack_damage_251
p1279
aVspecial_bonus_unique_techies_4
p1280
asVelder titan
p1281
(lp1282
Velder_titan_echo_stomp
p1283
aVelder_titan_ancestral_spirit
p1284
aVelder_titan_natural_order
p1285
aVgeneric_hidden
p1286
aVgeneric_hidden
p1287
aVelder_titan_earth_splitter
p1288
aVelder_titan_return_spirit
p1289
aVspecial_bonus_movement_speed_25
p1290
aVspecial_bonus_hp_200
p1291
aVspecial_bonus_magic_resistance_15
p1292
aVspecial_bonus_unique_elder_titan
p1293
aVspecial_bonus_attack_speed_70
p1294
aVspecial_bonus_unique_elder_titan_2
p1295
aVspecial_bonus_unique_elder_titan_3
p1296
aVspecial_bonus_lifesteal_100
p1297
asg191
(lp1298
Vomniknight_purification
p1299
aVomniknight_repel
p1300
aVomniknight_degen_aura
p1301
aVgeneric_hidden
p1302
aVgeneric_hidden
p1303
aVomniknight_guardian_angel
p1304
aVspecial_bonus_gold_income_15
p1305
aVspecial_bonus_unique_omniknight_4
p1306
aVspecial_bonus_exp_boost_35
p1307
aVspecial_bonus_attack_damage_90
p1308
aVspecial_bonus_unique_omniknight_2
p1309
aVspecial_bonus_mp_regen_3
p1310
aVspecial_bonus_unique_omniknight_1
p1311
aVspecial_bonus_unique_omniknight_3
p1312
asVscout hawk
p1313
(lp1314
V
aV
aV
aV
asVnecronomicon warrior
p1315
(lp1316
Vnecronomicon_warrior_mana_burn
p1317
aVnecronomicon_warrior_last_will
p1318
aVnecronomicon_warrior_sight
p1319
aV
aV
aV
aV
aV
asg119
(lp1320
Vterrorblade_reflection
p1321
aVterrorblade_conjure_image
p1322
aVterrorblade_metamorphosis
p1323
aVgeneric_hidden
p1324
aVgeneric_hidden
p1325
aVterrorblade_sunder
p1326
aVspecial_bonus_movement_speed_20
p1327
aVspecial_bonus_evasion_10
p1328
aVspecial_bonus_hp_300
p1329
aVspecial_bonus_attack_speed_25
p1330
aVspecial_bonus_all_stats_10
p1331
aVspecial_bonus_unique_terrorblade_2
p1332
aVspecial_bonus_unique_terrorblade
p1333
aVspecial_bonus_unique_terrorblade_3
p1334
asg122
(lp1335
Valchemist_acid_spray
p1336
aValchemist_unstable_concoction
p1337
aValchemist_goblins_greed
p1338
aVgeneric_hidden
p1339
aVgeneric_hidden
p1340
aValchemist_chemical_rage
p1341
aValchemist_unstable_concoction_throw
p1342
aVspecial_bonus_attack_speed_25
p1343
aVspecial_bonus_unique_alchemist
p1344
aVspecial_bonus_hp_400
p1345
aVspecial_bonus_attack_damage_50
p1346
aVspecial_bonus_cleave_25
p1347
aVspecial_bonus_unique_alchemist_2
p1348
aVspecial_bonus_unique_alchemist_3
p1349
aVspecial_bonus_unique_alchemist_4
p1350
asg170
(lp1351
sVnyx assassin
p1352
(lp1353
Vnyx_assassin_impale
p1354
aVnyx_assassin_mana_burn
p1355
aVnyx_assassin_spiked_carapace
p1356
aVnyx_assassin_burrow
p1357
aVgeneric_hidden
p1358
aVnyx_assassin_vendetta
p1359
aVnyx_assassin_unburrow
p1360
aVspecial_bonus_spell_amplify_6
p1361
aVspecial_bonus_gold_income_10
p1362
aVspecial_bonus_hp_325
p1363
aVspecial_bonus_movement_speed_35
p1364
aVspecial_bonus_unique_nyx
p1365
aVspecial_bonus_unique_nyx_2
p1366
aVspecial_bonus_agility_100
p1367
aVspecial_bonus_unique_nyx_3
p1368
asVqueen of pain
p1369
(lp1370
Vqueenofpain_shadow_strike
p1371
aVqueenofpain_blink
p1372
aVqueenofpain_scream_of_pain
p1373
aVgeneric_hidden
p1374
aVgeneric_hidden
p1375
aVqueenofpain_sonic_wave
p1376
aVspecial_bonus_attack_damage_25
p1377
aVspecial_bonus_strength_10
p1378
aVspecial_bonus_cooldown_reduction_12
p1379
aVspecial_bonus_attack_speed_40
p1380
aVspecial_bonus_spell_lifesteal_30
p1381
aVspecial_bonus_unique_queen_of_pain
p1382
aVspecial_bonus_unique_queen_of_pain_2
p1383
aVspecial_bonus_spell_block_20
p1384
asg307
(lp1385
Vshadow_demon_disruption
p1386
aVshadow_demon_soul_catcher
p1387
aVshadow_demon_shadow_poison
p1388
aVshadow_demon_shadow_poison_release
p1389
aVgeneric_hidden
p1390
aVshadow_demon_demonic_purge
p1391
aVspecial_bonus_unique_shadow_demon_6
p1392
aVspecial_bonus_exp_boost_25
p1393
aVspecial_bonus_movement_speed_40
p1394
aVspecial_bonus_unique_shadow_demon_4
p1395
aVspecial_bonus_unique_shadow_demon_2
p1396
aVspecial_bonus_unique_shadow_demon_3
p1397
aVspecial_bonus_unique_shadow_demon_1
p1398
aVspecial_bonus_unique_shadow_demon_5
p1399
asg254
(lp1400
Vbroodmother_spin_web_destroy
p1401
aV
aV
aV
asVslark
p1402
(lp1403
Vslark_dark_pact
p1404
aVslark_pounce
p1405
aVslark_essence_shift
p1406
aVgeneric_hidden
p1407
aVgeneric_hidden
p1408
aVslark_shadow_dance
p1409
aVspecial_bonus_strength_8
p1410
aVspecial_bonus_agility_10
p1411
aVspecial_bonus_attack_speed_30
p1412
aVspecial_bonus_lifesteal_20
p1413
aVspecial_bonus_unique_slark_2
p1414
aVspecial_bonus_unique_slark
p1415
aVspecial_bonus_unique_slark_3
p1416
aVspecial_bonus_unique_slark_4
p1417
asVmirana
p1418
(lp1419
Vmirana_starfall
p1420
aVmirana_arrow
p1421
aVmirana_leap
p1422
aVgeneric_hidden
p1423
aVgeneric_hidden
p1424
aVmirana_invis
p1425
aVspecial_bonus_attack_damage_20
p1426
aVspecial_bonus_hp_200
p1427
aVspecial_bonus_unique_mirana_3
p1428
aVspecial_bonus_unique_mirana_1
p1429
aVspecial_bonus_spell_amplify_12
p1430
aVspecial_bonus_mana_break_25
p1431
aVspecial_bonus_unique_mirana_2
p1432
aVspecial_bonus_unique_mirana_4
p1433
asVsuper melee creep
p1434
(lp1435
V
aV
aV
aV
aV
aV
aV
aV
asVnpc_dota_target_dummy
p1436
(lp1437
V
aV
aV
aV
asVlifestealer
p1438
(lp1439
Vlife_stealer_rage
p1440
aVlife_stealer_feast
p1441
aVlife_stealer_open_wounds
p1442
aVlife_stealer_assimilate
p1443
aVgeneric_hidden
p1444
aVlife_stealer_infest
p1445
aVlife_stealer_control
p1446
aVlife_stealer_consume
p1447
aVlife_stealer_assimilate_eject
p1448
aVspecial_bonus_hp_200
p1449
aVspecial_bonus_attack_speed_20
p1450
aVspecial_bonus_attack_damage_30
p1451
aVspecial_bonus_movement_speed_35
p1452
aVspecial_bonus_evasion_20
p1453
aVspecial_bonus_unique_lifestealer_2
p1454
aVspecial_bonus_unique_lifestealer_3
p1455
aVspecial_bonus_unique_lifestealer
p1456
asVnpc_dota_plasma_field
p1457
(lp1458
sVgreater boar
p1459
(lp1460
Vbeastmaster_greater_boar_poison
p1461
aV
aV
aV
asg284
(lp1462
Vpuck_illusory_orb
p1463
aVpuck_waning_rift
p1464
aVpuck_phase_shift
p1465
aVpuck_ethereal_jaunt
p1466
aVgeneric_hidden
p1467
aVpuck_dream_coil
p1468
aVspecial_bonus_intelligence_10
p1469
aVspecial_bonus_armor_5
p1470
aVspecial_bonus_spell_amplify_8
p1471
aVspecial_bonus_attack_damage_50
p1472
aVspecial_bonus_unique_puck_2
p1473
aVspecial_bonus_unique_puck
p1474
aVspecial_bonus_gold_income_70
p1475
aVspecial_bonus_unique_puck_3
p1476
asVdragon knight
p1477
(lp1478
Vdragon_knight_breathe_fire
p1479
aVdragon_knight_dragon_tail
p1480
aVdragon_knight_dragon_blood
p1481
aVgeneric_hidden
p1482
aVgeneric_hidden
p1483
aVdragon_knight_elder_dragon_form
p1484
aVspecial_bonus_mp_regen_2
p1485
aVspecial_bonus_attack_speed_30
p1486
aVspecial_bonus_attack_damage_35
p1487
aVspecial_bonus_hp_300
p1488
aVspecial_bonus_gold_income_25
p1489
aVspecial_bonus_unique_dragon_knight
p1490
aVspecial_bonus_strength_40
p1491
aVspecial_bonus_unique_dragon_knight_2
p1492
asVmorphling
p1493
(lp1494
Vmorphling_waveform
p1495
aVmorphling_adaptive_strike_agi
p1496
aVmorphling_adaptive_strike_str
p1497
aVmorphling_morph_agi
p1498
aVmorphling_morph_str
p1499
aVmorphling_replicate
p1500
aVmorphling_morph_replicate
p1501
aVmorphling_morph
p1502
aVspecial_bonus_agility_10
p1503
aVspecial_bonus_unique_morphling_1
p1504
aVspecial_bonus_unique_morphling_8
p1505
aVspecial_bonus_attack_speed_30
p1506
aVspecial_bonus_unique_morphling_5
p1507
aVspecial_bonus_unique_morphling_4
p1508
aVspecial_bonus_unique_morphling_6
p1509
aVspecial_bonus_unique_morphling_3
p1510
asVremote mine
p1511
(lp1512
Vtechies_remote_mines_self_detonate
p1513
aV
aV
aV
asVluna
p1514
(lp1515
Vluna_lucent_beam
p1516
aVluna_moon_glaive
p1517
aVluna_lunar_blessing
p1518
aVgeneric_hidden
p1519
aVgeneric_hidden
p1520
aVluna_eclipse
p1521
aVspecial_bonus_attack_speed_20
p1522
aVspecial_bonus_cast_range_200
p1523
aVspecial_bonus_unique_luna_2
p1524
aVspecial_bonus_unique_luna_3
p1525
aVspecial_bonus_all_stats_10
p1526
aVspecial_bonus_unique_luna_1
p1527
aVspecial_bonus_lifesteal_25
p1528
aVspecial_bonus_unique_luna_5
p1529
asVnpc_dota_troll_warlord_axe
p1530
(lp1531
V
aV
aV
aV
asVroshan
p1532
(lp1533
Vroshan_halloween_apocalypse
p1534
aVroshan_halloween_wave_of_force
p1535
aVroshan_halloween_toss
p1536
aVroshan_halloween_burn
p1537
aVroshan_halloween_fireball
p1538
aVroshan_halloween_summon
p1539
aVroshan_halloween_shell
p1540
aVroshan_halloween_greater_bash
p1541
aVroshan_halloween_levels
p1542
aVroshan_halloween_angry
p1543
aVroshan_halloween_candy
p1544
aVroshan_halloween_spell_block
p1545
asVtemplar assassin
p1546
(lp1547
Vtemplar_assassin_refraction
p1548
aVtemplar_assassin_meld
p1549
aVtemplar_assassin_psi_blades
p1550
aVtemplar_assassin_trap
p1551
aVgeneric_hidden
p1552
aVtemplar_assassin_psionic_trap
p1553
aVspecial_bonus_attack_speed_25
p1554
aVspecial_bonus_unique_templar_assassin_6
p1555
aVspecial_bonus_armor_7
p1556
aVspecial_bonus_unique_templar_assassin_3
p1557
aVspecial_bonus_unique_templar_assassin_4
p1558
aVspecial_bonus_unique_templar_assassin_2
p1559
aVspecial_bonus_unique_templar_assassin_5
p1560
aVspecial_bonus_unique_templar_assassin
p1561
asVnpc_dota_thinker
p1562
(lp1563
sVhellbear
p1564
(lp1565
Vmudgolem_cloak_aura
p1566
aV
aV
aV
asVboar
p1567
(lp1568
Vbeastmaster_boar_poison
p1569
aV
aV
aV
asVdiretide witch
p1570
(lp1571
V
aV
aV
aV
aV
aV
aV
aV
asVpower cog
p1572
(lp1573
V
aV
aV
aV
asVsatyr banisher
p1574
(lp1575
Vsatyr_trickster_purge
p1576
aV
aV
aV
asVhealing campfire
p1577
(lp1578
V
aV
aV
aV
aV
aV
aV
aV
asg228
(lp1579
Vharpy_storm_chain_lightning
p1580
aV
aV
aV
asVrazor
p1581
(lp1582
Vrazor_plasma_field
p1583
aVrazor_static_link
p1584
aVrazor_unstable_current
p1585
aVgeneric_hidden
p1586
aVgeneric_hidden
p1587
aVrazor_eye_of_the_storm
p1588
aVspecial_bonus_hp_200
p1589
aVspecial_bonus_agility_15
p1590
aVspecial_bonus_unique_razor
p1591
aVspecial_bonus_unique_razor_3
p1592
aVspecial_bonus_armor_10
p1593
aVspecial_bonus_unique_razor_2
p1594
aVspecial_bonus_attack_speed_100
p1595
aVspecial_bonus_unique_razor_4
p1596
asVgreater eidolon
p1597
(lp1598
V
aV
aV
aV
aV
aV
aV
aV
asVmud golem
p1599
(lp1600
Vmud_golem_hurl_boulder
p1601
aVmud_golem_rock_destroy
p1602
aV
aV
asVpsionic trap
p1603
(lp1604
Vtemplar_assassin_self_trap
p1605
aV
aV
aV
asVradiant year beast
p1606
(lp1607
Vcny_beast_force_attack
p1608
aVcny_beast_teleport
p1609
aV
aV
aV
aV
aV
aV
asg77
(lp1610
Vtiny_avalanche
p1611
aVtiny_toss
p1612
aVtiny_craggy_exterior
p1613
aVgeneric_hidden
p1614
aVgeneric_hidden
p1615
aVtiny_grow
p1616
aVtiny_toss_tree
p1617
aVspecial_bonus_magic_resistance_20
p1618
aVspecial_bonus_attack_damage_30
p1619
aVspecial_bonus_hp_350
p1620
aVspecial_bonus_unique_tiny
p1621
aVspecial_bonus_unique_tiny_4
p1622
aVspecial_bonus_unique_tiny_5
p1623
aVspecial_bonus_unique_tiny_3
p1624
aVspecial_bonus_unique_tiny_2
p1625
asVobserver ward
p1626
(lp1627
sVsatyr tormenter
p1628
(lp1629
Vsatyr_hellcaller_shockwave
p1630
aVsatyr_hellcaller_unholy_aura
p1631
aV
aV
asVancient thunderhide
p1632
(lp1633
Vbig_thunder_lizard_frenzy
p1634
aVbig_thunder_lizard_wardrums_aura
p1635
aVbig_thunder_lizard_slam
p1636
aV
asg175
(lp1637
Vpudge_meat_hook
p1638
aVpudge_rot
p1639
aVpudge_flesh_heap
p1640
aVgeneric_hidden
p1641
aVgeneric_hidden
p1642
aVpudge_dismember
p1643
aVspecial_bonus_armor_5
p1644
aVspecial_bonus_unique_pudge_2
p1645
aVspecial_bonus_spell_lifesteal_13
p1646
aVspecial_bonus_attack_damage_75
p1647
aVspecial_bonus_gold_income_30
p1648
aVspecial_bonus_cooldown_reduction_15
p1649
aVspecial_bonus_unique_pudge_3
p1650
aVspecial_bonus_unique_pudge_1
p1651
asVancient prowler acolyte
p1652
(lp1653
Vspawnlord_aura
p1654
aV
aV
aV
asVstorm
p1655
(lp1656
Vbrewmaster_storm_dispel_magic
p1657
aVbrewmaster_storm_cyclone
p1658
aVbrewmaster_storm_wind_walk
p1659
aVbrewmaster_drunken_haze
p1660
aVgeneric_hidden
p1661
aVgeneric_hidden
p1662
asVcentaur conqueror
p1663
(lp1664
Vcentaur_khan_war_stomp
p1665
aV
aV
aV
asVdire's ancient
p1666
(lp1667
Vbackdoor_protection_in_base
p1668
aV
aV
aV
aV
aV
aV
aV
asg25
(lp1669
Vabyssal_underlord_firestorm
p1670
aVabyssal_underlord_pit_of_malice
p1671
aVabyssal_underlord_atrophy_aura
p1672
aVgeneric_hidden
p1673
aVgeneric_hidden
p1674
aVabyssal_underlord_dark_rift
p1675
aVabyssal_underlord_cancel_dark_rift
p1676
aVspecial_bonus_unique_underlord_2
p1677
aVspecial_bonus_movement_speed_30
p1678
aVspecial_bonus_cast_range_100
p1679
aVspecial_bonus_unique_underlord_3
p1680
aVspecial_bonus_attack_speed_70
p1681
aVspecial_bonus_hp_regen_20
p1682
aVspecial_bonus_unique_underlord
p1683
aVspecial_bonus_unique_underlord_4
p1684
asVnpc_dota_units_base
p1685
(lp1686
V
aV
aV
aV
aV
aV
aV
aV
asVwarlock
p1687
(lp1688
Vwarlock_fatal_bonds
p1689
aVwarlock_shadow_word
p1690
aVwarlock_upheaval
p1691
aVgeneric_hidden
p1692
aVgeneric_hidden
p1693
aVwarlock_rain_of_chaos
p1694
aVspecial_bonus_unique_warlock_5
p1695
aVspecial_bonus_cast_range_125
p1696
aVspecial_bonus_exp_boost_40
p1697
aVspecial_bonus_unique_warlock_3
p1698
aVspecial_bonus_unique_warlock_4
p1699
aVspecial_bonus_unique_warlock_6
p1700
aVspecial_bonus_unique_warlock_2
p1701
aVspecial_bonus_unique_warlock_1
p1702
asVghost
p1703
(lp1704
Vghost_frost_attack
p1705
aV
aV
aV
asVsand king
p1706
(lp1707
Vsandking_burrowstrike
p1708
aVsandking_sand_storm
p1709
aVsandking_caustic_finale
p1710
aVgeneric_hidden
p1711
aVgeneric_hidden
p1712
aVsandking_epicenter
p1713
aVspecial_bonus_movement_speed_30
p1714
aVspecial_bonus_hp_200
p1715
aVspecial_bonus_unique_sand_king_2
p1716
aVspecial_bonus_unique_sand_king_3
p1717
aVspecial_bonus_armor_10
p1718
aVspecial_bonus_unique_sand_king
p1719
aVspecial_bonus_hp_regen_35
p1720
aVspecial_bonus_unique_sand_king_4
p1721
asVbuilding
p1722
(lp1723
Vbackdoor_protection_in_base
p1724
aV
aV
aV
aV
aV
aV
aV
asVcourier
p1725
(lp1726
Vcourier_return_to_base
p1727
aVcourier_go_to_secretshop
p1728
aVcourier_return_stash_items
p1729
aVcourier_take_stash_items
p1730
aVcourier_transfer_items
p1731
aVcourier_shield
p1732
aVcourier_morph
p1733
aVcourier_take_stash_and_transfer_items
p1734
aVcourier_transfer_items_to_other_player
p1735
aVcourier_go_to_enemy_secretshop
p1736
aVcourier_go_to_sideshop
p1737
aVcourier_go_to_sideshop2
p1738
asVfire
p1739
(lp1740
Vbrewmaster_fire_permanent_immolation
p1741
aVbrewmaster_drunken_brawler
p1742
asVkobold foreman
p1743
(lp1744
Vkobold_taskmaster_speed_aura
p1745
aV
aV
aV
asVzeus
p1746
(lp1747
Vzuus_arc_lightning
p1748
aVzuus_lightning_bolt
p1749
aVzuus_static_field
p1750
aVzuus_cloud
p1751
aVgeneric_hidden
p1752
aVzuus_thundergods_wrath
p1753
aVspecial_bonus_armor_6
p1754
aVspecial_bonus_exp_boost_25
p1755
aVspecial_bonus_movement_speed_40
p1756
aVspecial_bonus_unique_zeus
p1757
aVspecial_bonus_cooldown_reduction_15
p1758
aVspecial_bonus_unique_zeus_3
p1759
aVspecial_bonus_cast_range_200
p1760
aVspecial_bonus_unique_zeus_2
p1761
asVogre bruiser
p1762
(lp1763
V
aV
aV
aV
asVgyrocopter
p1764
(lp1765
Vgyrocopter_rocket_barrage
p1766
aVgyrocopter_homing_missile
p1767
aVgyrocopter_flak_cannon
p1768
aVgeneric_hidden
p1769
aVgeneric_hidden
p1770
aVgyrocopter_call_down
p1771
aVspecial_bonus_attack_damage_25
p1772
aVspecial_bonus_hp_200
p1773
aVspecial_bonus_unique_gyrocopter_2
p1774
aVspecial_bonus_unique_gyrocopter_3
p1775
aVspecial_bonus_movement_speed_50
p1776
aVspecial_bonus_unique_gyrocopter_4
p1777
aVspecial_bonus_unique_gyrocopter_1
p1778
aVspecial_bonus_unique_gyrocopter_5
p1779
asVsilencer
p1780
(lp1781
Vsilencer_curse_of_the_silent
p1782
aVsilencer_glaives_of_wisdom
p1783
aVsilencer_last_word
p1784
aVgeneric_hidden
p1785
aVgeneric_hidden
p1786
aVsilencer_global_silence
p1787
aVspecial_bonus_armor_5
p1788
aVspecial_bonus_attack_speed_25
p1789
aVspecial_bonus_gold_income_15
p1790
aVspecial_bonus_unique_silencer_2
p1791
aVspecial_bonus_attack_range_125
p1792
aVspecial_bonus_unique_silencer
p1793
aVspecial_bonus_unique_silencer_3
p1794
aVspecial_bonus_unique_silencer_4
p1795
asVdeath ward
p1796
(lp1797
V
aV
aV
aV
aV
asVmelee barracks
p1798
(lp1799
Vbackdoor_protection_in_base
p1800
aV
aV
aV
aV
aV
aV
aV
asVstasis trap
p1801
(lp1802
V
aV
aV
aV
asVenigma
p1803
(lp1804
Venigma_malefice
p1805
aVenigma_demonic_conversion
p1806
aVenigma_midnight_pulse
p1807
aVgeneric_hidden
p1808
aVgeneric_hidden
p1809
aVenigma_black_hole
p1810
aVspecial_bonus_movement_speed_25
p1811
aVspecial_bonus_magic_resistance_15
p1812
aVspecial_bonus_cooldown_reduction_15
p1813
aVspecial_bonus_gold_income_20
p1814
aVspecial_bonus_hp_400
p1815
aVspecial_bonus_unique_enigma_3
p1816
aVspecial_bonus_unique_enigma_2
p1817
aVspecial_bonus_unique_enigma
p1818
asVstorm spirit
p1819
(lp1820
Vstorm_spirit_static_remnant
p1821
aVstorm_spirit_electric_vortex
p1822
aVstorm_spirit_overload
p1823
aVgeneric_hidden
p1824
aVgeneric_hidden
p1825
aVstorm_spirit_ball_lightning
p1826
aVspecial_bonus_attack_damage_20
p1827
aVspecial_bonus_mp_regen_175
p1828
aVspecial_bonus_unique_storm_spirit_5
p1829
aVspecial_bonus_hp_300
p1830
aVspecial_bonus_unique_storm_spirit
p1831
aVspecial_bonus_attack_speed_30
p1832
aVspecial_bonus_unique_storm_spirit_3
p1833
aVspecial_bonus_unique_storm_spirit_4
p1834
asVfaceless void
p1835
(lp1836
Vfaceless_void_time_walk
p1837
aVfaceless_void_time_dilation
p1838
aVfaceless_void_time_lock
p1839
aVgeneric_hidden
p1840
aVgeneric_hidden
p1841
aVfaceless_void_chronosphere
p1842
aVspecial_bonus_attack_damage_20
p1843
aVspecial_bonus_strength_8
p1844
aVspecial_bonus_unique_faceless_void_3
p1845
aVspecial_bonus_hp_300
p1846
aVspecial_bonus_attack_speed_40
p1847
aVspecial_bonus_unique_faceless_void
p1848
aVspecial_bonus_unique_faceless_void_4
p1849
aVspecial_bonus_unique_faceless_void_2
p1850
asVdoom
p1851
(lp1852
Vdoom_bringer_devour
p1853
aVdoom_bringer_scorched_earth
p1854
aVdoom_bringer_infernal_blade
p1855
aVdoom_bringer_empty1
p1856
aVdoom_bringer_empty2
p1857
aVdoom_bringer_doom
p1858
aVspecial_bonus_unique_doom_4
p1859
aVspecial_bonus_movement_speed_25
p1860
aVspecial_bonus_evasion_20
p1861
aVspecial_bonus_unique_doom_3
p1862
aVspecial_bonus_unique_doom_5
p1863
aVspecial_bonus_unique_doom_2
p1864
aVspecial_bonus_unique_doom_1
p1865
aVspecial_bonus_cleave_100
p1866
asVgreevil
p1867
(lp1868
V
aV
aV
aV
aV
aV
aV
aV
asVlina
p1869
(lp1870
Vlina_dragon_slave
p1871
aVlina_light_strike_array
p1872
aVlina_fiery_soul
p1873
aVgeneric_hidden
p1874
aVgeneric_hidden
p1875
aVlina_laguna_blade
p1876
aVspecial_bonus_attack_damage_25
p1877
aVspecial_bonus_cast_range_100
p1878
aVspecial_bonus_hp_300
p1879
aVspecial_bonus_unique_lina_3
p1880
aVspecial_bonus_spell_amplify_10
p1881
aVspecial_bonus_unique_lina_2
p1882
aVspecial_bonus_unique_lina_1
p1883
aVspecial_bonus_attack_range_175
p1884
asVancient black drake
p1885
(lp1886
V
aV
aV
aV
asg239
(lp1887
V
aV
aV
aV
asVmonkey king
p1888
(lp1889
Vmonkey_king_boundless_strike
p1890
aVmonkey_king_tree_dance
p1891
aVmonkey_king_primal_spring
p1892
aVmonkey_king_jingu_mastery
p1893
aVmonkey_king_mischief
p1894
aVmonkey_king_wukongs_command
p1895
aVmonkey_king_primal_spring_early
p1896
aVmonkey_king_untransform
p1897
aVspecial_bonus_unique_monkey_king_5
p1898
aVspecial_bonus_attack_speed_20
p1899
aVspecial_bonus_unique_monkey_king_7
p1900
aVspecial_bonus_unique_monkey_king_2
p1901
aVspecial_bonus_unique_monkey_king
p1902
aVspecial_bonus_unique_monkey_king_3
p1903
aVspecial_bonus_unique_monkey_king_4
p1904
aVspecial_bonus_unique_monkey_king_6
p1905
asVlone druid
p1906
(lp1907
Vlone_druid_spirit_bear
p1908
aVlone_druid_rabid
p1909
aVlone_druid_savage_roar
p1910
aVlone_druid_true_form_battle_cry
p1911
aVgeneric_hidden
p1912
aVlone_druid_true_form
p1913
aVlone_druid_true_form_druid
p1914
aVspecial_bonus_hp_250
p1915
aVspecial_bonus_attack_range_175
p1916
aVspecial_bonus_unique_lone_druid_4
p1917
aVspecial_bonus_unique_lone_druid_2
p1918
aVspecial_bonus_unique_lone_druid_8
p1919
aVspecial_bonus_unique_lone_druid_6
p1920
aVspecial_bonus_unique_lone_druid_9
p1921
aVspecial_bonus_unique_lone_druid_7
p1922
asVnpc_dota_companion
p1923
(lp1924
sVbrewmaster
p1925
(lp1926
Vbrewmaster_thunder_clap
p1927
aVbrewmaster_drunken_haze
p1928
aVbrewmaster_drunken_brawler
p1929
aVgeneric_hidden
p1930
aVgeneric_hidden
p1931
aVbrewmaster_primal_split
p1932
aVspecial_bonus_attack_damage_30
p1933
aVspecial_bonus_hp_200
p1934
aVspecial_bonus_unique_brewmaster_3
p1935
aVspecial_bonus_magic_resistance_20
p1936
aVspecial_bonus_unique_brewmaster
p1937
aVspecial_bonus_attack_speed_100
p1938
aVspecial_bonus_unique_brewmaster_2
p1939
aVspecial_bonus_unique_brewmaster_4
p1940
asVwraith king
p1941
(lp1942
Vskeleton_king_hellfire_blast
p1943
aVskeleton_king_vampiric_aura
p1944
aVskeleton_king_mortal_strike
p1945
aVgeneric_hidden
p1946
aVgeneric_hidden
p1947
aVskeleton_king_reincarnation
p1948
aVspecial_bonus_unique_wraith_king_3
p1949
aVspecial_bonus_attack_speed_20
p1950
aVspecial_bonus_strength_15
p1951
aVspecial_bonus_unique_wraith_king_5
p1952
aVspecial_bonus_unique_wraith_king_1
p1953
aVspecial_bonus_unique_wraith_king_6
p1954
aVspecial_bonus_unique_wraith_king_2
p1955
aVspecial_bonus_unique_wraith_king_4
p1956
asg178
(lp1957
Venraged_wildkin_tornado
p1958
aVenraged_wildkin_toughness_aura
p1959
aV
aV
asVnpc_dota_loadout_generic
p1960
(lp1961
sg231
(lp1962
Vrattletrap_battery_assault
p1963
aVrattletrap_power_cogs
p1964
aVrattletrap_rocket_flare
p1965
aVgeneric_hidden
p1966
aVgeneric_hidden
p1967
aVrattletrap_hookshot
p1968
aVspecial_bonus_armor_5
p1969
aVspecial_bonus_movement_speed_25
p1970
aVspecial_bonus_strength_15
p1971
aVspecial_bonus_unique_clockwerk_3
p1972
aVspecial_bonus_magic_resistance_20
p1973
aVspecial_bonus_unique_clockwerk_2
p1974
aVspecial_bonus_unique_clockwerk_4
p1975
aVspecial_bonus_unique_clockwerk
p1976
asVkeeper of the light
p1977
(lp1978
Vkeeper_of_the_light_illuminate
p1979
aVkeeper_of_the_light_mana_leak
p1980
aVkeeper_of_the_light_chakra_magic
p1981
aVkeeper_of_the_light_recall
p1982
aVkeeper_of_the_light_blinding_light
p1983
aVkeeper_of_the_light_spirit_form
p1984
aVkeeper_of_the_light_illuminate_end
p1985
aVkeeper_of_the_light_spirit_form_illuminate
p1986
aVkeeper_of_the_light_spirit_form_illuminate_end
p1987
aVspecial_bonus_spell_lifesteal_8
p1988
aVspecial_bonus_movement_speed_25
p1989
aVspecial_bonus_exp_boost_40
p1990
aVspecial_bonus_cast_range_350
p1991
aVspecial_bonus_magic_resistance_40
p1992
aVspecial_bonus_unique_keeper_of_the_light_2
p1993
aVspecial_bonus_unique_keeper_of_the_light_3
p1994
aVspecial_bonus_unique_keeper_of_the_light
p1995
asg179
(lp1996
Vphantom_lancer_spirit_lance
p1997
aVphantom_lancer_doppelwalk
p1998
aVphantom_lancer_phantom_edge
p1999
aVgeneric_hidden
p2000
aVgeneric_hidden
p2001
aVphantom_lancer_juxtapose
p2002
aVspecial_bonus_evasion_10
p2003
aVspecial_bonus_attack_speed_20
p2004
aVspecial_bonus_hp_250
p2005
aVspecial_bonus_unique_phantom_lancer_2
p2006
aVspecial_bonus_unique_phantom_lancer
p2007
aVspecial_bonus_unique_phantom_lancer_3
p2008
aVspecial_bonus_unique_phantom_lancer_4
p2009
aVspecial_bonus_30_crit_2
p2010
asVgiant wolf
p2011
(lp2012
V
aV
aV
aV
asVdark willow
p2013
(lp2014
Vdark_willow_bramble_maze
p2015
aVdark_willow_shadow_realm
p2016
aVdark_willow_cursed_crown
p2017
aVdark_willow_bedlam
p2018
aVgeneric_hidden
p2019
aVdark_willow_terrorize
p2020
aVspecial_bonus_attack_damage_20
p2021
aVspecial_bonus_cast_range_125
p2022
aVspecial_bonus_gold_income_15
p2023
aVspecial_bonus_movement_speed_40
p2024
aVspecial_bonus_spell_lifesteal_10
p2025
aVspecial_bonus_unique_dark_willow_1
p2026
aVspecial_bonus_attack_speed_200
p2027
aVspecial_bonus_unique_dark_willow_2
p2028
asVsentry ward
p2029
(lp2030
sVvengeful spirit
p2031
(lp2032
Vvengefulspirit_magic_missile
p2033
aVvengefulspirit_wave_of_terror
p2034
aVvengefulspirit_command_aura
p2035
aVgeneric_hidden
p2036
aVgeneric_hidden
p2037
aVvengefulspirit_nether_swap
p2038
aVspecial_bonus_magic_resistance_15
p2039
aVspecial_bonus_unique_vengeful_spirit_4
p2040
aVspecial_bonus_agility_15
p2041
aVspecial_bonus_unique_vengeful_spirit_6
p2042
aVspecial_bonus_unique_vengeful_spirit_5
p2043
aVspecial_bonus_unique_vengeful_spirit_2
p2044
aVspecial_bonus_unique_vengeful_spirit_1
p2045
aVspecial_bonus_unique_vengeful_spirit_3
p2046
asVbristleback
p2047
(lp2048
Vbristleback_viscous_nasal_goo
p2049
aVbristleback_quill_spray
p2050
aVbristleback_bristleback
p2051
aVgeneric_hidden
p2052
aVgeneric_hidden
p2053
aVbristleback_warpath
p2054
aVspecial_bonus_movement_speed_20
p2055
aVspecial_bonus_mp_regen_2
p2056
aVspecial_bonus_hp_250
p2057
aVspecial_bonus_unique_bristleback
p2058
aVspecial_bonus_hp_regen_20
p2059
aVspecial_bonus_unique_bristleback_2
p2060
aVspecial_bonus_spell_lifesteal_15
p2061
aVspecial_bonus_unique_bristleback_3
p2062
asVlich
p2063
(lp2064
Vlich_frost_nova
p2065
aVlich_frost_armor
p2066
aVlich_dark_ritual
p2067
aVgeneric_hidden
p2068
aVgeneric_hidden
p2069
aVlich_chain_frost
p2070
aVspecial_bonus_hp_175
p2071
aVspecial_bonus_movement_speed_25
p2072
aVspecial_bonus_attack_damage_120
p2073
aVspecial_bonus_unique_lich_3
p2074
aVspecial_bonus_cast_range_175
p2075
aVspecial_bonus_gold_income_20
p2076
aVspecial_bonus_unique_lich_1
p2077
aVspecial_bonus_unique_lich_2
p2078
asVmega melee creep
p2079
(lp2080
V
aV
aV
aV
aV
aV
aV
aV
asVnefarious megagreevil
p2081
(lp2082
Vgreevil_miniboss_black_nightmare
p2083
aVgreevil_miniboss_black_brain_sap
p2084
aVgreevil_miniboss_sight
p2085
aV
asVvisage
p2086
(lp2087
Vvisage_grave_chill
p2088
aVvisage_soul_assumption
p2089
aVvisage_gravekeepers_cloak
p2090
aVgeneric_hidden
p2091
aVgeneric_hidden
p2092
aVvisage_summon_familiars
p2093
aVspecial_bonus_cast_range_125
p2094
aVspecial_bonus_attack_damage_30
p2095
aVspecial_bonus_exp_boost_40
p2096
aVspecial_bonus_unique_visage_3
p2097
aVspecial_bonus_unique_visage_4
p2098
aVspecial_bonus_unique_visage_2
p2099
aVspecial_bonus_unique_visage_5
p2100
aVspecial_bonus_unique_visage_6
p2101
asVnecronomicon archer
p2102
(lp2103
Vnecronomicon_archer_aoe
p2104
aV
aV
aV
aV
aV
aV
aV
asVnpc_dota_ember_spirit_remnant
p2105
(lp2106
V
aV
aV
aV
asVslardar
p2107
(lp2108
Vslardar_sprint
p2109
aVslardar_slithereen_crush
p2110
aVslardar_bash
p2111
aVgeneric_hidden
p2112
aVgeneric_hidden
p2113
aVslardar_amplify_damage
p2114
aVspecial_bonus_hp_regen_5
p2115
aVspecial_bonus_attack_damage_20
p2116
aVspecial_bonus_hp_300
p2117
aVspecial_bonus_unique_slardar_2
p2118
aVspecial_bonus_attack_speed_50
p2119
aVspecial_bonus_night_vision_1000
p2120
aVspecial_bonus_unique_slardar
p2121
aVspecial_bonus_unique_slardar_3
p2122
asVancient prowler shaman
p2123
(lp2124
Vspawnlord_master_stomp
p2125
aVspawnlord_master_freeze
p2126
aV
aV
asVtreant
p2127
(lp2128
V
aV
aV
aV
aV
aV
aV
aV
asVlycan wolf
p2129
(lp2130
Vlycan_summon_wolves_critical_strike
p2131
aVlycan_summon_wolves_invisibility
p2132
aV
aV
asVdark troll summoner
p2133
(lp2134
Vdark_troll_warlord_ensnare
p2135
aVdark_troll_warlord_raise_dead
p2136
aV
aV
asVshadow fiend
p2137
(lp2138
Vnevermore_shadowraze1
p2139
aVnevermore_shadowraze2
p2140
aVnevermore_shadowraze3
p2141
aVnevermore_necromastery
p2142
aVnevermore_dark_lord
p2143
aVnevermore_requiem
p2144
aVspecial_bonus_spell_amplify_10
p2145
aVspecial_bonus_attack_speed_20
p2146
aVspecial_bonus_unique_nevermore_3
p2147
aVspecial_bonus_movement_speed_40
p2148
aVspecial_bonus_evasion_20
p2149
aVspecial_bonus_unique_nevermore_2
p2150
aVspecial_bonus_unique_nevermore_1
p2151
aVspecial_bonus_cooldown_reduction_40
p2152
asVnether ward
p2153
(lp2154
V
aV
aV
aV
asVtidehunter
p2155
(lp2156
Vtidehunter_gush
p2157
aVtidehunter_kraken_shell
p2158
aVtidehunter_anchor_smash
p2159
aVgeneric_hidden
p2160
aVgeneric_hidden
p2161
aVtidehunter_ravage
p2162
aVspecial_bonus_movement_speed_25
p2163
aVspecial_bonus_unique_tidehunter_2
p2164
aVspecial_bonus_exp_boost_40
p2165
aVspecial_bonus_unique_tidehunter_3
p2166
aVspecial_bonus_unique_tidehunter_4
p2167
aVspecial_bonus_unique_tidehunter
p2168
aVspecial_bonus_cooldown_reduction_25
p2169
aVspecial_bonus_attack_damage_250
p2170
asVserpent ward
p2171
(lp2172
V
aV
aV
aV
aV
asVio
p2173
(lp2174
Vwisp_tether
p2175
aVwisp_spirits
p2176
aVwisp_overcharge
p2177
aVwisp_spirits_in
p2178
aVwisp_spirits_out
p2179
aVwisp_relocate
p2180
aVwisp_tether_break
p2181
aVspecial_bonus_unique_wisp_3
p2182
aVspecial_bonus_attack_damage_60
p2183
aVspecial_bonus_unique_wisp
p2184
aVspecial_bonus_unique_wisp_5
p2185
aVspecial_bonus_gold_income_25
p2186
aVspecial_bonus_unique_wisp_4
p2187
aVspecial_bonus_unique_wisp_2
p2188
aVspecial_bonus_hp_regen_50
p2189
asVverdant megagreevil
p2190
(lp2191
Vgreevil_miniboss_green_living_armor
p2192
aVgreevil_miniboss_green_overgrowth
p2193
aVgreevil_miniboss_sight
p2194
aV
asg245
(lp2195
Vrubick_telekinesis
p2196
aVrubick_fade_bolt
p2197
aVrubick_null_field
p2198
aVrubick_empty1
p2199
aVrubick_empty2
p2200
aVrubick_spell_steal
p2201
aVrubick_telekinesis_land
p2202
aVrubick_hidden1
p2203
aVrubick_hidden2
p2204
aVrubick_hidden3
p2205
aVspecial_bonus_hp_200
p2206
aVspecial_bonus_attack_damage_60
p2207
aVspecial_bonus_cast_range_100
p2208
aVspecial_bonus_unique_rubick_2
p2209
aVspecial_bonus_unique_rubick_3
p2210
aVspecial_bonus_unique_rubick
p2211
aVspecial_bonus_unique_rubick_4
p2212
aVspecial_bonus_unique_rubick_5
p2213
asg247
(lp2214
Venchantress_untouchable
p2215
aVenchantress_enchant
p2216
aVenchantress_natures_attendants
p2217
aVgeneric_hidden
p2218
aVgeneric_hidden
p2219
aVenchantress_impetus
p2220
aVspecial_bonus_magic_resistance_15
p2221
aVspecial_bonus_movement_speed_25
p2222
aVspecial_bonus_attack_damage_50
p2223
aVspecial_bonus_unique_enchantress_2
p2224
aVspecial_bonus_unique_enchantress_3
p2225
aVspecial_bonus_unique_enchantress_1
p2226
aVspecial_bonus_unique_enchantress_4
p2227
aVspecial_bonus_unique_enchantress_5
p2228
asVwildwing
p2229
(lp2230
V
aV
aV
aV
asg317
(lp2231
V
aV
aV
aV
aV
aV
aV
aV
asVdazzle
p2232
(lp2233
Vdazzle_poison_touch
p2234
aVdazzle_shallow_grave
p2235
aVdazzle_shadow_wave
p2236
aVgeneric_hidden
p2237
aVgeneric_hidden
p2238
aVdazzle_weave
p2239
aVspecial_bonus_attack_damage_75
p2240
aVspecial_bonus_hp_200
p2241
aVspecial_bonus_cast_range_125
p2242
aVspecial_bonus_unique_dazzle_2
p2243
aVspecial_bonus_movement_speed_50
p2244
aVspecial_bonus_unique_dazzle_3
p2245
aVspecial_bonus_unique_dazzle_1
p2246
aVspecial_bonus_unique_dazzle_4
p2247
asVwinter wyvern
p2248
(lp2249
Vwinter_wyvern_arctic_burn
p2250
aVwinter_wyvern_splinter_blast
p2251
aVwinter_wyvern_cold_embrace
p2252
aVgeneric_hidden
p2253
aVgeneric_hidden
p2254
aVwinter_wyvern_winters_curse
p2255
aVspecial_bonus_gold_income_15
p2256
aVspecial_bonus_attack_damage_50
p2257
aVspecial_bonus_hp_350
p2258
aVspecial_bonus_night_vision_500
p2259
aVspecial_bonus_unique_winter_wyvern_1
p2260
aVspecial_bonus_unique_winter_wyvern_2
p2261
aVspecial_bonus_unique_winter_wyvern_3
p2262
aVspecial_bonus_unique_winter_wyvern_4
p2263
asVtimbersaw
p2264
(lp2265
Vshredder_whirling_death
p2266
aVshredder_timber_chain
p2267
aVshredder_reactive_armor
p2268
aVshredder_chakram_2
p2269
aVgeneric_hidden
p2270
aVshredder_chakram
p2271
aVshredder_return_chakram
p2272
aVshredder_return_chakram_2
p2273
aVspecial_bonus_spell_amplify_6
p2274
aVspecial_bonus_exp_boost_25
p2275
aVspecial_bonus_attack_damage_100
p2276
aVspecial_bonus_unique_timbersaw_2
p2277
aVspecial_bonus_strength_15
p2278
aVspecial_bonus_cooldown_reduction_10
p2279
aVspecial_bonus_unique_timbersaw
p2280
aVspecial_bonus_unique_timbersaw_3
p2281
asVmagnus
p2282
(lp2283
Vmagnataur_shockwave
p2284
aVmagnataur_empower
p2285
aVmagnataur_skewer
p2286
aVgeneric_hidden
p2287
aVgeneric_hidden
p2288
aVmagnataur_reverse_polarity
p2289
aVspecial_bonus_attack_speed_25
p2290
aVspecial_bonus_hp_200
p2291
aVspecial_bonus_strength_15
p2292
aVspecial_bonus_unique_magnus_4
p2293
aVspecial_bonus_armor_12
p2294
aVspecial_bonus_unique_magnus_3
p2295
aVspecial_bonus_unique_magnus_2
p2296
aVspecial_bonus_unique_magnus_5
p2297
asVcrystal maiden
p2298
(lp2299
Vcrystal_maiden_crystal_nova
p2300
aVcrystal_maiden_frostbite
p2301
aVcrystal_maiden_brilliance_aura
p2302
aVgeneric_hidden
p2303
aVgeneric_hidden
p2304
aVcrystal_maiden_freezing_field
p2305
aVspecial_bonus_hp_200
p2306
aVspecial_bonus_cast_range_100
p2307
aVspecial_bonus_unique_crystal_maiden_4
p2308
aVspecial_bonus_gold_income_15
p2309
aVspecial_bonus_attack_speed_250
p2310
aVspecial_bonus_unique_crystal_maiden_3
p2311
aVspecial_bonus_unique_crystal_maiden_1
p2312
aVspecial_bonus_unique_crystal_maiden_2
p2313
asVarc warden
p2314
(lp2315
Varc_warden_flux
p2316
aVarc_warden_magnetic_field
p2317
aVarc_warden_spark_wraith
p2318
aVgeneric_hidden
p2319
aVgeneric_hidden
p2320
aVarc_warden_tempest_double
p2321
aVspecial_bonus_armor_5
p2322
aVspecial_bonus_attack_speed_25
p2323
aVspecial_bonus_hp_350
p2324
aVspecial_bonus_unique_arc_warden_2
p2325
aVspecial_bonus_cooldown_reduction_10
p2326
aVspecial_bonus_attack_range_100
p2327
aVspecial_bonus_lifesteal_30
p2328
aVspecial_bonus_unique_arc_warden
p2329
asVthyg the giftsnatch
p2330
(lp2331
V
aV
aV
aV
aV
aV
aV
aV
asVancient black dragon
p2332
(lp2333
Vblack_dragon_fireball
p2334
aVblack_dragon_splash_attack
p2335
aVblack_dragon_dragonhide_aura
p2336
aV
asVnimbus
p2337
(lp2338
V
aV
aV
aV
aV
aV
aV
aV
asVshrine
p2339
(lp2340
Vbackdoor_protection_in_base
p2341
aVfiller_ability
p2342
aV
aV
aV
aV
aV
aV
asVphantom assassin
p2343
(lp2344
Vphantom_assassin_stifling_dagger
p2345
aVphantom_assassin_phantom_strike
p2346
aVphantom_assassin_blur
p2347
aVgeneric_hidden
p2348
aVgeneric_hidden
p2349
aVphantom_assassin_coup_de_grace
p2350
aVspecial_bonus_hp_150
p2351
aVspecial_bonus_attack_damage_15
p2352
aVspecial_bonus_corruption_4
p2353
aVspecial_bonus_cleave_20
p2354
aVspecial_bonus_lifesteal_20
p2355
aVspecial_bonus_unique_phantom_assassin
p2356
aVspecial_bonus_unique_phantom_assassin_2
p2357
aVspecial_bonus_unique_phantom_assassin_3
p2358
asVfamiliar
p2359
(lp2360
Vvisage_summon_familiars_stone_form
p2361
aV
aV
aV
aV
aV
aV
aV
asVbudding greevil minion
p2362
(lp2363
V
aV
aV
aV
asVundying zombie
p2364
(lp2365
Vundying_tombstone_zombie_deathstrike
p2366
aVneutral_spell_immunity
p2367
aV
aV
aV
aV
aV
aV
asVogre magi
p2368
(lp2369
Vogre_magi_fireblast
p2370
aVogre_magi_ignite
p2371
aVogre_magi_bloodlust
p2372
aVogre_magi_unrefined_fireblast
p2373
aVgeneric_hidden
p2374
aVogre_magi_multicast
p2375
aVspecial_bonus_gold_income_10
p2376
aVspecial_bonus_cast_range_100
p2377
aVspecial_bonus_attack_damage_90
p2378
aVspecial_bonus_hp_300
p2379
aVspecial_bonus_strength_30
p2380
aVspecial_bonus_unique_ogre_magi
p2381
aVspecial_bonus_movement_speed_90
p2382
aVspecial_bonus_unique_ogre_magi_2
p2383
asVnpc_dota_hero_base
p2384
(lp2385
V
aV
aV
aV
aV
aV
aV
aV
aV
asVancient granite golem
p2386
(lp2387
Vgranite_golem_hp_aura
p2388
aV
aV
aV
asVtower
p2389
(lp2390
Vbackdoor_protection_in_base
p2391
aV
aV
aV
aV
aV
aV
aV
asVvenomancer
p2392
(lp2393
Vvenomancer_venomous_gale
p2394
aVvenomancer_poison_sting
p2395
aVvenomancer_plague_ward
p2396
aVgeneric_hidden
p2397
aVgeneric_hidden
p2398
aVvenomancer_poison_nova
p2399
aVspecial_bonus_unique_venomancer_3
p2400
aVspecial_bonus_gold_income_15
p2401
aVspecial_bonus_cast_range_150
p2402
aVspecial_bonus_unique_venomancer_2
p2403
aVspecial_bonus_unique_venomancer_4
p2404
aVspecial_bonus_unique_venomancer_5
p2405
aVspecial_bonus_unique_venomancer_6
p2406
aVspecial_bonus_unique_venomancer
p2407
asVtornado
p2408
(lp2409
Vtornado_tempest
p2410
aV
aV
aV
aV
aV
aV
aV
asVleshrac
p2411
(lp2412
Vleshrac_split_earth
p2413
aVleshrac_diabolic_edict
p2414
aVleshrac_lightning_storm
p2415
aVgeneric_hidden
p2416
aVgeneric_hidden
p2417
aVleshrac_pulse_nova
p2418
aVspecial_bonus_armor_5
p2419
aVspecial_bonus_mp_250
p2420
aVspecial_bonus_strength_15
p2421
aVspecial_bonus_movement_speed_40
p2422
aVspecial_bonus_evasion_25
p2423
aVspecial_bonus_unique_leshrac_3
p2424
aVspecial_bonus_unique_leshrac_1
p2425
aVspecial_bonus_unique_leshrac_2
p2426
asVchaos knight
p2427
(lp2428
Vchaos_knight_chaos_bolt
p2429
aVchaos_knight_reality_rift
p2430
aVchaos_knight_chaos_strike
p2431
aVgeneric_hidden
p2432
aVgeneric_hidden
p2433
aVchaos_knight_phantasm
p2434
aVspecial_bonus_all_stats_5
p2435
aVspecial_bonus_movement_speed_20
p2436
aVspecial_bonus_strength_15
p2437
aVspecial_bonus_cooldown_reduction_12
p2438
aVspecial_bonus_gold_income_25
p2439
aVspecial_bonus_unique_chaos_knight
p2440
aVspecial_bonus_unique_chaos_knight_2
p2441
aVspecial_bonus_unique_chaos_knight_3
p2442
asVbeastmaster
p2443
(lp2444
Vbeastmaster_wild_axes
p2445
aVbeastmaster_call_of_the_wild
p2446
aVbeastmaster_inner_beast
p2447
aVgeneric_hidden
p2448
aVgeneric_hidden
p2449
aVbeastmaster_primal_roar
p2450
aVspecial_bonus_exp_boost_25
p2451
aVspecial_bonus_movement_speed_30
p2452
aVspecial_bonus_armor_7
p2453
aVspecial_bonus_unique_beastmaster_2
p2454
aVspecial_bonus_unique_beastmaster
p2455
aVspecial_bonus_hp_500
p2456
aVspecial_bonus_unique_beastmaster_4
p2457
aVspecial_bonus_unique_beastmaster_3
p2458
asVskeleton warrior
p2459
(lp2460
V
aV
aV
aV
aV
aV
aV
aV
asVbloodseeker
p2461
(lp2462
Vbloodseeker_bloodrage
p2463
aVbloodseeker_blood_bath
p2464
aVbloodseeker_thirst
p2465
aVgeneric_hidden
p2466
aVgeneric_hidden
p2467
aVbloodseeker_rupture
p2468
aVspecial_bonus_attack_speed_25
p2469
aVspecial_bonus_armor_4
p2470
aVspecial_bonus_hp_300
p2471
aVspecial_bonus_unique_bloodseeker_2
p2472
aVspecial_bonus_unique_bloodseeker_3
p2473
aVspecial_bonus_lifesteal_25
p2474
aVspecial_bonus_unique_bloodseeker
p2475
aVspecial_bonus_unique_bloodseeker_4
p2476
asVnpc_dota_dark_willow_creature
p2477
(lp2478
V
aV
aV
aV
asg275
(lp2479
Vgreevil_miniboss_yellow_ion_shell
p2480
aVgreevil_miniboss_yellow_surge
p2481
aVgreevil_miniboss_sight
p2482
aV
asVsven
p2483
(lp2484
Vsven_storm_bolt
p2485
aVsven_great_cleave
p2486
aVsven_warcry
p2487
aVgeneric_hidden
p2488
aVgeneric_hidden
p2489
aVsven_gods_strength
p2490
aVspecial_bonus_strength_8
p2491
aVspecial_bonus_mp_regen_2
p2492
aVspecial_bonus_movement_speed_30
p2493
aVspecial_bonus_attack_damage_30
p2494
aVspecial_bonus_lifesteal_25
p2495
aVspecial_bonus_unique_sven_3
p2496
aVspecial_bonus_unique_sven_2
p2497
aVspecial_bonus_unique_sven
p2498
asVancient primal stalker
p2499
(lp2500
V
aV
aV
aV
asVgreater treant
p2501
(lp2502
V
aV
aV
aV
aV
aV
aV
aV
asVhawk
p2503
(lp2504
V
aV
aV
aV
asVnpc_dota_slark_visual
p2505
(lp2506
V
aV
aV
aV
asVskywrath mage
p2507
(lp2508
Vskywrath_mage_arcane_bolt
p2509
aVskywrath_mage_concussive_shot
p2510
aVskywrath_mage_ancient_seal
p2511
aVgeneric_hidden
p2512
aVgeneric_hidden
p2513
aVskywrath_mage_mystic_flare
p2514
aVspecial_bonus_movement_speed_25
p2515
aVspecial_bonus_intelligence_8
p2516
aVspecial_bonus_unique_skywrath
p2517
aVspecial_bonus_unique_skywrath_2
p2518
aVspecial_bonus_unique_skywrath_4
p2519
aVspecial_bonus_unique_skywrath_3
p2520
aVspecial_bonus_gold_income_50
p2521
aVspecial_bonus_unique_skywrath_5
p2522
asVjakiro
p2523
(lp2524
Vjakiro_dual_breath
p2525
aVjakiro_ice_path
p2526
aVjakiro_liquid_fire
p2527
aVgeneric_hidden
p2528
aVgeneric_hidden
p2529
aVjakiro_macropyre
p2530
aVspecial_bonus_exp_boost_25
p2531
aVspecial_bonus_spell_amplify_8
p2532
aVspecial_bonus_attack_range_250
p2533
aVspecial_bonus_unique_jakiro_2
p2534
aVspecial_bonus_unique_jakiro_4
p2535
aVspecial_bonus_gold_income_25
p2536
aVspecial_bonus_unique_jakiro_3
p2537
aVspecial_bonus_unique_jakiro
p2538
asVtarget dummy
p2539
(lp2540
V
aV
aV
aV
aV
aV
asVviper
p2541
(lp2542
Vviper_poison_attack
p2543
aVviper_nethertoxin
p2544
aVviper_corrosive_skin
p2545
aVgeneric_hidden
p2546
aVgeneric_hidden
p2547
aVviper_viper_strike
p2548
aVspecial_bonus_attack_speed_20
p2549
aVspecial_bonus_spell_lifesteal_8
p2550
aVspecial_bonus_attack_range_100
p2551
aVspecial_bonus_unique_viper_1
p2552
aVspecial_bonus_unique_viper_2
p2553
aVspecial_bonus_unique_viper_4
p2554
aVspecial_bonus_unique_viper_3
p2555
aVspecial_bonus_attack_damage_120
p2556
asVdiretide ghoul
p2557
(lp2558
V
aV
aV
aV
aV
aV
aV
aV
asVranged creep
p2559
(lp2560
V
aV
aV
aV
aV
aV
aV
aV
asVspectre
p2561
(lp2562
Vspectre_spectral_dagger
p2563
aVspectre_desolate
p2564
aVspectre_dispersion
p2565
aVspectre_reality
p2566
aVgeneric_hidden
p2567
aVspectre_haunt
p2568
aVspecial_bonus_hp_regen_5
p2569
aVspecial_bonus_unique_spectre_2
p2570
aVspecial_bonus_all_stats_8
p2571
aVspecial_bonus_unique_spectre
p2572
aVspecial_bonus_hp_500
p2573
aVspecial_bonus_unique_spectre_3
p2574
aVspecial_bonus_unique_spectre_4
p2575
aVspecial_bonus_unique_spectre_5
p2576
asVbounty hunter
p2577
(lp2578
Vbounty_hunter_shuriken_toss
p2579
aVbounty_hunter_jinada
p2580
aVbounty_hunter_wind_walk
p2581
aVgeneric_hidden
p2582
aVgeneric_hidden
p2583
aVbounty_hunter_track
p2584
aVspecial_bonus_movement_speed_30
p2585
aVspecial_bonus_exp_boost_25
p2586
aVspecial_bonus_attack_speed_50
p2587
aVspecial_bonus_hp_350
p2588
aVspecial_bonus_unique_bounty_hunter_2
p2589
aVspecial_bonus_unique_bounty_hunter
p2590
aVspecial_bonus_evasion_50
p2591
aVspecial_bonus_unique_bounty_hunter_3
p2592
asVtombstone
p2593
(lp2594
Vneutral_spell_immunity
p2595
aV
aV
aV
aV
aV
aV
aV
asVancient apparition
p2596
(lp2597
Vancient_apparition_cold_feet
p2598
aVancient_apparition_ice_vortex
p2599
aVancient_apparition_chilling_touch
p2600
aVgeneric_hidden
p2601
aVgeneric_hidden
p2602
aVancient_apparition_ice_blast
p2603
aVancient_apparition_ice_blast_release
p2604
aVspecial_bonus_gold_income_10
p2605
aVspecial_bonus_spell_amplify_10
p2606
aVspecial_bonus_unique_ancient_apparition_3
p2607
aVspecial_bonus_hp_regen_20
p2608
aVspecial_bonus_unique_ancient_apparition_4
p2609
aVspecial_bonus_unique_ancient_apparition_2
p2610
aVspecial_bonus_unique_ancient_apparition_1
p2611
aVspecial_bonus_unique_ancient_apparition_5
p2612
asVhoming missile
p2613
(lp2614
V
aV
aV
aV
asVaxe
p2615
(lp2616
Vaxe_berserkers_call
p2617
aVaxe_battle_hunger
p2618
aVaxe_counter_helix
p2619
aVgeneric_hidden
p2620
aVgeneric_hidden
p2621
aVaxe_culling_blade
p2622
aVspecial_bonus_strength_8
p2623
aVspecial_bonus_attack_speed_40
p2624
aVspecial_bonus_mp_regen_3
p2625
aVspecial_bonus_movement_speed_30
p2626
aVspecial_bonus_hp_regen_20
p2627
aVspecial_bonus_unique_axe_3
p2628
aVspecial_bonus_unique_axe_2
p2629
aVspecial_bonus_unique_axe
p2630
asVoracle
p2631
(lp2632
Voracle_fortunes_end
p2633
aVoracle_fates_edict
p2634
aVoracle_purifying_flames
p2635
aVgeneric_hidden
p2636
aVgeneric_hidden
p2637
aVoracle_false_promise
p2638
aVspecial_bonus_unique_oracle_2
p2639
aVspecial_bonus_exp_boost_25
p2640
aVspecial_bonus_cast_range_150
p2641
aVspecial_bonus_gold_income_15
p2642
aVspecial_bonus_movement_speed_75
p2643
aVspecial_bonus_unique_oracle_4
p2644
aVspecial_bonus_unique_oracle_3
p2645
aVspecial_bonus_unique_oracle
p2646
asVnoxious megagreevil
p2647
(lp2648
Vgreevil_miniboss_purple_venomous_gale
p2649
aVgreevil_miniboss_purple_plague_ward
p2650
aVgreevil_miniboss_sight
p2651
aV
assVsatyr_trickster_purge
p2652
V5314
p2653
sVlone_druid_true_form_battle_cry
p2654
V5417
p2655
sVlone_druid_rabid
p2656
V5413
p2657
sVomniknight_repel
p2658
V5264
p2659
sg309
g308
sg773
Vnpc_dota_hero_clinkz
p2660
sVtidehunter_ravage
p2661
V5121
p2662
sVnpc_dota_goodguys_siege_upgraded
p2663
g655
sVdeath_prophet_carrion_swarm
p2664
V5090
p2665
sVitem_helm_of_iron_will
p2666
V6
sVwisp_spirits_out
p2667
V5493
p2668
sVenchantress_impetus
p2669
V5270
p2670
sVitem_mekansm
p2671
V79
p2672
sVnpc_dota_hero_sniper
p2673
g501
sVspecial_bonus_movement_speed_60
p2674
V6373
p2675
sg1315
Vnpc_dota_necronomicon_warrior_3
p2676
sVitem_recipe_poor_mans_shield
p2677
V70
p2678
sVspecial_bonus_cast_range_200
p2679
V6114
p2680
sVnpc_dota_hero_bloodseeker
p2681
g2461
sVtinker_laser
p2682
V5150
p2683
sg1191
Vnpc_dota_hero_broodmother
p2684
sVbrewmaster_earth_spell_immunity
p2685
V5405
p2686
sVcrystal_maiden_freezing_field
p2687
V5129
p2688
sVvenomancer_venomous_gale
p2689
V5178
p2690
sVcentaur_return
p2691
V5516
p2692
sVvisage_soul_assumption
p2693
V5481
p2694
sVnpc_dota_dire_eidolon
p2695
g711
sVspecial_bonus_lifesteal_20
p2696
V6078
p2697
sVspecial_bonus_lifesteal_25
p2698
V6111
p2699
sVearthshaker_enchant_totem
p2700
V5024
p2701
sVspecial_bonus_respawn_reduction_50
p2702
V6269
p2703
sVtechies_stasis_trap
p2704
V5600
p2705
sVzuus_thundergods_wrath
p2706
V5113
p2707
sVshredder_timber_chain
p2708
V5525
p2709
sVnight_stalker_crippling_fear
p2710
V5276
p2711
sVnpc_dota_creep_goodguys_melee_diretide
p2712
g2557
sVzuus_lightning_bolt
p2713
V5111
p2714
sg1564
Vnpc_dota_neutral_polar_furbolg_champion
p2715
sVbroodmother_spawn_spiderite
p2716
V5283
p2717
sVitem_recipe_travel_boots_2
p2718
V219
p2719
sVspecial_bonus_unique_axe_3
p2720
V6815
p2721
sVspecial_bonus_unique_axe_2
p2722
V6608
p2723
sVitem_recipe_ethereal_blade
p2724
V175
p2725
sVspawnlord_master_freeze
p2726
V6278
p2727
sVitem_null_talisman
p2728
V77
p2729
sVitem_boots
p2730
V29
p2731
sg1743
Vnpc_dota_neutral_kobold_taskmaster
p2732
sVnpc_dota_hero_spirit_breaker
p2733
g923
sg1249
Vnpc_dota_hero_furion
p2734
sVlycan_shapeshift
p2735
V5398
p2736
sVspecial_bonus_attack_range_175
p2737
V6186
p2738
sVspecial_bonus_unique_outworld_devourer
p2739
V6241
p2740
sVspecial_bonus_attack_speed_160
p2741
V6605
p2742
sVspecial_bonus_unique_razor
p2743
V6028
p2744
sVitem_boots_of_elves
p2745
V18
p2746
sVgreevil_miniboss_red_overpower
p2747
V5541
p2748
sVspecial_bonus_unique_storm_spirit_3
p2749
V6907
p2750
sVspecial_bonus_unique_storm_spirit_2
p2751
V6906
p2752
sVnpc_dota_shadow_shaman_ward_1
p2753
Vserpent ward
p2754
sVspecial_bonus_unique_storm_spirit_5
p2755
V6916
p2756
sVspecial_bonus_unique_storm_spirit_4
p2757
V6908
p2758
sVundying_tombstone
p2759
V5444
p2760
sVspecial_bonus_intelligence_30
p2761
V6060
p2762
sVspecial_bonus_intelligence_35
p2763
V6248
p2764
sVitem_mithril_hammer
p2765
V8
sg381
Vnpc_dota_goodguys_fort
p2766
sg1577
Vnpc_dota_healing_campfire
p2767
sVroshan_devotion
p2768
V5217
p2769
sg2282
Vnpc_dota_hero_magnataur
p2770
sVspecial_bonus_spell_amplify_3
p2771
V6162
p2772
sVspecial_bonus_spell_amplify_6
p2773
V5996
p2774
sVspecial_bonus_spell_amplify_5
p2775
V5948
p2776
sVspecial_bonus_spell_amplify_4
p2777
V6015
p2778
sVspecial_bonus_spell_amplify_8
p2779
V5949
p2780
sVnpc_dota_creep_badguys_melee_upgraded
p2781
Vsuper melee creep
p2782
sVspecial_bonus_gold_income_40
p2783
V6301
p2784
sVitem_demon_edge
p2785
V51
p2786
sg2392
Vnpc_dota_hero_venomancer
p2787
sVbrewmaster_storm_dispel_magic
p2788
V5408
p2789
sVslardar_bash
p2790
V5116
p2791
sVcourier_take_stash_items
p2792
V5208
p2793
sVinvoker_empty2
p2794
V5374
p2795
sVitem_sange_and_yasha
p2796
V154
p2797
sg1867
Vnpc_dota_greevil
p2798
sVinvoker_empty1
p2799
V5373
p2800
sVspecial_bonus_mp_350
p2801
V6254
p2802
sVriki_permanent_invisibility
p2803
V5144
p2804
sVitem_enchanted_mango
p2805
V216
p2806
sVroshan_halloween_angry
p2807
V9991
p2808
sVspecial_bonus_unique_disruptor_3
p2809
V6536
p2810
sVspecial_bonus_unique_disruptor_2
p2811
V6368
p2812
sVspecial_bonus_unique_disruptor_5
p2813
V6812
p2814
sVspecial_bonus_unique_disruptor_4
p2815
V6630
p2816
sVwisp_spirits
p2817
V5486
p2818
sVlich_dark_ritual
p2819
V5136
p2820
sVshredder_return_chakram_2
p2821
V5646
p2822
sVspecial_bonus_undefined
p2823
V6285
p2824
sg1803
Vnpc_dota_hero_enigma
p2825
sVitem_veil_of_discord
p2826
V190
p2827
sValchemist_unstable_concoction_throw
p2828
V5367
p2829
sVobsidian_destroyer_arcane_orb
p2830
V5391
p2831
sg947
Vnpc_dota_hero_legion_commander
p2832
sVphantom_assassin_blur
p2833
V5192
p2834
sVspecial_bonus_mp_225
p2835
V6504
p2836
sVspecial_bonus_intelligence_8
p2837
V5925
p2838
sg1628
Vnpc_dota_neutral_satyr_hellcaller
p2839
sg851
Vnpc_dota_brewmaster_earth_3
p2840
sVspecial_bonus_exp_boost_5
p2841
V5983
p2842
sVbackdoor_protection
p2843
V5350
p2844
sVnpc_dota_goodguys_tower3_top
p2845
Vtower
p2846
sVitem_vitality_booster
p2847
V61
p2848
sg474
Vnpc_dota_badguys_cny_beast
p2849
sVspecial_bonus_unique_bristleback_3
p2850
V6615
p2851
sVspecial_bonus_unique_bristleback_2
p2852
V6360
p2853
sVspecial_bonus_attack_range_400
p2854
V6307
p2855
sVshadow_shaman_mass_serpent_ward
p2856
V5081
p2857
sVclinkz_wind_walk
p2858
V5261
p2859
sVitem_river_painter
p2860
V1021
p2861
sVspecial_bonus_unique_razor_3
p2862
V6860
p2863
sVspecial_bonus_unique_razor_2
p2864
V6408
p2865
sVspecial_bonus_unique_razor_4
p2866
V6861
p2867
sVnpc_dota_hero_earth_spirit
p2868
g658
sVnpc_dota_neutral_ogre_magi
p2869
g941
sVnpc_dota_hero_lycan
p2870
g1082
sVmud_golem_hurl_boulder
p2871
V5670
p2872
sVitem_recipe_manta
p2873
V146
p2874
sVlone_druid_true_form_druid
p2875
V5416
p2876
sVitem_recipe_satanic
p2877
V155
p2878
sVspecial_bonus_unique_phoenix_4
p2879
V6852
p2880
sVspecial_bonus_unique_sven
p2881
V6045
p2882
sVspecial_bonus_unique_phoenix_2
p2883
V6085
p2884
sVspecial_bonus_unique_phoenix_3
p2885
V6401
p2886
sVspecial_bonus_unique_phoenix_1
p2887
V6227
p2888
sg789
Vnpc_dota_hero_earthshaker
p2889
sVthrow_coal
p2890
V5578
p2891
sVpugna_nether_blast
p2892
V5186
p2893
sVnpc_dota_hero_ancient_apparition
p2894
g2596
sVspecial_bonus_attack_speed_50
p2895
V6020
p2896
sVnpc_dota_hero_shadow_shaman
p2897
g1098
sVelder_titan_return_spirit
p2898
V5592
p2899
sg874
Vnpc_dota_greevil_minion_blue
p2900
sVslardar_amplify_damage
p2901
V5117
p2902
sVspecial_bonus_unique_lone_druid_9
p2903
V7036
p2904
sVspecial_bonus_unique_lone_druid_8
p2905
V6806
p2906
sVspecial_bonus_unique_lone_druid_5
p2907
V6508
p2908
sVspecial_bonus_unique_lone_druid_4
p2909
V6268
p2910
sVspecial_bonus_unique_lone_druid_7
p2911
V6680
p2912
sVspecial_bonus_unique_lone_druid_6
p2913
V6679
p2914
sVspecial_bonus_unique_lone_druid_1
p2915
V6261
p2916
sVluna_moon_glaive
p2917
V5223
p2918
sVspecial_bonus_unique_lone_druid_3
p2919
V6263
p2920
sVspecial_bonus_unique_lone_druid_2
p2921
V6262
p2922
sg436
g436
sVshadow_demon_shadow_poison_release
p2923
V5424
p2924
sg1977
Vnpc_dota_hero_keeper_of_the_light
p2925
sg1059
Vnpc_dota_invoker_forged_spirit
p2926
sVspecial_bonus_unique_legion_commander
p2927
V6218
p2928
sVspecial_bonus_unique_phantom_lancer
p2929
V6146
p2930
sg432
Vnpc_dota_neutral_fel_beast
p2931
sVgreevil_blade_fury
p2932
V5553
p2933
sVitem_silver_edge
p2934
V249
p2935
sg248
g247
sVspecial_bonus_unique_earth_spirit
p2936
V6203
p2937
sg427
Vnpc_dota_neutral_polar_furbolg_ursa_warrior
p2938
sVitem_monkey_king_bar
p2939
V135
p2940
sVspecial_bonus_unique_meepo_2
p2941
V6689
p2942
sVspecial_bonus_unique_clinkz_3
p2943
V6620
p2944
sVspecial_bonus_unique_clinkz_2
p2945
V6231
p2946
sVspecial_bonus_unique_clinkz_1
p2947
V6104
p2948
sg1265
Vnpc_dota_hero_techies
p2949
sVspecial_bonus_movement_speed_75
p2950
V6355
p2951
sg180
g179
sVabaddon_borrowed_time
p2952
V5588
p2953
sg1173
Vnpc_dota_neutral_dark_troll
p2954
sVmedusa_mana_shield
p2955
V5506
p2956
sVnpc_dota_hero_lich
p2957
g2063
sVitem_arcane_boots
p2958
V180
p2959
sVitem_recipe_sange_and_yasha
p2960
V153
p2961
sVnpc_dota_hero_invoker
p2962
g1017
sVgreevil_flesh_golem
p2963
V5562
p2964
sVwarlock_golem_flaming_fists
p2965
V5166
p2966
sVneutral_spell_immunity
p2967
V5303
p2968
sg1459
Vnpc_dota_beastmaster_greater_boar
p2969
sVitem_relic
p2970
V54
p2971
sVsniper_headshot
p2972
V5155
p2973
sg1511
Vnpc_dota_techies_remote_mine
p2974
sVnpc_dota_hero_nyx_assassin
p2975
g1352
sg2541
Vnpc_dota_hero_viper
p2976
sVnpc_dota_broodmother_spiderite
p2977
g438
sVitem_solar_crest
p2978
V229
p2979
sVspecial_bonus_lifesteal_30
p2980
V6121
p2981
sVforest_troll_high_priest_heal
p2982
V5318
p2983
sVspecial_bonus_unique_huskar_3
p2984
V6655
p2985
sg77
g76
sVitem_ghost
p2986
V37
p2987
sVpugna_life_drain
p2988
V5189
p2989
sVnpc_dota_greevil_miniboss_purple
p2990
g2647
sVnpc_dota_badguys_siege
p2991
Vsiege creep
p2992
sVspecial_bonus_respawn_reduction_40
p2993
V6066
p2994
sg2839
g1628
sVspecial_bonus_respawn_reduction_45
p2995
V6375
p2996
sVnpc_dota_neutral_mud_golem_split
p2997
g1147
sVnpc_dota_hero_juggernaut
p2998
g1043
sg1706
Vnpc_dota_hero_sand_king
p2999
sVmorphling_adaptive_strike_str
p3000
V7000
p3001
sVcentaur_double_edge
p3002
V5515
p3003
sVspecial_bonus_attack_damage_90
p3004
V5968
p3005
sVbrewmaster_primal_split
p3006
V5403
p3007
sg1798
Vnpc_dota_goodguys_melee_rax_mid
p3008
sg1835
Vnpc_dota_hero_faceless_void
p3009
sVnpc_dota_greevil_miniboss_black
p3010
g2081
sVitem_bloodthorn
p3011
V250
p3012
sVdisruptor_glimpse
p3013
V5459
p3014
sVhuskar_life_break
p3015
V5274
p3016
sVspecial_bonus_unique_dazzle_1
p3017
V6049
p3018
sVitem_recipe_greater_crit
p3019
V140
p3020
sVpudge_flesh_heap
p3021
V5074
p3022
sg813
Vnpc_dota_greevil_minion_yellow
p3023
sg2974
g1511
sVweaver_the_swarm
p3024
V5289
p3025
sVcourier_burst
p3026
V5210
p3027
sg2031
Vnpc_dota_hero_vengefulspirit
p3028
sVcourier_go_to_sideshop2
p3029
V6334
p3030
sVspecial_bonus_unique_troll_warlord_2
p3031
V6958
p3032
sVspecial_bonus_unique_troll_warlord_3
p3033
V6959
p3034
sVspecial_bonus_hp_regen_35
p3035
V8351
p3036
sg2613
Vnpc_dota_gyrocopter_homing_missile
p3037
sVspecial_bonus_unique_troll_warlord_4
p3038
V6960
p3039
sVwarlock_golem_permanent_immolation
p3040
V5167
p3041
sVnpc_dota_hero_slardar
p3042
g2107
sVriki_tricks_of_the_trade
p3043
V5145
p3044
sVspecial_bonus_unique_ogre_magi
p3045
V6183
p3046
sVnpc_dota_hero_zuus
p3047
g1746
sg2173
Vnpc_dota_hero_wisp
p3048
sVjuggernaut_blade_fury
p3049
V5028
p3050
sVspecial_bonus_hp_100
p3051
V5900
p3052
sVleshrac_lightning_storm
p3053
V5243
p3054
sVitem_branches
p3055
V16
p3056
sVwarlock_shadow_word
p3057
V5163
p3058
sVgreevil_leech_seed
p3059
V5557
p3060
sVnpc_dota_badguys_tower1_bot
p3061
Vtower
p3062
sVnpc_dota_creep_badguys_ranged_diretide
p3063
g391
sg626
Vnpc_dota_neutral_small_thunder_lizard
p3064
sVnpc_dota_goodguys_healers
p3065
Vshrine
p3066
sg1369
Vnpc_dota_hero_queenofpain
p3067
sVspecial_bonus_unique_bounty_hunter
p3068
V6018
p3069
sVaxe_battle_hunger
p3070
V5008
p3071
sVbrewmaster_fire_permanent_immolation
p3072
V5411
p3073
sVdeath_prophet_spirit_siphon
p3074
V5685
p3075
sVearth_spirit_geomagnetic_grip
p3076
V5610
p3077
sg2557
g2712
sVnpc_dota_brewmaster_earth_2
p3078
Vearth
p3079
sg2840
Vearth
p3080
sg2593
Vnpc_dota_unit_tombstone3
p3081
sVtiny_toss_tree
p3082
V6937
p3083
sVnpc_dota_neutral_satyr_trickster
p3084
g1574
sVnpc_dota_greater_eidolon
p3085
g1597
sVhealing_campfire
p3086
V5579
p3087
sVitem_blades_of_attack
p3088
V2
sVitem_broadsword
p3089
V3
sVnpc_dota_goodguys_range_rax_mid
p3090
g569
sVgreevil_miniboss_black_nightmare
p3091
V5536
p3092
sVitem_rapier
p3093
V133
p3094
sVnpc_dota_neutral_satyr_soulstealer
p3095
g566
sVbrewmaster_drunken_haze
p3096
V5401
p3097
sVspecial_bonus_gold_income_70
p3098
V6446
p3099
sVspecial_bonus_unique_meepo_3
p3100
V7027
p3101
sVspecial_bonus_mp_500
p3102
V6185
p3103
sVitem_recipe_rod_of_atos
p3104
V205
p3105
sVbeastmaster_boar_poison
p3106
V5171
p3107
sVrubick_empty1
p3108
V5453
p3109
sVrubick_empty2
p3110
V5454
p3111
sVnpc_dota_badguys_fillers
p3112
g1722
sg2343
Vnpc_dota_hero_phantom_assassin
p3113
sg566
g3095
sVpudge_rot
p3114
V5076
p3115
sVwinter_wyvern_winters_curse
p3116
V5654
p3117
sg607
Vnpc_dota_hero_windrunner
p3118
sVskywrath_mage_arcane_bolt
p3119
V5581
p3120
sVspecial_bonus_unique_elder_titan
p3121
V6171
p3122
sVitem_skadi
p3123
V160
p3124
sVgreevil_ice_wall
p3125
V5547
p3126
sVspecial_bonus_unique_death_prophet_2
p3127
V6367
p3128
sVspecial_bonus_unique_death_prophet_3
p3129
V6628
p3130
sVspecial_bonus_unique_death_prophet_4
p3131
V6805
p3132
sVgreevil_echo_slam
p3133
V5558
p3134
sg210
g209
sVspecial_bonus_cooldown_reduction_15
p3135
V5951
p3136
sVroshan_inherent_buffs
p3137
V5216
p3138
sVspecial_bonus_cooldown_reduction_10
p3139
V6021
p3140
sVspecial_bonus_cooldown_reduction_12
p3141
V6190
p3142
sVdazzle_shadow_wave
p3143
V5235
p3144
sVlegion_commander_press_the_attack
p3145
V5596
p3146
sVitem_river_painter4
p3147
V1024
p3148
sVfaceless_void_time_lock
p3149
V5184
p3150
sVvengefulspirit_magic_missile
p3151
V5122
p3152
sVlife_stealer_empty_1
p3153
V5657
p3154
sVlife_stealer_empty_2
p3155
V5658
p3156
sVlife_stealer_empty_3
p3157
V5659
p3158
sVlife_stealer_empty_4
p3159
V5660
p3160
sVnpc_dota_goodguys_tower3_bot
p3161
Vtower
p3162
sVwindrunner_focusfire
p3163
V5133
p3164
sVzuus_static_field
p3165
V5112
p3166
sVspirit_breaker_charge_of_darkness
p3167
V5353
p3168
sVspecial_bonus_unique_faceless_void
p3169
V6128
p3170
sVitem_recipe_dragon_lance
p3171
V234
p3172
sg690
Vnpc_dota_hero_kunkka
p3173
sVitem_recipe_power_treads
p3174
V62
p3175
sg125
g124
sVtechies_minefield_sign
p3176
V5644
p3177
sVspecial_bonus_strength_40
p3178
V6633
p3179
sVshadow_demon_shadow_poison
p3180
V5423
p3181
sVspecial_bonus_unique_nevermore_1
p3182
V6670
p3183
sVspecial_bonus_unique_nevermore_2
p3184
V6070
p3185
sVspecial_bonus_unique_nevermore_3
p3186
V6875
p3187
sVspecial_bonus_unique_nevermore_4
p3188
V6876
p3189
sVspecial_bonus_unique_nevermore_5
p3190
V6912
p3191
sVspecial_bonus_cast_range_350
p3192
V6930
p3193
sVphoenix_sun_ray_toggle_move
p3194
V5628
p3195
sVspecial_bonus_attack_speed_45
p3196
V6224
p3197
sVspecial_bonus_attack_speed_40
p3198
V6210
p3199
sVroshan_halloween_fireball
p3200
V10002
p3201
sVjakiro_ice_path
p3202
V5298
p3203
sVnpc_dota_hero_necrolyte
p3204
g835
sVspecial_bonus_unique_bloodseeker_4
p3205
V6809
p3206
sVnpc_dota_rattletrap_cog
p3207
g1572
sg1313
Vnpc_dota_scout_hawk
p3208
sVspecial_bonus_unique_bloodseeker_2
p3209
V6356
p3210
sVitem_orchid
p3211
V98
p3212
sVspecial_bonus_unique_bloodseeker_3
p3213
V6357
p3214
sVnpc_dota_greevil_minion_red
p3215
g771
sVtemplar_assassin_trap
p3216
V5198
p3217
sVitem_pers
p3218
V69
p3219
sVlycan_summon_wolves_invisibility
p3220
V5500
p3221
sVspecial_bonus_unique_meepo
p3222
V6288
p3223
sg628
Vnpc_dota_neutral_forest_troll_berserker
p3224
sVspecial_bonus_magic_resistance_20
p3225
V6000
p3226
sVspecial_bonus_movement_speed_40
p3227
V6093
p3228
sVspecial_bonus_movement_speed_45
p3229
V6249
p3230
sg1599
Vnpc_dota_neutral_mud_golem
p3231
sVspecial_bonus_unique_templar_assassin_6
p3232
V7058
p3233
sVspecial_bonus_unique_templar_assassin_5
p3234
V6940
p3235
sVmeepo_earthbind
p3236
V5430
p3237
sVspecial_bonus_unique_templar_assassin_3
p3238
V6938
p3239
sVspecial_bonus_unique_templar_assassin_2
p3240
V6545
p3241
sVnpc_dota_techies_stasis_trap
p3242
g1801
sVbroodmother_poison_sting
p3243
V5284
p3244
sVnpc_dota_weaver_swarm
p3245
g389
sg2596
g2894
sVmeepo_divided_we_stand
p3246
V5433
p3247
sVkunkka_tidebringer
p3248
V5032
p3249
sVshredder_reactive_armor
p3250
V5526
p3251
sVitem_river_painter2
p3252
V1022
p3253
sVgranite_golem_hp_aura
p3254
V5656
p3255
sVdisruptor_kinetic_field
p3256
V5460
p3257
sVmagnataur_empower
p3258
V5519
p3259
sVvisage_grave_chill
p3260
V5480
p3261
sVchaos_knight_chaos_bolt
p3262
V5426
p3263
sVitem_medallion_of_courage
p3264
V187
p3265
sVspecial_bonus_unique_ancient_apparition_1
p3266
V6214
p3267
sVspecial_bonus_unique_ancient_apparition_2
p3268
V6291
p3269
sVspecial_bonus_unique_ancient_apparition_3
p3270
V6352
p3271
sVspecial_bonus_unique_ancient_apparition_4
p3272
V6534
p3273
sVspecial_bonus_unique_windranger
p3274
V6144
p3275
sVspecial_bonus_unique_sand_king
p3276
V6207
p3277
sVcny2015_black_hole
p3278
V5663
p3279
sVmonkey_king_primal_spring_early
p3280
V5726
p3281
sVspecial_bonus_respawn_reduction_35
p3282
V6038
p3283
sVstorm_spirit_electric_vortex
p3284
V5099
p3285
sVspecial_bonus_respawn_reduction_30
p3286
V5964
p3287
sVinvoker_chaos_meteor
p3288
V5385
p3289
sVdeath_prophet_witchcraft
p3290
V5092
p3291
sVitem_tome_of_knowledge
p3292
V257
p3293
sVluna_lunar_blessing
p3294
V5224
p3295
sVnpc_dota_beastmaster_hawk
p3296
Vhawk
p3297
sVspecial_bonus_unique_wisp
p3298
V6265
p3299
sVnpc_dota_creep_badguys_melee_diretide
p3300
g999
sVspecial_bonus_unique_wraith_king_2
p3301
V6088
p3302
sVspecial_bonus_unique_wraith_king_3
p3303
V6414
p3304
sVspecial_bonus_unique_wraith_king_1
p3305
V6201
p3306
sVspecial_bonus_unique_wraith_king_6
p3307
V6822
p3308
sVspecial_bonus_unique_wraith_king_4
p3309
V6566
p3310
sVspecial_bonus_unique_wraith_king_5
p3311
V6821
p3312
sg2011
Vnpc_dota_neutral_giant_wolf
p3313
sVskywrath_mage_mystic_flare
p3314
V5584
p3315
sVitem_buckler
p3316
V86
p3317
sVspecial_bonus_unique_arc_warden
p3318
V6287
p3319
sVabyssal_underlord_pit_of_malice
p3320
V5614
p3321
sVspecial_bonus_hp_regen_20
p3322
V6079
p3323
sg715
Vnpc_dota_hero_phoenix
p3324
sVspecial_bonus_hp_regen_25
p3325
V6308
p3326
sg2615
Vnpc_dota_hero_axe
p3327
sVitem_wind_lace
p3328
V244
p3329
sVspecial_bonus_spell_lifesteal_10
p3330
V6564
p3331
sVtemplar_assassin_refraction
p3332
V5194
p3333
sVspecial_bonus_attack_range_150
p3334
V5963
p3335
sVnpc_dota_hero_weaver
p3336
g739
sVnpc_dota_neutral_mud_golem_split_doom
p3337
g817
sVdisruptor_thunder_strike
p3338
V5458
p3339
sVtiny_craggy_exterior
p3340
V5108
p3341
sVwarlock_rain_of_chaos
p3342
V5165
p3343
sVitem_recipe_invis_sword
p3344
V183
p3345
sVcourier_return_to_base
p3346
V5205
p3347
sVtreant_living_armor
p3348
V5436
p3349
sVjuggernaut_omni_slash
p3350
V5030
p3351
sVlife_stealer_control
p3352
V5655
p3353
sVmirana_arrow
p3354
V5048
p3355
sVnight_stalker_darkness
p3356
V5278
p3357
sVspecial_bonus_attack_speed_100
p3358
V6037
p3359
sVgnoll_assassin_envenomed_weapon
p3360
V5296
p3361
sVnpc_dota_hero_winter_wyvern
p3362
g2248
sVitem_heavens_halberd
p3363
V210
p3364
sVnpc_dota_beastmaster_boar_4
p3365
Vboar
p3366
sVspecial_bonus_all_stats_5
p3367
V5921
p3368
sVkeeper_of_the_light_mana_leak
p3369
V5472
p3370
sVancient_apparition_ice_vortex
p3371
V5346
p3372
sVspectre_desolate
p3373
V5335
p3374
sVbear_empty2
p3375
V83
p3376
sVbear_empty1
p3377
V82
p3378
sVspecial_bonus_all_stats_7
p3379
V6074
p3380
sVspecial_bonus_attack_damage_100
p3381
V5979
p3382
sVgreevil_decrepify
p3383
V5531
p3384
sVspecial_bonus_unique_earthshaker
p3385
V6035
p3386
sVnpc_dota_greevil_miniboss_green
p3387
g2190
sVroshan_halloween_burn
p3388
V9999
p3389
sg480
Vnpc_dota_hero_tusk
p3390
sVgreevil_poison_nova
p3391
V5546
p3392
sg133
g132
sg548
Vnpc_dota_hero_pugna
p3393
sVspecial_bonus_armor_10
p3394
V6004
p3395
sVspecial_bonus_unique_tinker
p3396
V6152
p3397
sVspecial_bonus_armor_12
p3398
V6286
p3399
sVspecial_bonus_armor_15
p3400
V6175
p3401
sg391
g3063
sVnpc_dota_hero_mirana
p3402
g1418
sVdoom_bringer_scorched_earth
p3403
V5340
p3404
sVspecial_bonus_mp_400
p3405
V6321
p3406
sg1207
Vnpc_dota_elder_titan_ancestral_spirit
p3407
sVearth_spirit_magnetize
p3408
V5612
p3409
sg658
g2868
sVbane_brain_sap
p3410
V5011
p3411
sVitem_phase_boots
p3412
V50
p3413
sg707
Vnpc_dota_badguys_siege_diretide
p3414
sVgreevil_miniboss_green_living_armor
p3415
V5570
p3416
sVbroodmother_spin_web
p3417
V5280
p3418
sg809
Vnpc_dota_warlock_golem_scepter_2
p3419
sVmud_golem_rock_destroy
p3420
V5667
p3421
sg815
Vnpc_dota_greevil_minion_black
p3422
sVogre_magi_multicast
p3423
V5441
p3424
sg1140
Vnpc_dota_eidolon
p3425
sVspecial_bonus_cleave_20
p3426
V6603
p3427
sVdrow_ranger_marksmanship
p3428
V5022
p3429
sVdoom_bringer_doom
p3430
V5342
p3431
sVspecial_bonus_cleave_25
p3432
V6801
p3433
sVpuck_phase_shift
p3434
V5072
p3435
sVitem_guardian_greaves
p3436
V231
p3437
sVitem_mask_of_madness
p3438
V172
p3439
sVitem_faerie_fire
p3440
V237
p3441
sVcentaur_khan_endurance_aura
p3442
V5294
p3443
sVtemplar_assassin_self_trap
p3444
V5199
p3445
sVnpc_dota_badguys_tower3_mid
p3446
Vtower
p3447
sVancient_apparition_ice_blast_release
p3448
V5349
p3449
sVnyx_assassin_burrow
p3450
V5666
p3451
sVspecial_bonus_cooldown_reduction_20
p3452
V5952
p3453
sVlich_frost_armor
p3454
V5135
p3455
sVearth_spirit_rolling_boulder
p3456
V5609
p3457
sVnecronomicon_archer_aoe
p3458
V5204
p3459
sVlegion_commander_duel
p3460
V5598
p3461
sVspecial_bonus_all_stats_20
p3462
V6309
p3463
sVnpc_dota_unit_undying_zombie
p3464
g2364
sVpugna_decrepify
p3465
V5187
p3466
sVspecial_bonus_unique_disruptor
p3467
V6215
p3468
sVitem_sphere
p3469
V123
p3470
sg1626
Vnpc_dota_observer_wards
p3471
sVgyrocopter_flak_cannon
p3472
V5363
p3473
sVcny_beast_teleport
p3474
V5665
p3475
sg2832
g947
sVnpc_dota_hero_tinker
p3476
g1175
sVitem_yasha
p3477
V170
p3478
sVsniper_take_aim
p3479
V5156
p3480
sVspecial_bonus_unique_wisp_5
p3481
V6924
p3482
sVspecial_bonus_unique_wisp_4
p3483
V6808
p3484
sVspecial_bonus_unique_wisp_3
p3485
V6659
p3486
sVspecial_bonus_unique_wisp_2
p3487
V6537
p3488
sVdark_willow_bedlam
p3489
V6340
p3490
sVitem_recipe_bloodstone
p3491
V120
p3492
sVnpc_dota_creep_goodguys_melee
p3493
g415
sVspecial_bonus_attack_speed_70
p3494
V6444
p3495
sVspecial_bonus_magic_resistance_80
p3496
V6965
p3497
sVlone_druid_savage_roar_bear
p3498
V5687
p3499
sVgreevil_miniboss_yellow_ion_shell
p3500
V5542
p3501
sVspecial_bonus_unique_shadow_demon_6
p3502
V7061
p3503
sVitem_recipe_silver_edge
p3504
V248
p3505
sVspecial_bonus_unique_shadow_demon_4
p3506
V6873
p3507
sVspecial_bonus_unique_shadow_demon_5
p3508
V7002
p3509
sVspecial_bonus_unique_shadow_demon_2
p3510
V6293
p3511
sVspecial_bonus_unique_shadow_demon_3
p3512
V6542
p3513
sVspecial_bonus_unique_shadow_demon_1
p3514
V6208
p3515
sVnpc_dota_neutral_prowler_acolyte
p3516
g1652
sVsilencer_global_silence
p3517
V5380
p3518
sg1597
g3085
sVbroodmother_spawn_spiderlings
p3519
V5279
p3520
sVitem_clarity
p3521
V38
p3522
sVspecial_bonus_unique_luna_1
p3523
V6180
p3524
sVspecial_bonus_unique_puck
p3525
V6219
p3526
sVspecial_bonus_unique_luna_3
p3527
V6682
p3528
sVspecial_bonus_unique_luna_4
p3529
V7047
p3530
sVspecial_bonus_unique_luna_5
p3531
V7055
p3532
sVenchantress_natures_attendants
p3533
V5269
p3534
sVmonkey_king_primal_spring
p3535
V5724
p3536
sVitem_recipe_magic_wand
p3537
V35
p3538
sVitem_recipe_shivas_guard
p3539
V118
p3540
sVitem_force_staff
p3541
V102
p3542
sVtechies_suicide
p3543
V5601
p3544
sVspecial_bonus_unique_oracle_4
p3545
V6970
p3546
sVspecial_bonus_unique_oracle_2
p3547
V6540
p3548
sVspecial_bonus_unique_oracle_3
p3549
V6710
p3550
sVspecial_bonus_movement_speed_50
p3551
V6306
p3552
sVcny2015_sonic_wave
p3553
V5662
p3554
sVspecial_bonus_unique_treant
p3555
V6024
p3556
sg2102
Vnpc_dota_necronomicon_archer_1
p3557
sVclinkz_death_pact
p3558
V5262
p3559
sg2153
Vnpc_dota_pugna_nether_ward_2
p3560
sVitem_travel_boots_2
p3561
V220
p3562
sVspecial_bonus_lifesteal_10
p3563
V6158
p3564
sVundying_decay
p3565
V5442
p3566
sVnpc_dota_hero_target_dummy
p3567
g2539
sVnpc_dota_hero_dragon_knight
p3568
g1477
sg2332
Vnpc_dota_neutral_black_dragon
p3569
sVnpc_dota_tusk_frozen_sigil4
p3570
g1145
sVearth_spirit_petrify
p3571
V5648
p3572
sVnpc_dota_tusk_frozen_sigil1
p3573
Vfrozen sigil
p3574
sVspecial_bonus_unique_timbersaw
p3575
V6223
p3576
sVnpc_dota_tusk_frozen_sigil2
p3577
Vfrozen sigil
p3578
sVspecial_bonus_respawn_reduction_25
p3579
V5954
p3580
sVwarlock_upheaval
p3581
V5164
p3582
sVspecial_bonus_respawn_reduction_20
p3583
V5953
p3584
sVlone_druid_spirit_bear_entangle
p3585
V5419
p3586
sVbounty_hunter_jinada
p3587
V5286
p3588
sVspecial_bonus_agility_8
p3589
V6014
p3590
sg2477
g2477
sVtusk_frozen_sigil
p3591
V5567
p3592
sg2499
Vnpc_dota_neutral_elder_jungle_stalker
p3593
sg2501
Vnpc_dota_furion_treant_large
p3594
sg2684
g1191
sVspecial_bonus_spell_lifesteal_6
p3595
V6817
p3596
sVitem_flask
p3597
V39
p3598
sg2081
g3010
sVspecial_bonus_spell_lifesteal_8
p3599
V6565
p3600
sVnyx_assassin_unburrow
p3601
V5673
p3602
sVgeneric_hidden
p3603
V6251
p3604
sVslark_essence_shift
p3605
V5496
p3606
sVnpc_dota_creep_goodguys_melee_upgraded_mega
p3607
Vmega melee creep
p3608
sVitem_recipe_ring_of_aquila
p3609
V211
p3610
sVspecial_bonus_hp_regen_15
p3611
V5914
p3612
sVjuggernaut_healing_ward
p3613
V5029
p3614
sVspecial_bonus_hp_regen_12
p3615
V6730
p3616
sVleshrac_diabolic_edict
p3617
V5242
p3618
sVspecial_bonus_hp_regen_10
p3619
V5912
p3620
sVnecrolyte_sadist_stop
p3621
V6316
p3622
sVspecial_bonus_unique_undying_3
p3623
V6546
p3624
sVspecial_bonus_unique_undying_2
p3625
V6420
p3626
sVbrewmaster_thunder_clap
p3627
V5400
p3628
sVspecial_bonus_unique_undying_5
p3629
V6972
p3630
sVspecial_bonus_unique_undying_4
p3631
V6971
p3632
sVspecial_bonus_unique_doom_1
p3633
V6073
p3634
sVspecial_bonus_unique_doom_3
p3635
V6369
p3636
sVspecial_bonus_unique_doom_2
p3637
V6314
p3638
sVspecial_bonus_mp_1000
p3639
V6686
p3640
sVspecial_bonus_unique_doom_4
p3641
V6370
p3642
sVspecial_bonus_hp_125
p3643
V5901
p3644
sg438
g2977
sg85
g84
sVstorm_spirit_ball_lightning
p3645
V5101
p3646
sVitem_recipe_crimson_guard
p3647
V243
p3648
sVitem_ward_sentry
p3649
V43
p3650
sVgreevil_maledict
p3651
V5533
p3652
sVlion_voodoo
p3653
V5045
p3654
sVhuskar_inner_vitality
p3655
V5271
p3656
sg569
Vnpc_dota_badguys_range_rax_mid
p3657
sVspecial_bonus_unique_puck_3
p3658
V6855
p3659
sVspecial_bonus_unique_puck_2
p3660
V6402
p3661
sVspecial_bonus_unique_puck_4
p3662
V7057
p3663
sVchaos_knight_phantasm
p3664
V5429
p3665
sVghost_frost_attack
p3666
V5301
p3667
sVitem_bottle
p3668
V41
p3669
sVspecial_bonus_unique_riki_5
p3670
V6867
p3671
sVspecial_bonus_unique_riki_4
p3672
V6866
p3673
sVspecial_bonus_attack_damage_55
p3674
V6396
p3675
sVspecial_bonus_unique_riki_1
p3676
V6330
p3677
sVspecial_bonus_attack_damage_50
p3678
V5941
p3679
sVspecial_bonus_unique_riki_2
p3680
V6193
p3681
sg2443
Vnpc_dota_hero_beastmaster
p3682
sVspecial_bonus_unique_tiny_4
p3683
V6934
p3684
sVspecial_bonus_unique_tiny_5
p3685
V7005
p3686
sVspecial_bonus_attack_damage_150
p3687
V6247
p3688
sVspecial_bonus_unique_tiny_2
p3689
V6932
p3690
sVspecial_bonus_unique_tiny_3
p3691
V6933
p3692
sg2938
g427
sVkeeper_of_the_light_illuminate_end
p3693
V5477
p3694
sg944
Vnpc_dota_neutral_gnoll_assassin
p3695
sVspecial_bonus_night_vision_1000
p3696
V6888
p3697
sVspecial_bonus_armor_20
p3698
V6503
p3699
sg389
g3245
sVnpc_dota_beastmaster_hawk_2
p3700
g2503
sVnpc_dota_beastmaster_hawk_3
p3701
Vhawk
p3702
sg876
Vnpc_dota_hero_troll_warlord
p3703
sVspecial_bonus_unique_doom_5
p3704
V6371
p3705
sVlegion_commander_overwhelming_odds
p3706
V5595
p3707
sVspecial_bonus_mana_break_40
p3708
V6695
p3709
sVspecial_bonus_attack_speed_120
p3710
V6650
p3711
sVtiny_grow
p3712
V5109
p3713
sVitem_ward_dispenser
p3714
V218
p3715
sVbrewmaster_earth_pulverize
p3716
V5406
p3717
sVnpc_dota_badguys_tower2_mid
p3718
Vtower
p3719
sg3407
g1207
sVspecial_bonus_mp_700
p3720
V7059
p3721
sVnpc_dota_creep_goodguys_melee_upgraded
p3722
g1434
sVspecial_bonus_mp_250
p3723
V6006
p3724
sVtreant_eyes_in_the_forest
p3725
V5649
p3726
sVphoenix_sun_ray_stop
p3727
V5627
p3728
sVlife_stealer_feast
p3729
V5250
p3730
sVspecial_bonus_unique_slardar_2
p3731
V6889
p3732
sVspecial_bonus_unique_slardar_3
p3733
V6890
p3734
sVspecial_bonus_unique_kunkka_3
p3735
V6666
p3736
sVspecial_bonus_unique_kunkka_2
p3737
V6385
p3738
sVspecial_bonus_unique_kunkka_4
p3739
V6667
p3740
sVpangolier_shield_crash
p3741
V6461
p3742
sg1436
g1436
sVspecial_bonus_gold_income_5
p3743
V5955
p3744
sg1438
Vnpc_dota_hero_life_stealer
p3745
sVspecial_bonus_unique_templar_assassin_4
p3746
V6939
p3747
sVroshan_halloween_spell_block
p3748
V5618
p3749
sVspecial_bonus_cleave_15
p3750
V6845
p3751
sVnpc_dota_courier
p3752
g1725
sg45
g44
sVtusk_ice_shards
p3753
V5565
p3754
sVnpc_dota_neutral_rock_golem
p3755
g624
sg3173
g690
sVspecial_bonus_cooldown_reduction_30
p3756
V6561
p3757
sVspecial_bonus_unique_dark_seer_3
p3758
V6624
p3759
sVspecial_bonus_unique_dark_seer_2
p3760
V6365
p3761
sVspecial_bonus_unique_dark_seer_4
p3762
V7046
p3763
sVgreevil_miniboss_blue_cold_feet
p3764
V5538
p3765
sVspecial_bonus_strength_25
p3766
V5984
p3767
sVnaga_siren_mirror_image
p3768
V5467
p3769
sVspecial_bonus_strength_20
p3770
V6080
p3771
sVnpc_dota_goodguys_range_rax_top
p3772
Vranged barracks
p3773
sVarc_warden_tempest_double
p3774
V5683
p3775
sVdazzle_shallow_grave
p3776
V5234
p3777
sVspecial_bonus_attack_speed_60
p3778
V5908
p3779
sVspecial_bonus_night_vision_400
p3780
V6920
p3781
sg1725
g3752
sVspecial_bonus_unique_pangolier_4
p3782
V9061
p3783
sVspecial_bonus_unique_pangolier_5
p3784
V9062
p3785
sVspecial_bonus_unique_pangolier_2
p3786
V6463
p3787
sVspecial_bonus_unique_pangolier_3
p3788
V9060
p3789
sVspecial_bonus_unique_enigma_3
p3790
V6649
p3791
sVspecial_bonus_unique_enigma_2
p3792
V6510
p3793
sVbatrider_flaming_lasso
p3794
V5323
p3795
sVnpc_dota_necronomicon_archer_2
p3796
g2102
sVearthshaker_echo_slam
p3797
V5026
p3798
sg3557
Vnecronomicon archer
p3799
sVspecial_bonus_unique_treant_2
p3800
V6531
p3801
sVspecial_bonus_unique_treant_3
p3802
V6955
p3803
sg1663
Vnpc_dota_neutral_centaur_khan
p3804
sVphoenix_sun_ray
p3805
V5626
p3806
sVspecial_bonus_unique_treant_4
p3807
V6956
p3808
sVspecial_bonus_unique_treant_5
p3809
V6957
p3810
sg178
g177
sVtidehunter_kraken_shell
p3811
V5119
p3812
sVkunkka_ghostship
p3813
V5035
p3814
sVitem_mystic_staff
p3815
V58
p3816
sg2063
g2957
sVmonkey_king_jingu_mastery
p3817
V5723
p3818
sg2105
g2105
sVspecial_bonus_unique_batrider_1
p3819
V6087
p3820
sVspecial_bonus_unique_batrider_3
p3821
V6610
p3822
sVspecial_bonus_unique_batrider_2
p3823
V6229
p3824
sg3067
g1369
sVabyssal_underlord_dark_rift
p3825
V5616
p3826
sVspecial_bonus_unique_dazzle_2
p3827
V6232
p3828
sVspecial_bonus_unique_dazzle_3
p3829
V6528
p3830
sVspecial_bonus_unique_dazzle_4
p3831
V6626
p3832
sVqueenofpain_sonic_wave
p3833
V5176
p3834
sVitem_tango_single
p3835
V241
p3836
sVitem_maelstrom
p3837
V166
p3838
sg2229
Vnpc_dota_neutral_wildkin
p3839
sg317
g316
sVbig_thunder_lizard_wardrums_aura
p3840
V5682
p3841
sVwarlock_fatal_bonds
p3842
V5162
p3843
sVnpc_dota_roshan
p3844
g1532
sVkeeper_of_the_light_blinding_light
p3845
V5476
p3846
sVspecial_bonus_30_crit_2
p3847
V6851
p3848
sVitem_recipe_dagon_3
p3849
V198
p3850
sVdragon_knight_breathe_fire
p3851
V5226
p3852
sVspecial_bonus_movement_speed_20
p3853
V5918
p3854
sVspecial_bonus_movement_speed_25
p3855
V5919
p3856
sVarc_warden_spark_wraith
p3857
V5679
p3858
sg2408
Vnpc_dota_enraged_wildkin_tornado
p3859
sg2411
Vnpc_dota_hero_leshrac
p3860
sVskywrath_mage_concussive_shot
p3861
V5582
p3862
sVitem_headdress
p3863
V94
p3864
sVsven_gods_strength
p3865
V5097
p3866
sVspecial_bonus_respawn_reduction_15
p3867
V5975
p3868
sVnecrolyte_death_pulse
p3869
V5158
p3870
sVspecial_bonus_unique_furion
p3871
V6084
p3872
sVsven_great_cleave
p3873
V5095
p3874
sVtreant_overgrowth
p3875
V5437
p3876
sVundying_tombstone_zombie_aura
p3877
V5445
p3878
sVitem_aether_lens
p3879
V232
p3880
sVspecial_bonus_spell_lifesteal_13
p3881
V6560
p3882
sVspecial_bonus_spell_lifesteal_15
p3883
V6550
p3884
sVnpc_dota_badguys_tower3_bot
p3885
Vtower
p3886
sVnight_stalker_hunter_in_the_night
p3887
V5277
p3888
sVshadow_shaman_ether_shock
p3889
V5078
p3890
sVphoenix_icarus_dive_stop
p3891
V5624
p3892
sVnpc_dota_wraith_king_skeleton_warrior
p3893
g632
sVnpc_dota_badguys_tower2_top
p3894
g2389
sVfurion_wrath_of_nature
p3895
V5248
p3896
sVnpc_dota_hero_naga_siren
p3897
g364
sVnpc_dota_hero_doom_bringer
p3898
g1851
sg1457
g1457
sVnpc_dota_brewmaster_fire_3
p3899
Vfire
p3900
sVfurion_force_of_nature
p3901
V5247
p3902
sVitem_recipe_headdress
p3903
V93
p3904
sVmirana_invis
p3905
V5049
p3906
sVspecial_bonus_hp_600
p3907
V6377
p3908
sVitem_recipe_sphere
p3909
V122
p3910
sVrubick_hidden1
p3911
V5455
p3912
sVspecial_bonus_unique_rubick
p3913
V6041
p3914
sVrubick_hidden3
p3915
V5457
p3916
sVrubick_hidden2
p3917
V5456
p3918
sVlina_laguna_blade
p3919
V5043
p3920
sVinvoker_tornado
p3921
V5382
p3922
sVsilencer_last_word
p3923
V5379
p3924
sVnpc_dota_goodguys_siege_diretide
p3925
g707
sVitem_recipe_pipe
p3926
V89
p3927
sg3745
g1438
sVspecial_bonus_unique_monkey_king_2
p3928
V6421
p3929
sVspecial_bonus_unique_monkey_king_3
p3930
V6696
p3931
sVspecial_bonus_unique_monkey_king_4
p3932
V6697
p3933
sVspecial_bonus_unique_monkey_king_5
p3934
V7024
p3935
sVspecial_bonus_unique_monkey_king_6
p3936
V7025
p3937
sVspecial_bonus_unique_monkey_king_7
p3938
V7038
p3939
sg1082
g2870
sVspecial_bonus_armor_3
p3940
V5930
p3941
sVspecial_bonus_armor_2
p3942
V6110
p3943
sVspecial_bonus_armor_5
p3944
V5932
p3945
sVspecial_bonus_armor_4
p3946
V5931
p3947
sVspecial_bonus_armor_7
p3948
V5970
p3949
sVspecial_bonus_armor_6
p3950
V5933
p3951
sVspecial_bonus_armor_9
p3952
V6136
p3953
sVspecial_bonus_armor_8
p3954
V5934
p3955
sVnpc_dota_creep_goodguys_ranged_upgraded_mega
p3956
g395
sg1434
g2781
sVitem_recipe_dagon
p3957
V103
p3958
sVnpc_dota_roshan_halloween
p3959
Vroshan
p3960
sg2715
g1564
sVnecronomicon_archer_mana_burn
p3961
V5203
p3962
sVspecial_bonus_unique_ancient_apparition_5
p3963
V6810
p3964
sVroshan_halloween_toss
p3965
V9995
p3966
sg2954
g1173
sVnpc_dota_hero_warlock
p3967
g1687
sVabaddon_aphotic_shield
p3968
V5586
p3969
sVspecial_bonus_movement_speed_100
p3970
V6422
p3971
sVspecial_bonus_unique_spectre_5
p3972
V6903
p3973
sVspecial_bonus_unique_spectre_4
p3974
V6902
p3975
sVspecial_bonus_unique_spectre_3
p3976
V6901
p3977
sVspecial_bonus_unique_spectre_2
p3978
V6900
p3979
sVspecial_bonus_unique_jakiro_3
p3980
V6538
p3981
sVogre_magi_frost_armor
p3982
V5304
p3983
sVitem_recipe_lotus_orb
p3984
V221
p3985
sVspecial_bonus_attack_damage_45
p3986
V6253
p3987
sVitem_recipe_meteor_hammer
p3988
V222
p3989
sVspecial_bonus_attack_damage_40
p3990
V5940
p3991
sVnevermore_dark_lord
p3992
V5063
p3993
sVenraged_wildkin_tornado
p3994
V5312
p3995
sVmagnataur_skewer
p3996
V5520
p3997
sVnpc_dota_zeus_cloud
p3998
g2337
sg1017
g2962
sVtusk_walrus_kick
p3999
V5672
p4000
sVmedusa_stone_gaze
p4001
V5507
p4002
sVspecial_bonus_attack_speed_30
p4003
V5907
p4004
sVpugna_nether_ward
p4005
V5188
p4006
sVnpc_dota_creep_badguys_melee
p4007
Vmelee creep
p4008
sVspecial_bonus_cast_range_400
p4009
V6384
p4010
sVspecial_bonus_unique_jakiro_2
p4011
V6381
p4012
sVjakiro_macropyre
p4013
V5300
p4014
sVspecial_bonus_unique_beastmaster_4
p4015
V6612
p4016
sVspecial_bonus_unique_beastmaster_2
p4017
V6517
p4018
sVspecial_bonus_unique_beastmaster_3
p4019
V6611
p4020
sVdark_willow_shadow_realm
p4021
V6341
p4022
sVspecial_bonus_armor_30
p4023
V6645
p4024
sVmorphling_replicate
p4025
V5057
p4026
sVbrewmaster_storm_wind_walk
p4027
V5410
p4028
sVenigma_malefice
p4029
V5146
p4030
sVnpc_dota_venomancer_plague_ward_3
p4031
g636
sVnpc_dota_venomancer_plague_ward_2
p4032
Vplague ward
p4033
sVnpc_dota_venomancer_plague_ward_1
p4034
Vplague ward
p4035
sVblue_dragonspawn_overseer_evasion
p4036
V5326
p4037
sVnpc_dota_venomancer_plague_ward_4
p4038
Vplague ward
p4039
sVlina_fiery_soul
p4040
V5042
p4041
sVshadow_demon_soul_catcher
p4042
V5422
p4043
sVrazor_eye_of_the_storm
p4044
V5085
p4045
sVterrorblade_reflection
p4046
V5619
p4047
sVitem_desolator
p4048
V168
p4049
sVitem_manta
p4050
V147
p4051
sVkeeper_of_the_light_chakra_magic
p4052
V5473
p4053
sVnpc_dota_neutral_ogre_mauler
p4054
g1762
sVkunkka_return
p4055
V5034
p4056
sg1530
g1530
sg1567
Vnpc_dota_beastmaster_boar_3
p4057
sVspecial_bonus_unique_tusk
p4058
V6194
p4059
sVspecial_bonus_hp_regen_7
p4060
V5966
p4061
sVspecial_bonus_hp_regen_6
p4062
V5969
p4063
sVspecial_bonus_hp_regen_5
p4064
V5910
p4065
sVspecial_bonus_hp_regen_4
p4066
V5909
p4067
sVspecial_bonus_unique_jakiro_4
p4068
V6661
p4069
sVspecial_bonus_hp_regen_8
p4070
V5911
p4071
sVinvoker_ice_wall
p4072
V5389
p4073
sVspecial_bonus_unique_alchemist
p4074
V6101
p4075
sVaxe_berserkers_call
p4076
V5007
p4077
sVspecial_bonus_unique_omniknight_4
p4078
V7010
p4079
sVspecial_bonus_evasion_10
p4080
V5971
p4081
sVshredder_whirling_death
p4082
V5524
p4083
sVspecial_bonus_unique_clockwerk_2
p4084
V6364
p4085
sVspecial_bonus_unique_alchemist_3
p4086
V6604
p4087
sVspecial_bonus_unique_silencer_4
p4088
V6880
p4089
sVspecial_bonus_unique_silencer_3
p4090
V6879
p4091
sVspecial_bonus_unique_alchemist_4
p4092
V7054
p4093
sg4057
Vboar
p4094
sVnpc_dota_beastmaster_boar_2
p4095
Vboar
p4096
sVdrow_ranger_frost_arrows
p4097
V5019
p4098
sVwisp_tether
p4099
V5485
p4100
sVnpc_dota_hero_skywrath_mage
p4101
g2507
sVnevermore_shadowraze1
p4102
V5059
p4103
sVnevermore_shadowraze3
p4104
V5061
p4105
sVnevermore_shadowraze2
p4106
V5060
p4107
sVspecial_bonus_unique_queen_of_pain
p4108
V6407
p4109
sVkunkka_x_marks_the_spot
p4110
V5033
p4111
sVspecial_bonus_unique_lion
p4112
V6174
p4113
sVgreevil_shadow_wave
p4114
V5556
p4115
sVspecial_bonus_strength_30
p4116
V6708
p4117
sVdark_willow_bramble_maze
p4118
V6339
p4119
sVspecial_bonus_attack_speed_10
p4120
V6118
p4121
sVspecial_bonus_attack_speed_15
p4122
V6119
p4123
sVdeath_prophet_silence
p4124
V5091
p4125
sVspecial_bonus_magic_resistance_100
p4126
V6874
p4127
sVpangolier_gyroshell_stop
p4128
V6459
p4129
sg2364
Vnpc_dota_unit_undying_zombie_torso
p4130
sVitem_hurricane_pike
p4131
V263
p4132
sVnpc_dota_earth_spirit_stone
p4133
g564
sVskeleton_king_hellfire_blast
p4134
V5086
p4135
sVember_spirit_fire_remnant
p4136
V5606
p4137
sVnpc_dota_hero_bristleback
p4138
g2047
sVspirit_breaker_nether_strike
p4139
V5356
p4140
sVancient_apparition_ice_blast
p4141
V5348
p4142
sVsilencer_curse_of_the_silent
p4143
V5377
p4144
sVspecial_bonus_cast_range_250
p4145
V6161
p4146
sVnpc_dota_hero_drow_ranger
p4147
g1001
sg3324
g715
sVchaos_knight_chaos_strike
p4148
V5428
p4149
sVmorphling_morph_replicate
p4150
V5058
p4151
sVgreevil_magic_missile
p4152
V5529
p4153
sg3425
g1140
sg590
Vnpc_dota_hero_bane
p4154
sVantimage_mana_void
p4155
V5006
p4156
sg2577
Vnpc_dota_hero_bounty_hunter
p4157
sVspecial_bonus_unique_lion_2
p4158
V6389
p4159
sVspecial_bonus_unique_lion_3
p4160
V6600
p4161
sVspecial_bonus_unique_lion_4
p4162
V6678
p4163
sVspirit_breaker_empowering_haste
p4164
V5354
p4165
sg2314
Vnpc_dota_hero_arc_warden
p4166
sVspecial_bonus_movement_speed_30
p4167
V6141
p4168
sVspecial_bonus_movement_speed_35
p4169
V6077
p4170
sVspecial_bonus_unique_sven_2
p4171
V6910
p4172
sVspecial_bonus_unique_sven_3
p4173
V6911
p4174
sVclinkz_searing_arrows
p4175
V5260
p4176
sVitem_river_painter3
p4177
V1023
p4178
sVgreevil_miniboss_yellow_surge
p4179
V5543
p4180
sVnpc_dota_badguys_range_rax_top
p4181
Vranged barracks
p4182
sVtornado_tempest
p4183
V5310
p4184
sVnecronomicon_warrior_sight
p4185
V5201
p4186
sVspecial_bonus_20_bash_2
p4187
V6025
p4188
sVitem_recipe_monkey_king_bar
p4189
V134
p4190
sVspecial_bonus_spell_amplify_20
p4191
V6236
p4192
sVpangolier_heartpiercer
p4193
V6346
p4194
sVspecial_bonus_spell_amplify_25
p4195
V6327
p4196
sg2339
g3065
sg2766
g381
sVspecial_bonus_unique_juggernaut_2
p4197
V6662
p4198
sVspecial_bonus_unique_juggernaut_3
p4199
V7021
p4200
sVspecial_bonus_unique_bloodseeker
p4201
V6230
p4202
sVlone_druid_savage_roar
p4203
V5414
p4204
sVitem_bloodstone
p4205
V121
p4206
sVtroll_warlord_berserkers_rage
p4207
V5508
p4208
sVspecial_bonus_exp_boost_10
p4209
V5985
p4210
sVsandking_epicenter
p4211
V5105
p4212
sVspecial_bonus_exp_boost_15
p4213
V5986
p4214
sVember_spirit_searing_chains
p4215
V5603
p4216
sVspectre_reality
p4217
V5338
p4218
sVfurion_sprout
p4219
V5245
p4220
sg63
g62
sVobsidian_destroyer_essence_aura
p4221
V5393
p4222
sVgreevil_miniboss_sight
p4223
V5576
p4224
sg734
Vnpc_dota_greevil_miniboss_orange
p4225
sg2389
g3885
sVnpc_dota_loot_greevil
p4226
g2330
sVbeastmaster_primal_roar
p4227
V5177
p4228
sVtusk_ice_shards_stop
p4229
V5668
p4230
sVspecial_bonus_unique_winter_wyvern_2
p4231
V6297
p4232
sVspecial_bonus_unique_winter_wyvern_3
p4233
V6523
p4234
sVnecrolyte_heartstopper_aura
p4235
V5159
p4236
sg499
g499
sVgreevil_bloodlust
p4237
V5560
p4238
sVitem_ring_of_health
p4239
V56
p4240
sg4154
g590
sVitem_recipe_hand_of_midas
p4241
V64
p4242
sg105
g104
sg923
g2733
sVskeleton_king_vampiric_aura
p4243
V5087
p4244
sVspecial_bonus_hp_700
p4245
V6415
p4246
sVitem_recipe_cyclone
p4247
V99
p4248
sg1043
g2998
sVomniknight_degen_aura
p4249
V5265
p4250
sVtechies_remote_mines_self_detonate
p4251
V5636
p4252
sVnecronomicon_warrior_mana_burn
p4253
V5202
p4254
sg711
g2695
sVbane_nightmare_end
p4255
V5523
p4256
sVspecial_bonus_unique_skywrath
p4257
V6181
p4258
sg1212
Vnpc_dota_greevil_minion_orange
p4259
sg1232
Vnpc_dota_hero_pangolier
p4260
sg1281
Vnpc_dota_hero_elder_titan
p4261
sg3593
g2499
sVroshan_halloween_levels
p4262
V10000
p4263
sVspecial_bonus_attack_damage_75
p4264
V5942
p4265
sVnpc_dota_templar_assassin_psionic_trap
p4266
g1603
sVlycan_summon_wolves
p4267
V5395
p4268
sVlife_stealer_assimilate_eject
p4269
V5675
p4270
sVwitch_doctor_maledict
p4271
V5140
p4272
sVitem_recipe_abyssal_blade
p4273
V207
p4274
sg1477
g3568
sVspawnlord_master_bash
p4275
V6126
p4276
sVbristleback_viscous_nasal_goo
p4277
V5548
p4278
sVmorphling_morph_str
p4279
V5056
p4280
sVitem_aeon_disk
p4281
V256
p4282
sVancient_apparition_cold_feet
p4283
V5345
p4284
sVitem_reaver
p4285
V53
p4286
sg1572
g3207
sVspecial_bonus_evasion_12
p4287
V6239
p4288
sg2926
g1059
sVspecial_bonus_all_stats_15
p4289
V6135
p4290
sVspecial_bonus_all_stats_14
p4291
V6252
p4292
sVspecial_bonus_all_stats_10
p4293
V6168
p4294
sVspecial_bonus_all_stats_12
p4295
V6139
p4296
sVitem_echo_sabre
p4297
V252
p4298
sg1606
Vnpc_dota_goodguys_cny_beast
p4299
sVinvoker_alacrity
p4300
V5384
p4301
sVitem_helm_of_the_dominator
p4302
V164
p4303
sVhuskar_burning_spear
p4304
V5272
p4305
sg25
g24
sg2889
g789
sVspecial_bonus_unique_lina_4
p4306
V6509
p4307
sVitem_recipe_basher
p4308
V142
p4309
sVspecial_bonus_unique_lina_1
p4310
V6212
p4311
sVspecial_bonus_unique_lina_2
p4312
V6313
p4313
sVspecial_bonus_unique_lina_3
p4314
V6388
p4315
sVundying_tombstone_zombie_deathstrike
p4316
V5446
p4317
sVnpc_dota_hero_abaddon
p4318
g674
sVtreant_leech_seed
p4319
V5435
p4320
sVnpc_dota_hero_ember_spirit
p4321
g638
sVabyssal_underlord_cancel_dark_rift
p4322
V5617
p4323
sVnpc_dota_neutral_kobold
p4324
g630
sVitem_refresher
p4325
V110
p4326
sg2931
g432
sVphoenix_launch_fire_spirit
p4327
V5631
p4328
sg3703
g876
sVspecial_bonus_evasion_15
p4329
V5972
p4330
sVcourier_shield
p4331
V5209
p4332
sg2029
Vnpc_dota_sentry_wards
p4333
sVspecial_bonus_evasion_25
p4334
V5974
p4335
sVitem_blight_stone
p4336
V240
p4337
sVspecial_bonus_evasion_20
p4338
V5973
p4339
sg293
g292
sVitem_crimson_guard
p4340
V242
p4341
sg2107
g3042
sVspecial_bonus_unique_silencer_5
p4342
V7048
p4343
sg2137
Vnpc_dota_hero_nevermore
p4344
sVspecial_bonus_unique_alchemist_2
p4345
V6350
p4346
sVnpc_dota_goodguys_tower4
p4347
Vtower
p4348
sVnpc_dota_beastmaster_boar_1
p4349
g1567
sVspecial_bonus_unique_silencer_2
p4350
V6878
p4351
sVomniknight_purification
p4352
V5263
p4353
sg2264
Vnpc_dota_hero_shredder
p4354
sg3208
g1313
sVcny2015_chronosphere
p4355
V5664
p4356
sVspecial_bonus_mp_600
p4357
V6382
p4358
sVitem_recipe_heavens_halberd
p4359
V209
p4360
sVjakiro_liquid_fire
p4361
V5299
p4362
sg1632
Vnpc_dota_neutral_big_thunder_lizard
p4363
sVqueenofpain_blink
p4364
V5174
p4365
sVterrorblade_metamorphosis
p4366
V5621
p4367
sVelder_titan_ancestral_spirit
p4368
V5591
p4369
sg2368
Vnpc_dota_hero_ogre_magi
p4370
sVgreevil_black_hole
p4371
V5569
p4372
sVspecial_bonus_mp_100
p4373
V6096
p4374
sg3657
Vranged barracks
p4375
sVspecial_bonus_unique_legion_commander_4
p4376
V6671
p4377
sVspecial_bonus_unique_legion_commander_3
p4378
V6526
p4379
sVspecial_bonus_unique_legion_commander_2
p4380
V6449
p4381
sVspecial_bonus_unique_phantom_lancer_3
p4382
V6849
p4383
sVspecial_bonus_unique_phantom_lancer_2
p4384
V6400
p4385
sVspecial_bonus_attack_damage_35
p4386
V6164
p4387
sVnpc_dota_dark_troll_warlord_skeleton_warrior
p4388
g2459
sVnpc_dota_hero_crystal_maiden
p4389
g2298
sVnpc_dota_hero_brewmaster
p4390
g1925
sg1722
Vnpc_dota_goodguys_fillers
p4391
sVinvoker_deafening_blast
p4392
V5390
p4393
sg2330
g4226
sVnpc_dota_badguys_fort
p4394
g1666
sg415
g4007
sVember_spirit_sleight_of_fist
p4395
V5604
p4396
sVspecial_bonus_unique_keeper_of_the_light_2
p4397
V6527
p4398
sVspecial_bonus_unique_keeper_of_the_light_3
p4399
V6665
p4400
sVnpc_dota_greevil_minion_green
p4401
g2362
sVwisp_overcharge
p4402
V5487
p4403
sg393
g393
sVnpc_dota_goodguys_melee_rax_bot
p4404
Vmelee barracks
p4405
sVitem_meteor_hammer
p4406
V223
p4407
sVdark_seer_ion_shell
p4408
V5256
p4409
sVspecial_bonus_unique_troll_warlord
p4410
V6154
p4411
sVnaga_siren_song_of_the_siren_cancel
p4412
V5478
p4413
sVnpc_dota_visage_familiar3
p4414
Vfamiliar
p4415
sg59
g58
sVspecial_bonus_unique_faceless_void_4
p4416
V7001
p4417
sVaxe_counter_helix
p4418
V5009
p4419
sVclinkz_strafe
p4420
V5259
p4421
sVnpc_dota_visage_familiar2
p4422
g2359
sVnpc_dota_warlock_golem_scepter_3
p4423
g809
sVursa_earthshock
p4424
V5357
p4425
sVspecial_bonus_unique_faceless_void_2
p4426
V6651
p4427
sVspecial_bonus_unique_faceless_void_3
p4428
V6807
p4429
sVdark_seer_wall_of_replica
p4430
V5258
p4431
sVobsidian_destroyer_mind_over_matter
p4432
V5684
p4433
sVslark_shadow_dance
p4434
V5497
p4435
sg572
Vnpc_dota_hero_witch_doctor
p4436
sVundying_flesh_golem
p4437
V5447
p4438
sVitem_recipe_solar_crest
p4439
V227
p4440
sVphantom_lancer_doppelwalk
p4441
V5066
p4442
sVcentaur_stampede
p4443
V5517
p4444
sVabaddon_death_coil
p4445
V5585
p4446
sVspecial_bonus_unique_kunkka
p4447
V6089
p4448
sVspecial_bonus_unique_slardar
p4449
V6211
p4450
sVitem_lesser_crit
p4451
V149
p4452
sg674
g4318
sVlife_stealer_consume
p4453
V5253
p4454
sVitem_dagon
p4455
V104
p4456
sVnpc_dota_greater_hawk
p4457
g806
sVspecial_bonus_spell_lifesteal_30
p4458
V6513
p4459
sg771
g3215
sVitem_recipe_ring_of_basilius
p4460
V87
p4461
sVfaceless_void_chronosphere
p4462
V5185
p4463
sVbeastmaster_call_of_the_wild
p4464
V5169
p4465
sVcrystal_maiden_crystal_nova
p4466
V5126
p4467
sVlone_druid_true_form
p4468
V5415
p4469
sVember_spirit_activate_fire_remnant
p4470
V5607
p4471
sVspecial_bonus_unique_ursa
p4472
V6132
p4473
sg3839
g2229
sVspecial_bonus_unique_dark_seer
p4474
V6047
p4475
sVkeeper_of_the_light_recall
p4476
V5475
p4477
sg907
Vnpc_dota_hero_disruptor
p4478
sVspecial_bonus_exp_boost_25
p4479
V5987
p4480
sVslark_dark_pact
p4481
V5494
p4482
sVspecial_bonus_exp_boost_20
p4483
V6017
p4484
sVobsidian_destroyer_sanity_eclipse
p4485
V5394
p4486
sVdoom_bringer_infernal_blade
p4487
V5341
p4488
sg978
Vnpc_dota_lone_druid_bear1
p4489
sVitem_diffusal_blade
p4490
V174
p4491
sg999
g3300
sg1001
g4147
sVskeleton_king_mortal_strike
p4492
V5088
p4493
sg2925
g1977
sVslark_pounce
p4494
V5495
p4495
sg1165
g1165
sg246
g245
sg1214
Vnpc_dota_hero_huskar
p4496
sg1230
g1230
sVspecial_bonus_unique_elder_titan_2
p4497
V6378
p4498
sVspecial_bonus_unique_elder_titan_3
p4499
V6720
p4500
sVursa_overpower
p4501
V5358
p4502
sVitem_recipe_veil_of_discord
p4503
V189
p4504
sg1923
g1923
sg307
g306
sVnpc_dota_badguys_tower1_top
p4505
Vtower
p4506
sg1418
g3402
sVitem_recipe_rapier
p4507
V132
p4508
sg2849
g474
sVbroodmother_incapacitating_bite
p4509
V5281
p4510
sVspecial_bonus_unique_keeper_of_the_light
p4511
V6217
p4512
sVspecial_bonus_unique_zeus_3
p4513
V6518
p4514
sVspecial_bonus_unique_zeus_2
p4515
V6501
p4516
sVitem_ethereal_blade
p4517
V176
p4518
sVspecial_bonus_hp_400
p4519
V5976
p4520
sVspecial_bonus_attack_damage_65
p4521
V6142
p4522
sVspecial_bonus_hp_150
p4523
V5902
p4524
sVspecial_bonus_attack_damage_60
p4525
V6366
p4526
sVspecial_bonus_cast_range_75
p4527
V5947
p4528
sVcentaur_hoof_stomp
p4529
V5514
p4530
sg1080
g1080
sVmonkey_king_tree_dance
p4531
V5721
p4532
sVnpc_dota_goodguys_tower1_top
p4533
Vtower
p4534
sVcny_beast_force_attack
p4535
V5661
p4536
sVnpc_dota_witch_doctor_death_ward
p4537
g1796
sVnpc_dota_techies_land_mine
p4538
g434
sg2734
g1249
sg2337
g3998
sVspecial_bonus_all_stats_8
p4539
V5923
p4540
sVspecial_bonus_unique_necrophos
p4541
V6010
p4542
sVspecial_bonus_agility_40
p4543
V6430
p4544
sVspecial_bonus_all_stats_4
p4545
V5920
p4546
sVlycan_summon_wolves_critical_strike
p4547
V5399
p4548
sVspecial_bonus_all_stats_6
p4549
V5922
p4550
sVkeeper_of_the_light_illuminate
p4551
V5471
p4552
sVweaver_geminate_attack
p4553
V5291
p4554
sVwisp_tether_break
p4555
V5489
p4556
sg1960
g1960
sVitem_invis_sword
p4557
V152
p4558
sVgyrocopter_homing_missile
p4559
V5362
p4560
sVspecial_bonus_unique_brewmaster_2
p4561
V6359
p4562
sVspecial_bonus_unique_brewmaster_3
p4563
V6516
p4564
sg501
g2673
sVnpc_dota_goodguys_melee_rax_top
p4565
Vmelee barracks
p4566
sVnyx_assassin_spiked_carapace
p4567
V5464
p4568
sVspecial_bonus_unique_brewmaster_4
p4569
V6614
p4570
sVnevermore_requiem
p4571
V5064
p4572
sg2086
Vnpc_dota_hero_visage
p4573
sg806
g4457
sVitem_magic_stick
p4574
V34
p4575
sVitem_glimmer_cape
p4576
V254
p4577
sVspecial_bonus_cooldown_reduction_50
p4578
V6804
p4579
sVtusk_snowball
p4580
V5566
p4581
sVitem_ogre_axe
p4582
V21
p4583
sVmonkey_king_untransform
p4584
V5722
p4585
sg2232
Vnpc_dota_hero_dazzle
p4586
sg2248
g3362
sVwisp_spirits_in
p4587
V5490
p4588
sVnpc_dota_badguys_tower4
p4589
Vtower
p4590
sValchemist_unstable_concoction
p4591
V5366
p4592
sVspecial_bonus_evasion_30
p4593
V6700
p4594
sVnpc_dota_brewmaster_storm_3
p4595
Vstorm
p4596
sVnpc_dota_brewmaster_storm_2
p4597
Vstorm
p4598
sVnpc_dota_brewmaster_storm_1
p4599
g1655
sVnpc_dota_hero_spectre
p4600
g2561
sVbeastmaster_wild_axes
p4601
V5168
p4602
sVnpc_dota_hero_death_prophet
p4603
g983
sVlife_stealer_infest
p4604
V5252
p4605
sVnpc_dota_goodguys_tower1_bot
p4606
Vtower
p4607
sVspecial_bonus_strength_14
p4608
V6281
p4609
sVspecial_bonus_strength_15
p4610
V6145
p4611
sg3008
Vmelee barracks
p4612
sVspecial_bonus_strength_10
p4613
V6137
p4614
sVspecial_bonus_strength_12
p4615
V5928
p4616
sg2483
Vnpc_dota_hero_sven
p4617
sVnpc_dota_hero_slark
p4618
g1402
sVitem_recipe_pers
p4619
V68
p4620
sVnpc_dota_furion_treant
p4621
g2127
sVitem_assault
p4622
V112
p4623
sg2561
g4600
sg4370
g2368
sVspectre_dispersion
p4624
V5336
p4625
sVspecial_bonus_night_vision_600
p4626
V7019
p4627
sVphantom_lancer_juxtapose
p4628
V5067
p4629
sVspecial_bonus_unique_lifestealer_3
p4630
V7012
p4631
sVspecial_bonus_unique_lifestealer_2
p4632
V6676
p4633
sg4617
g2483
sVitem_recipe_ultimate_scepter
p4634
V107
p4635
sVqueenofpain_scream_of_pain
p4636
V5175
p4637
sg4225
g734
sVspecial_bonus_attack_speed_35
p4638
V6196
p4639
sVnpc_dota_neutral_ghost
p4640
g1703
sVspecial_bonus_magic_resistance_40
p4641
V6663
p4642
sg420
g420
sVmorphling_morph_agi
p4643
V5055
p4644
sVlife_stealer_rage
p4645
V5249
p4646
sg434
g4538
sg456
Vnpc_dota_hero_riki
p4647
sg4259
g1212
sg3422
g815
sVvisage_summon_familiars_stone_form
p4648
V5484
p4649
sVkeeper_of_the_light_spirit_form_illuminate
p4650
V5479
p4651
sVitem_radiance
p4652
V137
p4653
sVnpc_dota_creep_goodguys_ranged
p4654
g2559
sVjuggernaut_blade_dance
p4655
V5027
p4656
sVroshan_halloween_greater_bash
p4657
V9994
p4658
sVspecial_bonus_unique_earth_spirit_2
p4659
V6514
p4660
sVspecial_bonus_unique_earth_spirit_3
p4661
V6640
p4662
sVblue_dragonspawn_overseer_devotion_aura
p4663
V5327
p4664
sVspecial_bonus_unique_rubick_2
p4665
V6862
p4666
sVspecial_bonus_unique_rubick_3
p4667
V6863
p4668
sVspecial_bonus_unique_rubick_4
p4669
V6864
p4670
sVspecial_bonus_unique_rubick_5
p4671
V6870
p4672
sVspecial_bonus_movement_speed_10
p4673
V5958
p4674
sg4299
g1606
sg1762
g4054
sVitem_recipe_oblivion_staff
p4675
V66
p4676
sVspecial_bonus_movement_speed_15
p4677
V5917
p4678
sVgreevil_fatal_bonds
p4679
V5552
p4680
sVspecial_bonus_unique_nyx
p4681
V6130
p4682
sg2969
g1459
sVcourier_go_to_sideshop
p4683
V6333
p4684
sVgreevil_miniboss_green_overgrowth
p4685
V5571
p4686
sVcentaur_khan_war_stomp
p4687
V5295
p4688
sVnpc_dota_hero_undying
p4689
g440
sg3860
g2411
sVnpc_dota_badguys_healers
p4690
g2339
sVspecial_bonus_spell_lifesteal_20
p4691
V6166
p4692
sVlion_finger_of_death
p4693
V5047
p4694
sVspecial_bonus_unique_medusa_4
p4695
V6803
p4696
sVspecial_bonus_unique_medusa_3
p4697
V6687
p4698
sVspecial_bonus_unique_medusa_2
p4699
V6392
p4700
sVspecial_bonus_unique_jakiro
p4701
V6064
p4702
sg2123
Vnpc_dota_neutral_prowler_shaman
p4703
sVearth_spirit_stone_caller
p4704
V5611
p4705
sg1132
Vnpc_dota_flying_courier
p4706
sVitem_moon_shard
p4707
V247
p4708
sVspecial_bonus_haste
p4709
V6629
p4710
sVnpc_dota_greevil_minion_purple
p4711
g634
sVitem_recipe_black_king_bar
p4712
V115
p4713
sVbounty_hunter_track
p4714
V5288
p4715
sVspecial_bonus_exp_boost_30
p4716
V6317
p4717
sVspecial_bonus_exp_boost_35
p4718
V6372
p4719
sVenchantress_enchant
p4720
V5268
p4721
sg2129
Vnpc_dota_lycan_wolf4
p4722
sg254
g253
sVcourier_transfer_items_to_other_player
p4723
V6328
p4724
sVchen_holy_persuasion
p4725
V5330
p4726
sVlich_frost_nova
p4727
V5134
p4728
sVspecial_bonus_unique_crystal_maiden_1
p4729
V6072
p4730
sVspecial_bonus_unique_crystal_maiden_3
p4731
V6520
p4732
sVspecial_bonus_unique_crystal_maiden_2
p4733
V6234
p4734
sg2900
g874
sVitem_recipe_buckler
p4735
V85
p4736
sVitem_circlet
p4737
V20
p4738
sVitem_wraith_band
p4739
V75
p4740
sg1493
Vnpc_dota_hero_morphling
p4741
sVbeastmaster_hawk_invisibility
p4742
V5170
p4743
sVitem_belt_of_strength
p4744
V17
p4745
sVspecial_bonus_hp_regen_50
p4746
V6302
p4747
sg1581
Vnpc_dota_hero_razor
p4748
sVspecial_bonus_unique_lifestealer
p4749
V6173
p4750
sVtroll_warlord_whirling_axes_ranged
p4751
V5509
p4752
sg1652
g3516
sg1655
g4597
sVspecial_bonus_unique_brewmaster
p4753
V6082
p4754
sVphoenix_fire_spirits
p4755
V5625
p4756
sVleshrac_pulse_nova
p4757
V5244
p4758
sVspecial_bonus_unique_ogre_magi_3
p4759
V7030
p4760
sg1746
g3047
sVblack_dragon_splash_attack
p4761
V5324
p4762
sVinvoker_wex
p4763
V5371
p4764
sVnpc_dota_goodguys_range_rax_bot
p4765
Vranged barracks
p4766
sg3682
g2443
sg2647
g2990
sVspecial_bonus_hp_500
p4767
V6235
p4768
sVspecial_bonus_attack_damage_12
p4769
V6159
p4770
sVspecial_bonus_attack_damage_10
p4771
V6095
p4772
sVspecial_bonus_attack_damage_15
p4773
V5938
p4774
sVnpc_dota_creep_badguys_melee_upgraded_mega
p4775
g2079
sVitem_quelling_blade
p4776
V11
p4777
sVmeepo_poof
p4778
V5431
p4779
sVantimage_mana_break
p4780
V5003
p4781
sVitem_recipe_guardian_greaves
p4782
V230
p4783
sVroshan_slam
p4784
V5215
p4785
sVvenomancer_poison_nova
p4786
V5181
p4787
sVitem_chainmail
p4788
V4
sVchaos_knight_reality_rift
p4789
V5427
p4790
sVspecial_bonus_unique_magnus_5
p4791
V6691
p4792
sVspecial_bonus_unique_magnus_4
p4793
V6690
p4794
sVspecial_bonus_unique_magnus_3
p4795
V6507
p4796
sVspecial_bonus_unique_magnus_2
p4797
V6390
p4798
sg3118
g607
sVdefault_attack
p4799
V5001
p4800
sVnpc_dota_creep_badguys_ranged
p4801
Vranged creep
p4802
sVitem_greater_crit
p4803
V141
p4804
sVchen_test_of_faith_teleport
p4805
V5522
p4806
sVgreevil_miniboss_orange_dragon_slave
p4807
V5572
p4808
sg2386
Vnpc_dota_neutral_granite_golem
p4809
sg3009
g1835
sVspecial_bonus_unique_naga_siren
p4810
V6205
p4811
sVmirana_starfall
p4812
V5051
p4813
sVmeepo_geostrike
p4814
V5432
p4815
sVcrystal_maiden_brilliance_aura
p4816
V5128
p4817
sVrubick_spell_steal
p4818
V5452
p4819
sVitem_nullifier
p4820
V225
p4821
sVnpc_dota_hero_dark_willow
p4822
g2013
sVitem_recipe_butterfly
p4823
V138
p4824
sVitem_bfury
p4825
V145
p4826
sVrattletrap_rocket_flare
p4827
V5239
p4828
sVdazzle_weave
p4829
V5236
p4830
sVlina_light_strike_array
p4831
V5041
p4832
sVspecial_bonus_truestrike
p4833
V6922
p4834
sg192
g191
sVweaver_time_lapse
p4835
V5292
p4836
sVzuus_arc_lightning
p4837
V5110
p4838
sVdark_troll_warlord_raise_dead
p4839
V5306
p4840
sVbloodseeker_thirst
p4841
V5017
p4842
sg440
g4689
sVnyx_assassin_mana_burn
p4843
V5463
p4844
sVspecial_bonus_unique_ember_spirit_1
p4845
V6172
p4846
sVriki_smoke_screen
p4847
V5142
p4848
sVspecial_bonus_unique_ember_spirit_3
p4849
V6647
p4850
sVlife_stealer_assimilate
p4851
V5671
p4852
sVspecial_bonus_unique_ember_spirit_5
p4853
V7051
p4854
sVspecial_bonus_unique_ember_spirit_4
p4855
V7050
p4856
sVitem_ring_of_basilius
p4857
V88
p4858
sVwinter_wyvern_splinter_blast
p4859
V5652
p4860
sVspecial_bonus_magic_resistance_50
p4861
V6641
p4862
sVnpc_dota_hero_templar_assassin
p4863
g1546
sVursa_fury_swipes
p4864
V5359
p4865
sVspecial_bonus_mp_125
p4866
V5904
p4867
sVspecial_bonus_unique_silencer
p4868
V6184
p4869
sg624
g3755
sVspecial_bonus_attack_speed_20
p4870
V5906
p4871
sVfaceless_void_time_dilation
p4872
V5691
p4873
sVspecial_bonus_attack_speed_25
p4874
V6016
p4875
sVmorphling_morph
p4876
V5054
p4877
sVnpc_dota_badguys_tower2_bot
p4878
Vtower
p4879
sVitem_recipe_assault
p4880
V111
p4881
sg632
g3893
sVitem_slippers
p4882
V14
p4883
sg4354
g2264
sVnpc_dota_greevil_miniboss_red
p4884
g1168
sVitem_recipe_iron_talon
p4885
V238
p4886
sg1685
g1685
sVobsidian_destroyer_astral_imprisonment
p4887
V5392
p4888
sg739
g3336
sVbeastmaster_inner_beast
p4889
V5172
p4890
sVspecial_bonus_cast_range_100
p4891
V6003
p4892
sVspecial_bonus_night_vision_500
p4893
V7022
p4894
sg299
g298
sVnyx_assassin_impale
p4895
V5462
p4896
sVgyrocopter_call_down
p4897
V5364
p4898
sVitem_tranquil_boots
p4899
V214
p4900
sVwindrunner_shackleshot
p4901
V5130
p4902
sVnpc_dota_shadow_shaman_ward_3
p4903
Vserpent ward
p4904
sVnpc_dota_shadow_shaman_ward_2
p4905
g2171
sVroshan_bash
p4906
V5214
p4907
sVitem_recipe_diffusal_blade
p4908
V173
p4909
sg422
Vnpc_dota_greevil_miniboss_blue
p4910
sValchemist_acid_spray
p4911
V5365
p4912
sVitem_hood_of_defiance
p4913
V131
p4914
sVbristleback_bristleback
p4915
V5550
p4916
sg1098
g2897
sVlone_druid_spirit_bear
p4917
V5412
p4918
sVblack_dragon_fireball
p4919
V5689
p4920
sVoracle_fates_edict
p4921
V5638
p4922
sVspecial_bonus_cooldown_reduction_25
p4923
V6222
p4924
sVitem_recipe_hood_of_defiance
p4925
V130
p4926
sVdragon_knight_dragon_tail
p4927
V5227
p4928
sVnpc_dota_lycan_wolf3
p4929
g2129
sVnpc_dota_lycan_wolf2
p4930
Vlycan wolf
p4931
sVitem_sobi_mask
p4932
V28
p4933
sg4722
Vlycan wolf
p4934
sVspecial_bonus_spell_amplify_12
p4935
V6326
p4936
sVspecial_bonus_spell_amplify_10
p4937
V5989
p4938
sVspecial_bonus_spell_amplify_15
p4939
V6055
p4940
sg119
g118
sVpolar_furbolg_ursa_warrior_thunder_clap
p4941
V5302
p4942
sVphoenix_supernova
p4943
V5630
p4944
sVtechies_remote_mines
p4945
V5602
p4946
sg1402
g4618
sVsven_warcry
p4947
V5096
p4948
sg2047
g4138
sVnpc_dota_badguys_melee_rax_mid
p4949
Vmelee barracks
p4950
sVspecial_bonus_intelligence_13
p4951
V6042
p4952
sVjakiro_dual_breath
p4953
V5297
p4954
sVspecial_bonus_unique_templar_assassin
p4955
V6071
p4956
sVspirit_breaker_greater_bash
p4957
V5355
p4958
sg313
g312
sVbatrider_sticky_napalm
p4959
V5320
p4960
sVspecial_bonus_exp_boost_40
p4961
V6447
p4962
sVitem_blade_mail
p4963
V127
p4964
sVitem_poor_mans_shield
p4965
V71
p4966
sVcourier_morph
p4967
V5642
p4968
sVnpc_dota_neutral_dark_troll_warlord
p4969
g2133
sVmonkey_king_mischief
p4970
V5719
p4971
sg1739
Vnpc_dota_brewmaster_fire_2
p4972
sVnpc_dota_brewmaster_fire_1
p4973
g1739
sg1780
Vnpc_dota_hero_silencer
p4974
sVspecial_bonus_hp_regen_40
p4975
V6022
p4976
sg1819
Vnpc_dota_hero_storm_spirit
p4977
sVgreevil_hook
p4978
V5563
p4979
sg123
g122
sVitem_recipe_mekansm
p4980
V78
p4981
sVitem_recipe_necronomicon
p4982
V105
p4983
sVnpc_dota_greevil_minion_white
p4984
g1114
sVnpc_dota_badguys_range_rax_bot
p4985
Vranged barracks
p4986
sVviper_viper_strike
p4987
V5221
p4988
sVitem_recipe_aeon_disk
p4989
V255
p4990
sVspecial_bonus_mp_800
p4991
V6816
p4992
sg3560
Vnether ward
p4993
sVfiller_ability
p4994
V6226
p4995
sVinvoker_cold_snap
p4996
V5376
p4997
sVogre_magi_bloodlust
p4998
V5440
p4999
sVitem_shivas_guard
p5000
V119
p5001
sg2127
g4621
sVbane_nightmare
p5002
V5014
p5003
sg4586
g2232
sVcourier_go_to_enemy_secretshop
p5004
V6329
p5005
sVinvoker_exort
p5006
V5372
p5007
sVrubick_null_field
p5008
V5451
p5009
sVspecial_bonus_cast_range_50
p5010
V5946
p5011
sVspecial_bonus_hp_175
p5012
V6034
p5013
sg3419
Vwarlock golem
p5014
sVspecial_bonus_unique_underlord_2
p5015
V6967
p5016
sVspecial_bonus_unique_underlord_3
p5017
V6968
p5018
sVspecial_bonus_unique_underlord_4
p5019
V6969
p5020
sVroshan_halloween_candy
p5021
V9990
p5022
sg2384
g2384
sg4809
g2386
sVspecial_bonus_unique_outworld_devourer_2
p5023
V6711
p5024
sVspecial_bonus_unique_outworld_devourer_3
p5025
V6712
p5026
sVharpy_storm_chain_lightning
p5027
V5319
p5028
sVspecial_bonus_attack_damage_120
p5029
V6112
p5030
sVspecial_bonus_hp_200
p5031
V5959
p5032
sVspecial_bonus_unique_antimage
p5033
V6012
p5034
sVbloodseeker_blood_bath
p5035
V5016
p5036
sVitem_oblivion_staff
p5037
V67
p5038
sVspecial_bonus_unique_tiny
p5039
V6153
p5040
sVspecial_bonus_unique_lycan_1
p5041
V6134
p5042
sVenraged_wildkin_toughness_aura
p5043
V5313
p5044
sVspecial_bonus_mp_regen_8
p5045
V6243
p5046
sVspecial_bonus_spell_block_15
p5047
V7034
p5048
sVspecial_bonus_unique_beastmaster
p5049
V6103
p5050
sg3327
g2615
sVbroodmother_spin_web_destroy
p5051
V5643
p5052
sVlone_druid_spirit_bear_return
p5053
V5418
p5054
sg2825
g1803
sVrattletrap_battery_assault
p5055
V5237
p5056
sg2171
g2753
sVspecial_bonus_mp_regen_14
p5057
V6255
p5058
sVnyx_assassin_vendetta
p5059
V5465
p5060
sVspecial_bonus_mp_regen_10
p5061
V6116
p5062
sg3048
g2173
sg478
g2991
sVspecial_bonus_evasion_50
p5063
V6613
p5064
sVsven_storm_bolt
p5065
V5094
p5066
sVbroodmother_insatiable_hunger
p5067
V5282
p5068
sVspecial_bonus_attack_damage_251
p5069
V7039
p5070
sVspecial_bonus_attack_damage_250
p5071
V6556
p5072
sg2523
Vnpc_dota_hero_jakiro
p5073
sVnpc_dota_brewmaster_earth_1
p5074
g851
sg4344
g2137
sVitem_void_stone
p5075
V57
p5076
sg3393
g548
sVitem_quarterstaff
p5077
V10
p5078
sVspecial_bonus_cleave_100
p5079
V6827
p5080
sg4741
g1493
sVantimage_blink
p5081
V5004
p5082
sg638
g4321
sVgreevil_miniboss_black_brain_sap
p5083
V5537
p5084
sVspecial_bonus_unique_enchantress_4
p5085
V6515
p5086
sVspecial_bonus_unique_invoker_1
p5087
V6097
p5088
sVspecial_bonus_unique_invoker_3
p5089
V6099
p5090
sVspecial_bonus_unique_invoker_2
p5091
V6098
p5092
sVspecial_bonus_unique_invoker_5
p5093
V6657
p5094
sVspecial_bonus_unique_invoker_4
p5095
V6656
p5096
sVspecial_bonus_unique_invoker_7
p5097
V7016
p5098
sVspecial_bonus_unique_invoker_6
p5099
V6811
p5100
sVspecial_bonus_unique_invoker_8
p5101
V7017
p5102
sVspecial_bonus_unique_clockwerk_4
p5103
V7028
p5104
sVwisp_relocate
p5105
V5488
p5106
sVspecial_bonus_unique_clockwerk_3
p5107
V6512
p5108
sVinvoker_emp
p5109
V5383
p5110
sVearthshaker_fissure
p5111
V5023
p5112
sVspecial_bonus_magic_resistance_25
p5113
V6091
p5114
sVnpc_dota_neutral_black_drake
p5115
g1885
sVspecial_bonus_unique_techies_4
p5116
V6998
p5117
sVspecial_bonus_unique_techies_2
p5118
V6552
p5119
sVspecial_bonus_unique_techies_3
p5120
V6997
p5121
sVspecial_bonus_mp_150
p5122
V5905
p5123
sg4748
g1581
sg817
g3337
sVwitch_doctor_paralyzing_cask
p5124
V5138
p5125
sVgreevil_miniboss_purple_plague_ward
p5126
V5575
p5127
sVnpc_dota_hero_lone_druid
p5128
g1906
sVnpc_dota_lone_druid_bear4
p5129
g978
sVnpc_dota_lone_druid_bear2
p5130
Vspirit bear
p5131
sVnpc_dota_lone_druid_bear3
p5132
Vspirit bear
p5133
sg4489
Vspirit bear
p5134
sVability_deward
p5135
V5669
p5136
sVskywrath_mage_ancient_seal
p5137
V5583
p5138
sVitem_hand_of_midas
p5139
V65
p5140
sVspecial_bonus_unique_mirana_4
p5141
V6692
p5142
sVspecial_bonus_unique_mirana_2
p5143
V6242
p5144
sVspecial_bonus_unique_mirana_3
p5145
V6397
p5146
sVspecial_bonus_unique_mirana_1
p5147
V6013
p5148
sg1145
g3577
sVvengefulspirit_command_aura
p5149
V5123
p5150
sVnecrolyte_reapers_scythe
p5151
V5161
p5152
sg1175
g3476
sVwinter_wyvern_arctic_burn
p5153
V5651
p5154
sVstorm_spirit_static_remnant
p5155
V5098
p5156
sg3695
g944
sVitem_recipe_lesser_crit
p5157
V148
p5158
sg2770
g2282
sVitem_iron_talon
p5159
V239
p5160
sVitem_recipe_soul_booster
p5161
V128
p5162
sg4260
g1232
sVcourier_take_stash_and_transfer_items
p5163
V5676
p5164
sVgreevil_miniboss_purple_venomous_gale
p5165
V5574
p5166
sVitem_trident
p5167
V275
p5168
sVmorphling_hybrid
p5169
V5674
p5170
sVlife_stealer_open_wounds
p5171
V5251
p5172
sg1562
g1562
sVbrewmaster_drunken_brawler
p5173
V5402
p5174
sVspecial_bonus_unique_gyrocopter_4
p5175
V6653
p5176
sVspecial_bonus_unique_gyrocopter_5
p5177
V6654
p5178
sVspecial_bonus_unique_gyrocopter_2
p5179
V6312
p5180
sVspecial_bonus_unique_gyrocopter_3
p5181
V6652
p5182
sVitem_mjollnir
p5183
V158
p5184
sVspecial_bonus_unique_gyrocopter_1
p5185
V6216
p5186
sg1603
g4266
sVitem_sange
p5187
V162
p5188
sVspecial_bonus_cooldown_reduction_8
p5189
V5950
p5190
sVspecial_bonus_unique_winter_wyvern_1
p5191
V6106
p5192
sVspecial_bonus_unique_furion_4
p5193
V6702
p5194
sVspecial_bonus_unique_furion_3
p5195
V6539
p5196
sVspecial_bonus_unique_furion_2
p5197
V6500
p5198
sg1687
g3967
sVspecial_bonus_agility_100
p5199
V6705
p5200
sVitem_tango
p5201
V44
p5202
sVitem_recipe_dagon_2
p5203
V197
p5204
sVspecial_bonus_unique_winter_wyvern_4
p5205
V6994
p5206
sVogre_magi_unrefined_fireblast
p5207
V5466
p5208
sVitem_recipe_dagon_4
p5209
V199
p5210
sVitem_recipe_dagon_5
p5211
V200
p5212
sg1764
Vnpc_dota_hero_gyrocopter
p5213
sg5073
g2523
sg1869
Vnpc_dota_hero_lina
p5214
sVinvoker_sun_strike
p5215
V5386
p5216
sg709
Vnpc_dota_phantomassassin_gravestone
p5217
sVgranite_golem_bash
p5218
V5680
p5219
sVelder_titan_natural_order
p5220
V5593
p5221
sVvisage_summon_familiars
p5222
V5483
p5223
sVrattletrap_power_cogs
p5224
V5238
p5225
sVspecial_bonus_spell_immunity
p5226
V6646
p5227
sVshredder_chakram_2
p5228
V5645
p5229
sVitem_gem
p5230
V30
p5231
sg634
g4711
sVitem_courier
p5232
V45
p5233
sVitem_dust
p5234
V40
p5235
sVspectre_spectral_dagger
p5236
V5334
p5237
sVphantom_assassin_coup_de_grace
p5238
V5193
p5239
sVitem_recipe_kaya
p5240
V258
p5241
sVitem_river_painter5
p5242
V1025
p5243
sVspecial_bonus_unique_naga_siren_4
p5244
V7029
p5245
sVitem_river_painter7
p5246
V1027
p5247
sVitem_river_painter6
p5248
V1026
p5249
sVlion_impale
p5250
V5044
p5251
sVspecial_bonus_unique_naga_siren_3
p5252
V6701
p5253
sVspecial_bonus_unique_naga_siren_2
p5254
V6398
p5255
sVitem_dragon_lance
p5256
V236
p5257
sg2732
g1743
sVitem_soul_booster
p5258
V129
p5259
sVwindrunner_windrun
p5260
V5132
p5261
sVtusk_launch_snowball
p5262
V5641
p5263
sVitem_shadow_amulet
p5264
V215
p5265
sVitem_sheepstick
p5266
V96
p5267
sVspecial_bonus_attack_range_250
p5268
V6040
p5269
sVnpc_dota_creep_badguys_ranged_upgraded
p5270
Vsuper ranged creep
p5271
sg939
g939
sVspecial_bonus_unique_luna_2
p5272
V6127
p5273
sVbig_thunder_lizard_slam
p5274
V5332
p5275
sVspecial_bonus_magic_resistance_8
p5276
V5936
p5277
sVspecial_bonus_magic_resistance_6
p5278
V5994
p5279
sVspecial_bonus_unique_sand_king_4
p5280
V6872
p5281
sVspecial_bonus_magic_resistance_5
p5282
V5935
p5283
sVspecial_bonus_attack_damage_30
p5284
V5939
p5285
sVspecial_bonus_unique_sand_king_3
p5286
V6530
p5287
sVspecial_bonus_unique_sand_king_2
p5288
V6409
p5289
sVpangolier_gyroshell
p5290
V6343
p5291
sVspecial_bonus_attack_range_125
p5292
V5944
p5293
sg364
g3897
sVspecial_bonus_unique_visage_3
p5294
V6522
p5295
sVspecial_bonus_unique_visage_2
p5296
V6320
p5297
sVspecial_bonus_unique_visage_1
p5298
V6031
p5299
sVrubick_fade_bolt
p5300
V5450
p5301
sVspecial_bonus_unique_visage_6
p5302
V6985
p5303
sVspecial_bonus_unique_visage_5
p5304
V6984
p5305
sVspecial_bonus_unique_visage_4
p5306
V6983
p5307
sg3028
g2031
sVrattletrap_hookshot
p5308
V5240
p5309
sg3313
g2011
sVbeastmaster_greater_boar_poison
p5310
V5352
p5311
sVoracle_fortunes_end
p5312
V5637
p5313
sg103
g102
sg3224
g628
sVspecial_bonus_attack_speed_200
p5314
V6622
p5315
sVitem_recipe_phase_boots
p5316
V49
p5317
sg1532
g3959
sVtroll_warlord_fervor
p5318
V5511
p5319
sVspecial_bonus_mana_break_20
p5320
V6987
p5321
sVzuus_cloud
p5322
V6325
p5323
sVspecial_bonus_mana_break_25
p5324
V6830
p5325
sVspecial_bonus_corruption_5
p5326
V6846
p5327
sg4261
g1281
sVitem_recipe_spirit_vessel
p5328
V266
p5329
sVspecial_bonus_unique_zeus
p5330
V6157
p5331
sVitem_cheese
p5332
V33
p5333
sVnpc_dota_necronomicon_archer_3
p5334
Vnecronomicon archer
p5335
sVnpc_dota_unit_tombstone4
p5336
Vtombstone
p5337
sVnpc_dota_unit_tombstone1
p5338
Vtombstone
p5339
sg3081
Vtombstone
p5340
sVnpc_dota_unit_tombstone2
p5341
g2593
sg636
g4038
sVtroll_warlord_whirling_axes_melee
p5342
V5510
p5343
sVphantom_assassin_phantom_strike
p5344
V5191
p5345
sVluna_lucent_beam
p5346
V5222
p5347
sVitem_octarine_core
p5348
V235
p5349
sVfurion_teleportation
p5350
V5246
p5351
sVitem_recipe_aether_lens
p5352
V233
p5353
sg1114
g4984
sVitem_recipe_sange
p5354
V161
p5355
sVnecronomicon_archer_purge
p5356
V8203
p5357
sVspecial_bonus_gold_income_15
p5358
V6007
p5359
sVspecial_bonus_gold_income_10
p5360
V5956
p5361
sVspecial_bonus_unique_ogre_magi_2
p5362
V6707
p5363
sVdrow_ranger_wave_of_silence
p5364
V5632
p5365
sg630
g4324
sVblack_dragon_dragonhide_aura
p5366
V5681
p5367
sVbrewmaster_earth_hurl_boulder
p5368
V5404
p5369
sVleshrac_split_earth
p5370
V5241
p5371
sVitem_point_booster
p5372
V60
p5373
sVitem_ward_observer
p5374
V42
p5375
sVspecial_bonus_intelligence_25
p5376
V6050
p5377
sVnecrolyte_sadist
p5378
V5160
p5379
sVbounty_hunter_wind_walk
p5380
V5287
p5381
sg1062
Vnpc_dota_hero_ursa
p5382
sVitem_recipe_bfury
p5383
V144
p5384
sVitem_pipe
p5385
V90
p5386
sVspecial_bonus_magic_resistance_35
p5387
V6386
p5388
sVspecial_bonus_magic_resistance_30
p5389
V6221
p5390
sVspecial_bonus_unique_antimage_2
p5391
V6353
p5392
sVspecial_bonus_unique_antimage_3
p5393
V6606
p5394
sVspecial_bonus_unique_antimage_4
p5395
V6607
p5396
sVspecial_bonus_unique_antimage_5
p5397
V6800
p5398
sg4363
g1632
sVitem_recipe_tranquil_boots
p5399
V213
p5400
sVoracle_false_promise
p5401
V5640
p5402
sVwindrunner_powershot
p5403
V5131
p5404
sVspecial_bonus_unique_abaddon_2
p5405
V6601
p5406
sVspecial_bonus_unique_abaddon_3
p5407
V6602
p5408
sVroshan_halloween_summon
p5409
V10001
p5410
sVnpc_dota_pugna_nether_ward_3
p5411
g2153
sVshredder_chakram
p5412
V5527
p5413
sVnpc_dota_pugna_nether_ward_1
p5414
Vnether ward
p5415
sVnpc_dota_pugna_nether_ward_4
p5416
Vnether ward
p5417
sVspecial_bonus_cast_range_125
p5418
V6197
p5419
sVsatyr_soulstealer_mana_burn
p5420
V5315
p5421
sVspecial_bonus_attack_damage_400
p5422
V6553
p5423
sVitem_robe
p5424
V19
p5425
sVspecial_bonus_unique_lycan_4
p5426
V6684
p5427
sVspecial_bonus_unique_lycan_5
p5428
V6685
p5429
sVhuskar_berserkers_blood
p5430
V5273
p5431
sVspecial_bonus_unique_lycan_2
p5432
V6140
p5433
sVspecial_bonus_unique_lycan_3
p5434
V6519
p5435
sVshoot_firework
p5436
V5650
p5437
sg2079
g3607
sg1801
g3242
sVspecial_bonus_unique_techies
p5438
V6282
p5439
sg5217
g709
sVdark_troll_warlord_ensnare
p5440
V5305
p5441
sg4166
g2314
sVelder_titan_earth_splitter
p5442
V5594
p5443
sg228
g227
sVmagnataur_shockwave
p5444
V5518
p5445
sVspecial_bonus_unique_ember_spirit_2
p5446
V6176
p5447
sVkunkka_torrent
p5448
V5031
p5449
sVitem_infused_raindrop
p5450
V265
p5451
sg1851
g3898
sVspecial_bonus_unique_abaddon
p5452
V6100
p5453
sVnight_stalker_void
p5454
V5275
p5455
sVitem_recipe_soul_ring
p5456
V177
p5457
sg4703
g2123
sVluna_eclipse
p5458
V5225
p5459
sg3859
g2408
sVtidehunter_gush
p5460
V5118
p5461
sVbristleback_warpath
p5462
V5551
p5463
sVspecial_bonus_spell_lifesteal_70
p5464
V6061
p5465
sVbackdoor_protection_in_base
p5466
V5351
p5467
sg4496
g1214
sg2013
g4822
sVitem_recipe_octarine_core
p5468
V228
p5469
sVspecial_bonus_reincarnation_200
p5470
V6677
p5471
sVnaga_siren_ensnare
p5472
V5468
p5473
sg1352
g2975
sVspecial_bonus_unique_spectre
p5474
V6148
p5475
sg2798
g1867
sVspecial_bonus_cast_range_60
p5476
V6032
p5477
sVspecial_bonus_unique_ursa_5
p5478
V6976
p5479
sVspecial_bonus_unique_ursa_4
p5480
V6975
p5481
sVspecial_bonus_unique_ursa_3
p5482
V6974
p5483
sVspecial_bonus_unique_ursa_2
p5484
V6973
p5485
sVspecial_bonus_unique_juggernaut
p5486
V6105
p5487
sVitem_black_king_bar
p5488
V116
p5489
sg4647
g456
sVthrow_snowball
p5490
V5577
p5491
sVroshan_halloween_apocalypse
p5492
V9998
p5493
sg2459
g4388
sVdragon_knight_frost_breath
p5494
V5232
p5495
sVqueenofpain_shadow_strike
p5496
V5173
p5497
sVphantom_lancer_spirit_lance
p5498
V5065
p5499
sg2427
Vnpc_dota_hero_chaos_knight
p5500
sVnpc_dota_necronomicon_warrior_1
p5501
g1315
sVnpc_dota_necronomicon_warrior_2
p5502
Vnecronomicon warrior
p5503
sg2676
Vnecronomicon warrior
p5504
sVnpc_dota_goodguys_siege
p5505
g478
sVitem_recipe_radiance
p5506
V136
p5507
sg2503
g3296
sVwitch_doctor_voodoo_restoration
p5508
V5139
p5509
sg2539
g3567
sVspecial_bonus_lifesteal_15
p5510
V6289
p5511
sVitem_ultimate_scepter
p5512
V108
p5513
sg3037
g2613
sVspecial_bonus_unique_terrorblade
p5514
V6107
p5515
sg4391
Vbuilding
p5516
sVitem_ring_of_protection
p5517
V12
p5518
sVspecial_bonus_unique_enchantress_1
p5519
V6331
p5520
sVspecial_bonus_unique_enchantress_3
p5521
V6379
p5522
sVspecial_bonus_unique_enchantress_2
p5523
V6086
p5524
sVspecial_bonus_unique_enchantress_5
p5525
V6648
p5526
sVarc_warden_flux
p5527
V5677
p5528
sVspecial_bonus_unique_centaur_1
p5529
V6322
p5530
sVspecial_bonus_unique_centaur_3
p5531
V6616
p5532
sVspecial_bonus_unique_centaur_2
p5533
V5988
p5534
sVspecial_bonus_unique_centaur_4
p5535
V6617
p5536
sVpuck_ethereal_jaunt
p5537
V5070
p5538
sg395
Vnpc_dota_creep_badguys_ranged_upgraded_mega
p5539
sVdoom_bringer_empty1
p5540
V5343
p5541
sVdoom_bringer_empty2
p5542
V5344
p5543
sVspecial_bonus_unique_chen_3
p5544
V6363
p5545
sVspecial_bonus_hp_350
p5546
V6195
p5547
sg4910
g422
sVsilencer_glaives_of_wisdom
p5548
V5378
p5549
sVspecial_bonus_unique_tusk_5
p5550
V6963
p5551
sVspecial_bonus_unique_tusk_4
p5552
V6962
p5553
sVspecial_bonus_unique_sniper_1
p5554
V6305
p5555
sVspecial_bonus_unique_tusk_3
p5556
V6961
p5557
sVspecial_bonus_unique_tusk_2
p5558
V6411
p5559
sVgreevil_miniboss_blue_ice_vortex
p5560
V5539
p5561
sVspecial_bonus_attack_damage_20
p5562
V5960
p5563
sVancient_golem_rockslide
p5564
V5686
p5565
sVspecial_bonus_attack_damage_25
p5566
V6009
p5567
sVrazor_static_link
p5568
V5083
p5569
sVtreant_natures_guise
p5570
V5434
p5571
sVnpc_dota_tusk_frozen_sigil3
p5572
Vfrozen sigil
p5573
sg564
g4133
sVitem_recipe_travel_boots
p5574
V47
p5575
sVitem_necronomicon
p5576
V106
p5577
sVspecial_bonus_hp_225
p5578
V6405
p5579
sVspecial_bonus_unique_bane_4
p5580
V6826
p5581
sVspecial_bonus_intelligence_15
p5582
V5991
p5583
sVspecial_bonus_unique_bane_2
p5584
V6069
p5585
sVspecial_bonus_unique_bane_3
p5586
V6609
p5587
sVspecial_bonus_unique_bane_1
p5588
V6068
p5589
sVitem_recipe_arcane_boots
p5590
V179
p5591
sg655
g318
sVspecial_bonus_hp_regen_80
p5592
V6660
p5593
sg713
g713
sVspecial_bonus_mana_break_35
p5594
V6825
p5595
sVnpc_dota_goodguys_tower3_mid
p5596
Vtower
p5597
sVmorphling_waveform
p5598
V5052
p5599
sVspecial_bonus_evasion_75
p5600
V6882
p5601
sg4573
g2086
sVspecial_bonus_unique_pugna_2
p5602
V6238
p5603
sVspecial_bonus_unique_huskar
p5604
V6204
p5605
sVspecial_bonus_unique_pugna_1
p5606
V6220
p5607
sVspecial_bonus_unique_pugna_6
p5608
V6859
p5609
sVspecial_bonus_unique_pugna_4
p5610
V6448
p5611
sVspecial_bonus_unique_pugna_5
p5612
V6541
p5613
sVitem_recipe_skadi
p5614
V159
p5615
sVnecronomicon_warrior_last_will
p5616
V5200
p5617
sVspecial_bonus_unique_dark_willow_2
p5618
V6465
p5619
sVspecial_bonus_unique_magnus
p5620
V6199
p5621
sVspecial_bonus_unique_dark_willow_1
p5622
V6464
p5623
sVitem_urn_of_shadows
p5624
V92
p5625
sVpudge_dismember
p5626
V5077
p5627
sVwinter_wyvern_cold_embrace
p5628
V5653
p5629
sg983
g4603
sVnpc_dota_hero_centaur
p5630
g755
sVinvoker_invoke
p5631
V5375
p5632
sVspecial_bonus_unique_nyx_2
p5633
V6399
p5634
sVspecial_bonus_unique_nyx_3
p5635
V6814
p5636
sVbrewmaster_storm_cyclone
p5637
V5409
p5638
sVspecial_bonus_unique_earthshaker_3
p5639
V6511
p5640
sVspecial_bonus_unique_bounty_hunter_3
p5641
V7040
p5642
sVspecial_bonus_unique_bounty_hunter_2
p5643
V6358
p5644
sVspecial_bonus_unique_earthshaker_2
p5645
V6425
p5646
sVnpc_dota_badguys_tower3_top
p5647
Vtower
p5648
sVbristleback_quill_spray
p5649
V5549
p5650
sVspecial_bonus_attack_range_75
p5651
V6027
p5652
sVspecial_bonus_unique_shadow_shaman_4
p5653
V6521
p5654
sVspecial_bonus_unique_shadow_shaman_5
p5655
V6877
p5656
sVspecial_bonus_unique_shadow_shaman_1
p5657
V6052
p5658
sVspecial_bonus_unique_shadow_shaman_2
p5659
V6295
p5660
sVspecial_bonus_unique_shadow_shaman_3
p5661
V6502
p5662
sVspecial_bonus_unique_phoenix_5
p5663
V6915
p5664
sVogre_magi_fireblast
p5665
V5438
p5666
sVspecial_bonus_unique_chaos_knight_2
p5667
V6618
p5668
sVspecial_bonus_unique_chaos_knight_3
p5669
V6619
p5670
sVitem_combo_breaker
p5671
V276
p5672
sVitem_recipe_medallion_of_courage
p5673
V186
p5674
sVvenomancer_poison_sting
p5675
V5179
p5676
sVspecial_bonus_unique_venomancer_4
p5677
V6980
p5678
sVspecial_bonus_unique_venomancer_5
p5679
V6981
p5680
sVspecial_bonus_unique_venomancer_6
p5681
V6999
p5682
sVitem_ultimate_orb
p5683
V24
p5684
sVspecial_bonus_unique_venomancer_2
p5685
V6532
p5686
sVspecial_bonus_unique_venomancer_3
p5687
V6979
p5688
sVabyssal_underlord_firestorm
p5689
V5613
p5690
sVspecial_bonus_mp_175
p5691
V6067
p5692
sg4130
Vundying zombie
p5693
sVmedusa_mystic_snake
p5694
V5505
p5695
sVweaver_shukuchi
p5696
V5290
p5697
sg1570
Vnpc_dota_creep_goodguys_ranged_diretide
p5698
sVitem_travel_boots
p5699
V48
p5700
sVspecial_bonus_unique_pudge_2
p5701
V6245
p5702
sVspecial_bonus_unique_pudge_3
p5703
V6506
p5704
sVspecial_bonus_unique_pudge_1
p5705
V6023
p5706
sVnpc_dota_hero_meepo
p5707
g1116
sVspecial_bonus_unique_tidehunter
p5708
V6151
p5709
sVitem_recipe_bloodthorn
p5710
V245
p5711
sg3023
g813
sVspecial_bonus_cast_range_150
p5712
V6056
p5713
sVviper_poison_attack
p5714
V5218
p5715
sVitem_stout_shield
p5716
V182
p5717
sg2767
g1577
sVlion_mana_drain
p5718
V5046
p5719
sVitem_recipe_armlet
p5720
V150
p5721
sVspecial_bonus_hp_regen_30
p5722
V6351
p5723
sg2949
g1265
sVspecial_bonus_intelligence_6
p5724
V5924
p5725
sVspecial_bonus_intelligence_7
p5726
V6117
p5727
sVbloodseeker_rupture
p5728
V5018
p5729
sVitem_lotus_orb
p5730
V226
p5731
sVspecial_bonus_cooldown_reduction_40
p5732
V6445
p5733
sVmorphling_adaptive_strike_agi
p5734
V5053
p5735
sVshadow_demon_disruption
p5736
V5421
p5737
sg1906
g5128
sg1925
g4390
sg1941
Vnpc_dota_hero_skeleton_king
p5738
sg4977
g1819
sVlycan_feral_impulse
p5739
V5397
p5740
sVitem_recipe_hurricane_pike
p5741
V262
p5742
sg1147
g2997
sVspecial_bonus_unique_enigma
p5743
V6065
p5744
sVspecial_bonus_unique_tidehunter_2
p5745
V6945
p5746
sVspecial_bonus_unique_tidehunter_3
p5747
V6946
p5748
sVspecial_bonus_unique_tidehunter_4
p5749
V6947
p5750
sVfaceless_void_time_walk
p5751
V5182
p5752
sg1666
g4394
sVspecial_bonus_unique_arc_warden_2
p5753
V6354
p5754
sg2190
g3387
sVphantom_lancer_phantom_edge
p5755
V5068
p5756
sVspecial_bonus_unique_timbersaw_3
p5757
V6949
p5758
sVspecial_bonus_unique_timbersaw_2
p5759
V6948
p5760
sVchen_hand_of_god
p5761
V5331
p5762
sVchen_penitence
p5763
V5328
p5764
sVspecial_bonus_spell_lifesteal_60
p5765
V6575
p5766
sg3390
g480
sVbloodseeker_bloodrage
p5767
V5015
p5768
sVshadow_shaman_shackles
p5769
V5080
p5770
sVspecial_bonus_unique_skywrath_5
p5771
V6921
p5772
sVspecial_bonus_unique_skywrath_4
p5773
V6886
p5774
sVspecial_bonus_unique_skywrath_3
p5775
V6885
p5776
sVspecial_bonus_unique_skywrath_2
p5777
V6884
p5778
sg2999
g1706
sVrazor_plasma_field
p5779
V5082
p5780
sg2461
g2681
sVitem_recipe_mask_of_madness
p5781
V171
p5782
sg2631
Vnpc_dota_hero_oracle
p5783
sVgreevil_phantom_strike
p5784
V5554
p5785
sg941
g2869
sVitem_recipe_necronomicon_2
p5786
V191
p5787
sVitem_recipe_necronomicon_3
p5788
V192
p5789
sVitem_recipe_ward_dispenser
p5790
V217
p5791
sVlegion_commander_moment_of_courage
p5792
V5597
p5793
sg362
g64
sVgreevil_natures_attendants
p5794
V5559
p5795
sVlone_druid_spirit_bear_demolish
p5796
V5420
p5797
sVspecial_bonus_hp_regen_14
p5798
V5913
p5799
sVitem_ancient_janggo
p5800
V185
p5801
sVtechies_land_mines
p5802
V5599
p5803
sg5738
g1941
sVmonkey_king_wukongs_command
p5804
V5725
p5805
sVspecial_bonus_day_vision_400
p5806
V6092
p5807
sVitem_staff_of_wizardry
p5808
V23
p5809
sVspecial_bonus_unique_dragon_knight_2
p5810
V6635
p5811
sVspecial_bonus_20_crit_15
p5812
V7045
p5813
sg472
g472
sVitem_energy_booster
p5814
V59
p5815
sg5382
g1062
sg4157
g2577
sg159
g158
sg1885
g5115
sg2359
g4414
sVspecial_bonus_unique_witch_doctor_5
p5816
V6996
p5817
sVspecial_bonus_unique_witch_doctor_4
p5818
V6995
p5819
sVspecial_bonus_unique_witch_doctor_3
p5820
V6524
p5821
sVspecial_bonus_unique_witch_doctor_2
p5822
V6298
p5823
sVspecial_bonus_unique_witch_doctor_1
p5824
V5998
p5825
sg588
g588
sVearthshaker_aftershock
p5826
V5025
p5827
sVspecial_bonus_unique_death_prophet
p5828
V6191
p5829
sVshredder_return_chakram
p5830
V5528
p5831
sVitem_aegis
p5832
V117
p5833
sVspecial_bonus_hp_325
p5834
V6423
p5835
sVnpc_dota_goodguys_tower1_mid
p5836
Vtower
p5837
sVenigma_demonic_conversion
p5838
V5147
p5839
sVnpc_dota_badguys_siege_upgraded_mega
p5840
g362
sg3594
g2501
sg1574
g3084
sVsniper_assassinate
p5841
V5157
p5842
sVroshan_halloween_shell
p5843
V9997
p5844
sVitem_recipe_echo_sabre
p5845
V251
p5846
sVspecial_bonus_attack_range_100
p5847
V5943
p5848
sVitem_recipe_orchid
p5849
V97
p5850
sVgreevil_shadow_strike
p5851
V5534
p5852
sVspecial_bonus_agility_16
p5853
V6169
p5854
sVspecial_bonus_agility_15
p5855
V5929
p5856
sVspecial_bonus_agility_14
p5857
V6170
p5858
sVspecial_bonus_agility_13
p5859
V6011
p5860
sVtinker_heat_seeking_missile
p5861
V5151
p5862
sVskeleton_king_reincarnation
p5863
V5089
p5864
sVspecial_bonus_agility_10
p5865
V6029
p5866
sVspecial_bonus_hp_250
p5867
V5903
p5868
sVspecial_bonus_unique_leshrac_1
p5869
V6063
p5870
sVspecial_bonus_unique_leshrac_3
p5871
V6672
p5872
sVspecial_bonus_unique_leshrac_2
p5873
V6240
p5874
sVabaddon_frostmourne
p5875
V5587
p5876
sVspecial_bonus_strength_8
p5877
V5982
p5878
sVspecial_bonus_strength_9
p5879
V6250
p5880
sVspecial_bonus_strength_6
p5881
V6048
p5882
sVspecial_bonus_strength_7
p5883
V6115
p5884
sVspecial_bonus_strength_4
p5885
V6005
p5886
sVspecial_bonus_strength_5
p5887
V5927
p5888
sVspecial_bonus_strength_3
p5889
V6002
p5890
sg3804
g1663
sVshadow_shaman_voodoo
p5891
V5079
p5892
sVgreevil_miniboss_white_degen_aura
p5893
V5545
p5894
sVenchantress_untouchable
p5895
V5267
p5896
sg1116
g5707
sVspecial_bonus_unique_drow_ranger_3
p5897
V6280
p5898
sVspecial_bonus_unique_drow_ranger_2
p5899
V6209
p5900
sVspecial_bonus_unique_drow_ranger_1
p5901
V6202
p5902
sVspecial_bonus_spell_block_20
p5903
V7035
p5904
sVspecial_bonus_unique_drow_ranger_4
p5905
V6634
p5906
sVitem_lifesteal
p5907
V26
p5908
sg3569
g2332
sg232
g231
sVspecial_bonus_gold_income_30
p5909
V6026
p5910
sVspecial_bonus_mp_300
p5911
V5990
p5912
sVsatyr_hellcaller_unholy_aura
p5913
V5317
p5914
sVdragon_knight_dragon_blood
p5915
V5228
p5916
sVdark_willow_terrorize
p5917
V8340
p5918
sVnpc_dota_lycan_wolf1
p5919
Vlycan wolf
p5920
sg2976
g2541
sVnpc_dota_hero_luna
p5921
g1514
sg27
g26
sVspecial_bonus_unique_sniper_4
p5922
V6897
p5923
sVitem_armlet
p5924
V151
p5925
sg1546
g4863
sVspecial_bonus_unique_morphling_3
p5926
V6698
p5927
sVspecial_bonus_unique_morphling_2
p5928
V6225
p5929
sVspecial_bonus_unique_morphling_1
p5930
V6062
p5931
sVspecial_bonus_unique_morphling_7
p5932
V7056
p5933
sVspecial_bonus_unique_morphling_6
p5934
V7052
p5935
sVspecial_bonus_unique_morphling_5
p5936
V6927
p5937
sVspecial_bonus_unique_morphling_4
p5938
V6840
p5939
sVnpc_dota_visage_familiar1
p5940
Vfamiliar
p5941
sVspecial_bonus_unique_morphling_8
p5942
V7060
p5943
sVspecial_bonus_lifesteal_100
p5944
V6721
p5945
sVspecial_bonus_unique_sniper_3
p5946
V6896
p5947
sVspecial_bonus_magic_resistance_15
p5948
V6138
p5949
sVspecial_bonus_unique_sniper_2
p5950
V6198
p5951
sVspecial_bonus_magic_resistance_10
p5952
V5937
p5953
sVspecial_bonus_magic_resistance_12
p5954
V6299
p5955
sg3471
g1626
sVphantom_assassin_stifling_dagger
p5956
V5190
p5957
sg384
Vnpc_dota_greevil_miniboss_white
p5958
sVspecial_bonus_unique_vengeful_spirit_6
p5959
V7018
p5960
sVspecial_bonus_unique_vengeful_spirit_5
p5961
V6978
p5962
sVspecial_bonus_unique_vengeful_spirit_4
p5963
V6977
p5964
sVspecial_bonus_unique_vengeful_spirit_3
p5965
V6057
p5966
sVspecial_bonus_unique_vengeful_spirit_2
p5967
V6237
p5968
sVspecial_bonus_unique_vengeful_spirit_1
p5969
V6310
p5970
sg176
g175
sg1888
Vnpc_dota_hero_monkey_king
p5971
sVitem_ring_of_regen
p5972
V27
p5973
sVgyrocopter_rocket_barrage
p5974
V5361
p5975
sVitem_abyssal_blade
p5976
V208
p5977
sg5958
g384
sVspecial_bonus_cleave_60
p5978
V6631
p5979
sVitem_butterfly
p5980
V139
p5981
sVinvoker_attribute_bonus
p5982
V5690
p5983
sVkeeper_of_the_light_spirit_form
p5984
V5474
p5985
sVitem_dagon_4
p5986
V203
p5987
sVitem_dagon_5
p5988
V204
p5989
sVitem_dagon_2
p5990
V201
p5991
sVitem_dagon_3
p5992
V202
p5993
sVspecial_bonus_unique_lich_2
p5994
V6292
p5995
sVspecial_bonus_unique_lich_3
p5996
V6387
p5997
sVspecial_bonus_unique_lich_1
p5998
V6039
p5999
sg2362
g4401
sVinvoker_forge_spirit
p6000
V5387
p6001
sVtemplar_assassin_meld
p6002
V5195
p6003
sVspecial_bonus_unique_slark
p6004
V6147
p6005
sVnpc_dota_badguys_tower1_mid
p6006
Vtower
p6007
sVspecial_bonus_unique_crystal_maiden_4
p6008
V7042
p6009
sg81
g80
sg5213
g1764
sVomniknight_guardian_angel
p6010
V5266
p6011
sVearth_spirit_boulder_smash
p6012
V5608
p6013
sg5214
g1869
sVenigma_midnight_pulse
p6014
V5148
p6015
sVitem_bracer
p6016
V73
p6017
sg285
g284
sVspecial_bonus_unique_medusa
p6018
V6182
p6019
sg2507
g4101
sVitem_ring_of_aquila
p6020
V212
p6021
sVspecial_bonus_unique_queen_of_pain_2
p6022
V6856
p6023
sVtroll_warlord_battle_trance
p6024
V5512
p6025
sVitem_recipe_maelstrom
p6026
V165
p6027
sg2298
g4389
sg4478
g907
sVsatyr_hellcaller_shockwave
p6028
V5316
p6029
sVember_spirit_flame_guard
p6030
V5605
p6031
sVspecial_bonus_unique_axe
p6032
V6102
p6033
sVitem_recipe_moon_shard
p6034
V246
p6035
sVelder_titan_echo_stomp_spirit
p6036
V5590
p6037
sVpuck_illusory_orb
p6038
V5069
p6039
sVgreevil_miniboss_red_earthshock
p6040
V5540
p6041
sVitem_recipe_yasha
p6042
V169
p6043
sVitem_recipe_urn_of_shadows
p6044
V91
p6045
sVlich_chain_frost
p6046
V5137
p6047
sVnaga_siren_song_of_the_siren
p6048
V5470
p6049
sg2787
g2392
sg3231
g1599
sVspecial_bonus_unique_storm_spirit
p6050
V6167
p6051
sVslardar_slithereen_crush
p6052
V5115
p6053
sVinvoker_quas
p6054
V5370
p6055
sVgreevil_laguna_blade
p6056
V5535
p6057
sVantimage_spell_shield
p6058
V5005
p6059
sVspecial_bonus_attack_range_200
p6060
V5945
p6061
sVnpc_dota_goodguys_tower2_bot
p6062
Vtower
p6063
sg497
g5270
sg107
g106
sVkeeper_of_the_light_empty1
p6064
V5501
p6065
sVkeeper_of_the_light_empty2
p6066
V5502
p6067
sVspecial_bonus_mp_regen_4
p6068
V5916
p6069
sVspecial_bonus_mp_regen_5
p6070
V6410
p6071
sVspecial_bonus_mp_regen_6
p6072
V5980
p6073
sVspecial_bonus_mp_regen_1
p6074
V5915
p6075
sVspecial_bonus_mp_regen_2
p6076
V5961
p6077
sVspecial_bonus_mp_regen_3
p6078
V6160
p6079
sVdark_seer_vacuum
p6080
V5255
p6081
sVmudgolem_cloak_aura
p6082
V5688
p6083
sg5971
g1888
sVitem_blade_of_alacrity
p6084
V22
p6085
sVgreevil_diabolic_edict
p6086
V5532
p6087
sVkobold_taskmaster_speed_aura
p6088
V5293
p6089
sg1168
g4884
sVenigma_black_hole
p6090
V5149
p6091
sg755
g5630
sVundying_soul_rip
p6092
V5443
p6093
sVpuck_waning_rift
p6094
V5071
p6095
sVspecial_bonus_unique_riki_3
p6096
V6865
p6097
sg5539
Vmega ranged creep
p6098
sVnpc_dota_badguys_melee_rax_top
p6099
g1798
sVitem_recipe_bracer
p6100
V72
p6101
sVstorm_spirit_overload
p6102
V5100
p6103
sVdisruptor_static_storm
p6104
V5461
p6105
sVterrorblade_sunder
p6106
V5622
p6107
sVspecial_bonus_corruption_4
p6108
V7011
p6109
sVphoenix_icarus_dive
p6110
V5623
p6111
sVforged_spirit_melting_strike
p6112
V5388
p6113
sg240
g239
sVcourier_go_to_secretshop
p6114
V5492
p6115
sVitem_blink
p6116
V1
sVspecial_bonus_vision_200
p6117
V6228
p6118
sg4706
g1132
sVitem_soul_ring
p6119
V178
p6120
sVarc_warden_magnetic_field
p6121
V5678
p6122
sVgreevil_purification
p6123
V5561
p6124
sVslardar_sprint
p6125
V5114
p6126
sVcrystal_maiden_frostbite
p6127
V5127
p6128
sVitem_recipe_glimmer_cape
p6129
V253
p6130
sVnpc_dota_creep_goodguys_ranged_upgraded
p6131
g497
sVspecial_bonus_attack_speed_140
p6132
V6555
p6133
sVspecial_bonus_unique_chaos_knight
p6134
V6133
p6135
sVsandking_burrowstrike
p6136
V5102
p6137
sVnpc_dota_beastmaster_boar
p6138
Vboar
p6139
sVitem_cyclone
p6140
V100
p6141
sg4974
g1780
sVdrow_ranger_silence
p6142
V5020
p6143
sVnevermore_necromastery
p6144
V5062
p6145
sVspecial_bonus_unique_chen_4
p6146
V6535
p6147
sVspecial_bonus_unique_chen_2
p6148
V6260
p6149
sVtemplar_assassin_psionic_trap
p6150
V5197
p6151
sVvengefulspirit_wave_of_terror
p6152
V5124
p6153
sVspecial_bonus_unique_chen_1
p6154
V6259
p6155
sVspecial_bonus_intelligence_12
p6156
V5926
p6157
sVspecial_bonus_unique_huskar_2
p6158
V6380
p6159
sVspecial_bonus_intelligence_10
p6160
V5965
p6161
sVspecial_bonus_unique_phantom_lancer_4
p6162
V6850
p6163
sVspecial_bonus_intelligence_16
p6164
V6332
p6165
sVspecial_bonus_intelligence_14
p6166
V6567
p6167
sVcourier_return_stash_items
p6168
V5207
p6169
sVsandking_sand_storm
p6170
V5103
p6171
sg1514
g5921
sVspawnlord_master_stomp
p6172
V6270
p6173
sVdark_willow_cursed_crown
p6174
V6342
p6175
sVspecial_bonus_agility_20
p6176
V5962
p6177
sVspecial_bonus_agility_25
p6178
V6150
p6179
sVtechies_focused_detonate
p6180
V5635
p6181
sVspecial_bonus_unique_monkey_king
p6182
V6303
p6183
sVvengefulspirit_nether_swap
p6184
V5125
p6185
sVitem_basher
p6186
V143
p6187
sg4333
g2029
sVspecial_bonus_gold_income_25
p6188
V5957
p6189
sVshadow_demon_demonic_purge
p6190
V5425
p6191
sVspecial_bonus_gold_income_20
p6192
V6008
p6193
sVitem_tpscroll
p6194
V46
p6195
sVogre_magi_ignite
p6196
V5439
p6197
sg1796
g4537
sVspecial_bonus_attack_range_50
p6198
V5992
p6199
sVspecial_bonus_unique_terrorblade_3
p6200
V6943
p6201
sVspecial_bonus_unique_terrorblade_2
p6202
V6942
p6203
sVbane_fiends_grip
p6204
V5013
p6205
sg4972
Vfire
p6206
sVspecial_bonus_unique_pugna_3
p6207
V6403
p6208
sg3414
Vroshling
p6209
sg5783
g2631
sVtusk_walrus_punch
p6210
V5568
p6211
sVitem_refresher_shard
p6212
V260
p6213
sVspecial_bonus_unique_broodmother_1
p6214
V6257
p6215
sVspecial_bonus_unique_broodmother_2
p6216
V6258
p6217
sVspecial_bonus_unique_broodmother_3
p6218
V6361
p6219
sVspecial_bonus_unique_broodmother_4
p6220
V6362
p6221
sg835
g3204
sVspecial_bonus_hp_800
p6222
V6905
p6223
sVitem_smoke_of_deceit
p6224
V188
p6225
sVspecial_bonus_cast_range_175
p6226
V6120
p6227
sVspecial_bonus_mp_200
p6228
V6094
p6229
sg2133
g4969
sVitem_vladmir
p6230
V81
p6231
sg2155
Vnpc_dota_hero_tidehunter
p6232
sVtemplar_assassin_psi_blades
p6233
V5196
p6234
sVgreevil_miniboss_orange_light_strike_array
p6235
V5573
p6236
sVspecial_bonus_unique_bristleback
p6237
V6083
p6238
sg276
g275
sVnpc_dota_beastmaster_hawk_1
p6239
Vhawk
p6240
sVwitch_doctor_death_ward
p6241
V5141
p6242
sVrubick_telekinesis_land
p6243
V5449
p6244
sVchen_test_of_faith
p6245
V5329
p6246
sg3113
g2343
sVvisage_gravekeepers_cloak
p6247
V5482
p6248
sVgreevil_miniboss_white_purification
p6249
V5544
p6250
sVnpc_dota_beastmaster_hawk_4
p6251
Vhawk
p6252
sVnaga_siren_rip_tide
p6253
V5469
p6254
sg5698
g1570
sVspecial_bonus_unique_viper_4
p6255
V6820
p6256
sVgreevil_rot
p6257
V5564
p6258
sVspecial_bonus_unique_viper_1
p6259
V6156
p6260
sg5500
g2427
sVspecial_bonus_unique_viper_3
p6261
V6819
p6262
sVspecial_bonus_unique_viper_2
p6263
V6165
p6264
sg6232
g2155
sg4436
g572
sg3064
g626
sg2660
g773
sVkeeper_of_the_light_spirit_form_illuminate_end
p6265
V5503
p6266
sVmirana_leap
p6267
V5050
p6268
sVdeath_prophet_exorcism
p6269
V5093
p6270
sg2505
g2505
sg1703
g4640
sVviper_nethertoxin
p6271
V5219
p6272
sVitem_kaya
p6273
V259
p6274
sVitem_claymore
p6275
V5
sValpha_wolf_critical_strike
p6276
V5308
p6277
sVspecial_bonus_unique_clockwerk
p6278
V5977
p6279
sg2559
g4801
sVitem_platemail
p6280
V9
sVspecial_bonus_unique_night_stalker_2
p6281
V6704
p6282
sValchemist_chemical_rage
p6283
V5369
p6284
s.