(dp1
Vitem_satanic
p2
V156
p3
sVitem_recipe_helm_of_the_dominator
p4
V163
p5
sVtiny_avalanche
p6
V5106
p7
sVdoom_bringer_devour
p8
V5339
p9
sVspecial_bonus_cast_range_300
p10
V6213
p11
sVitem_eagle
p12
V52
p13
sVtinker_march_of_the_machines
p14
V5152
p15
sVbig_thunder_lizard_frenzy
p16
V5333
p17
sVitem_recipe_null_talisman
p18
V76
p19
sVitem_magic_wand
p20
V36
p21
sVlina_dragon_slave
p22
V5040
p23
sVnpc_dota_hero_abyssal_underlord
p24
Vunderlord
p25
sVnpc_dota_broodmother_spiderling
p26
Vspiderling
p27
sVspecial_bonus_unique_windranger_3
p28
V6562
p29
sVspecial_bonus_unique_windranger_2
p30
V6413
p31
sVspecial_bonus_unique_windranger_5
p32
V6993
p33
sVspecial_bonus_unique_windranger_4
p34
V6992
p35
sVspecial_bonus_unique_windranger_6
p36
V7062
p37
sVrubick_telekinesis
p38
V5448
p39
sVpuck_dream_coil
p40
V5073
p41
sVspecial_bonus_attack_speed_250
p42
V7020
p43
sVphoenix sun
p44
Vnpc_dota_phoenix_sun
p45
sVitem_gloves
p46
V25
p47
sVspecial_bonus_unique_oracle
p48
V6206
p49
sVtidehunter_anchor_smash
p50
V5120
p51
sVursa_enrage
p52
V5360
p53
sVrazor_unstable_current
p54
V5084
p55
sVspecial_bonus_movement_speed_90
p56
V6706
p57
sVbatrider
p58
Vnpc_dota_hero_batrider
p59
sVelder_titan_natural_order_spirit
p60
V5750
p61
sVnpc_dota_hero_antimage
p62
Vanti-mage
p63
sVnpc_dota_goodguys_siege_upgraded_mega
p64
Vmega siege creep
p65
sVspectre_haunt
p66
V5337
p67
sVspecial_bonus_unique_undying
p68
V6155
p69
sVdazzle_poison_touch
p70
V5233
p71
sVspecial_bonus_unique_dragon_knight
p72
V6090
p73
sVspecial_bonus_mp_regen_175
p74
V6926
p75
sVnpc_dota_hero_tiny
p76
Vtiny
p77
sVspecial_bonus_unique_venomancer
p78
V6058
p79
sVchen
p80
Vnpc_dota_hero_chen
p81
sVitem_talisman_of_evasion
p82
V32
p83
sVtreant protector
p84
Vnpc_dota_hero_treant
p85
sVitem_recipe_force_staff
p86
V101
p87
sVbane_enfeeble
p88
V5012
p89
sValchemist_goblins_greed
p90
V5368
p91
sVnpc_dota_warlock_golem_1
p92
Vwarlock golem
p93
sVnpc_dota_warlock_golem_2
p94
Vwarlock golem
p95
sVnpc_dota_warlock_golem_3
p96
Vwarlock golem
p97
sVinvoker_ghost_walk
p98
V5381
p99
sVspecial_bonus_respawn_reduction_60
p100
V6059
p101
sVnpc_dota_neutral_alpha_wolf
p102
Valpha wolf
p103
sVnpc_dota_juggernaut_healing_ward
p104
Vhealing ward
p105
sVoutworld devourer
p106
Vnpc_dota_hero_obsidian_destroyer
p107
sVmedusa_split_shot
p108
V5504
p109
sVterrorblade_conjure_image
p110
V5620
p111
sVgreevil_time_lock
p112
V5555
p113
sVitem_recipe_vanguard
p114
V124
p115
sVspawnlord_aura
p116
V6125
p117
sVnpc_dota_hero_terrorblade
p118
Vterrorblade
p119
sVnpc_dota_goodguys_tower2_mid
p120
Vtower
p121
sValchemist
p122
Vnpc_dota_hero_alchemist
p123
sVnpc_dota_neutral_centaur_outrunner
p124
Vcentaur courser
p125
sVpangolier_swashbuckle
p126
V6344
p127
sVspecial_bonus_hp_300
p128
V5993
p129
sVdark_seer_surge
p130
V5257
p131
sVnpc_dota_hero_dark_seer
p132
Vdark seer
p133
sVspecial_bonus_unique_warlock_4
p134
V6505
p135
sVspecial_bonus_unique_warlock_5
p136
V6982
p137
sVspecial_bonus_unique_warlock_6
p138
V6986
p139
sVriki_blink_strike
p140
V5143
p141
sVspecial_bonus_unique_warlock_1
p142
V6053
p143
sVspecial_bonus_unique_warlock_2
p144
V6054
p145
sVspecial_bonus_unique_warlock_3
p146
V6412
p147
sVsandking_caustic_finale
p148
V5104
p149
sVspecial_bonus_unique_slark_2
p150
V6892
p151
sVspecial_bonus_unique_slark_3
p152
V6893
p153
sVspecial_bonus_unique_slark_4
p154
V6894
p155
sVpudge_meat_hook
p156
V5075
p157
sVnpc_dota_hero_night_stalker
p158
Vnight stalker
p159
sVmonkey_king_boundless_strike
p160
V5716
p161
sVspecial_bonus_unique_night_stalker
p162
V6129
p163
sVnpc_dota_badguys_melee_rax_bot
p164
Vmelee barracks
p165
sVoracle_purifying_flames
p166
V5639
p167
sVabyssal_underlord_atrophy_aura
p168
V5615
p169
sVnpc_dota_looping_sound
p170
g170
sVitem_recipe_desolator
p171
V167
p172
sVnpc_dota_goodguys_tower2_top
p173
Vtower
p174
sVpudge
p175
Vnpc_dota_hero_pudge
p176
sVnpc_dota_neutral_enraged_wildkin
p177
Vwildwing ripper
p178
sVphantom lancer
p179
Vnpc_dota_hero_phantom_lancer
p180
sVgreevil_cold_snap
p181
V5530
p182
sVmagnataur_reverse_polarity
p183
V5521
p184
sVitem_rod_of_atos
p185
V206
p186
sVspecial_bonus_intelligence_20
p187
V5995
p188
sVitem_vanguard
p189
V125
p190
sVomniknight
p191
Vnpc_dota_hero_omniknight
p192
sVitem_heart
p193
V114
p194
sVaxe_culling_blade
p195
V5010
p196
sVspecial_bonus_unique_weaver_1
p197
V6200
p198
sVspecial_bonus_unique_weaver_2
p199
V6131
p200
sVspecial_bonus_unique_weaver_3
p201
V6988
p202
sVspecial_bonus_unique_weaver_4
p203
V6989
p204
sVspecial_bonus_unique_weaver_5
p205
V6990
p206
sVitem_hyperstone
p207
V55
p208
sVroquelaire
p209
Vnpc_dota_roquelaire
p210
sVitem_cloak
p211
V31
p212
sVspecial_bonus_hp_275
p213
V6311
p214
sVsniper_shrapnel
p215
V5154
p216
sVitem_recipe_mjollnir
p217
V157
p218
sVspecial_bonus_unique_tinker_3
p219
V6953
p220
sVspecial_bonus_unique_tinker_2
p221
V6952
p222
sVspecial_bonus_agility_30
p223
V6406
p224
sVitem_recipe_refresher
p225
V109
p226
sVnpc_dota_neutral_harpy_storm
p227
Vharpy stormcrafter
p228
sVspecial_bonus_unique_phantom_assassin
p229
V6192
p230
sVclockwerk
p231
Vnpc_dota_hero_rattletrap
p232
sVnpc_dota_warlock_golem_scepter_1
p233
Vwarlock golem
p234
sVitem_recipe_vladmir
p235
V80
p236
sVspecial_bonus_gold_income_50
p237
V6318
p238
sVancient stalker
p239
Vnpc_dota_neutral_jungle_stalker
p240
sVforest_troll_high_priest_mana_aura
p241
V5491
p242
sVitem_recipe_heart
p243
V113
p244
sVrubick
p245
Vnpc_dota_hero_rubick
p246
sVenchantress
p247
Vnpc_dota_hero_enchantress
p248
sVitem_recipe_ancient_janggo
p249
V184
p250
sVvenomancer_plague_ward
p251
V5180
p252
sVnpc_dota_broodmother_web
p253
Vspin web
p254
sVelder_titan_echo_stomp
p255
V5589
p256
sVspecial_bonus_attack_range_300
p257
V6051
p258
sVdrow_ranger_trueshot
p259
V5021
p260
sVitem_necronomicon_2
p261
V193
p262
sVitem_necronomicon_3
p263
V194
p264
sVspecial_bonus_unique_underlord
p265
V6019
p266
sVitem_gauntlets
p267
V13
p268
sVspecial_bonus_unique_spirit_breaker_2
p269
V6296
p270
sVspecial_bonus_unique_spirit_breaker_3
p271
V6543
p272
sVspecial_bonus_unique_spirit_breaker_1
p273
V6149
p274
sVcrafty megagreevil
p275
Vnpc_dota_greevil_miniboss_yellow
p276
sVdragon_knight_elder_dragon_form
p277
V5229
p278
sVspecial_bonus_unique_necrophos_4
p279
V7111
p280
sVitem_javelin
p281
V7
sVspecial_bonus_unique_necrophos_2
p282
V6703
p283
sVspecial_bonus_unique_necrophos_3
p284
V7110
p285
sVpuck
p286
Vnpc_dota_hero_puck
p287
sVlycan_howl
p288
V5396
p289
sVfaceless_void_backtrack
p290
V5183
p291
sVblue_dragonspawn_sorcerer_evasion
p292
V5325
p293
sVnpc_dota_neutral_kobold_tunneler
p294
Vkobold soldier
p295
sVitem_recipe_blade_mail
p296
V126
p297
sVitem_spirit_vessel
p298
V267
p299
sVnpc_dota_hero_lion
p300
Vlion
p301
sVbatrider_flamebreak
p302
V5321
p303
sValpha_wolf_command_aura
p304
V5309
p305
sVitem_recipe_wraith_band
p306
V74
p307
sVnpc_dota_hero_shadow_demon
p308
Vshadow demon
p309
sVmedusa
p310
Vnpc_dota_hero_medusa
p311
sVroshan_spell_block
p312
V5213
p313
sVhill troll priest
p314
Vnpc_dota_neutral_forest_troll_high_priest
p315
sVtiny_toss
p316
V5107
p317
sVnpc_dota_lesser_eidolon
p318
Vlesser eidolon
p319
sVnpc_dota_badguys_siege_upgraded
p320
Vsuper siege creep
p321
sVspecial_bonus_attack_speed_80
p322
V6030
p323
sVviper_corrosive_skin
p324
V5220
p325
sVitem_orb_of_venom
p326
V181
p327
sVitem_recipe_nullifier
p328
V224
p329
sVspecial_bonus_unique_omniknight_1
p330
V5981
p331
sVspecial_bonus_unique_omniknight_2
p332
V6300
p333
sVspecial_bonus_unique_omniknight_3
p334
V6709
p335
sVspecial_bonus_unique_phantom_assassin_3
p336
V6848
p337
sVspecial_bonus_unique_phantom_assassin_2
p338
V6847
p339
sVnpc_dota_neutral_harpy_scout
p340
Vharpy scout
p341
sVgiant_wolf_critical_strike
p342
V5307
p343
sVcourier_transfer_items
p344
V5206
p345
sg341
g340
sVitem_mantle
p346
V15
p347
sVattribute_bonus
p348
V5002
p349
sVbounty_hunter_shuriken_toss
p350
V5285
p351
sVtinker_rearm
p352
V5153
p353
sVancient_apparition_chilling_touch
p354
V5347
p355
sVitem_recipe_sheepstick
p356
V95
p357
sVroshan_halloween_wave_of_force
p358
V9993
p359
sVbatrider_firefly
p360
V5322
p361
sS'ability_order'
p362
(dp363
Vmega siege creep
p364
(lp365
V
aV
aV
aV
aV
aV
aV
aV
asVnaga siren
p366
(lp367
Vnaga_siren_mirror_image
p368
aVnaga_siren_ensnare
p369
aVnaga_siren_rip_tide
p370
aVgeneric_hidden
p371
aVgeneric_hidden
p372
aVnaga_siren_song_of_the_siren
p373
aVnaga_siren_song_of_the_siren_cancel
p374
aVspecial_bonus_movement_speed_25
p375
aVspecial_bonus_unique_naga_siren_4
p376
aVspecial_bonus_agility_15
p377
aVspecial_bonus_strength_14
p378
aVspecial_bonus_unique_naga_siren_2
p379
aVspecial_bonus_unique_naga_siren
p380
aVspecial_bonus_evasion_30
p381
aVspecial_bonus_unique_naga_siren_3
p382
asVradiant's ancient
p383
(lp384
Vbackdoor_protection_in_base
p385
aV
aV
aV
aV
aV
aV
aV
asVdivine megagreevil
p386
(lp387
Vgreevil_miniboss_white_purification
p388
aVgreevil_miniboss_white_degen_aura
p389
aVgreevil_miniboss_sight
p390
aV
asVbeetle
p391
(lp392
V
aV
aV
aV
asVdiretide crawler
p393
(lp394
V
aV
aV
aV
aV
aV
aV
aV
asVnpc_dota_wisp_spirit
p395
(lp396
V
aV
aV
aV
asVmega ranged creep
p397
(lp398
V
aV
aV
aV
aV
aV
aV
aV
asg310
(lp399
Vmedusa_split_shot
p400
aVmedusa_mystic_snake
p401
aVmedusa_mana_shield
p402
aVgeneric_hidden
p403
aVgeneric_hidden
p404
aVmedusa_stone_gaze
p405
aVspecial_bonus_attack_damage_20
p406
aVspecial_bonus_evasion_15
p407
aVspecial_bonus_attack_speed_30
p408
aVspecial_bonus_unique_medusa_3
p409
aVspecial_bonus_mp_700
p410
aVspecial_bonus_unique_medusa
p411
aVspecial_bonus_unique_medusa_2
p412
aVspecial_bonus_unique_medusa_4
p413
asg314
(lp414
Vforest_troll_high_priest_heal
p415
aVforest_troll_high_priest_mana_aura
p416
aV
aV
asVmelee creep
p417
(lp418
V
aV
aV
aV
aV
aV
aV
aV
asg103
(lp419
Valpha_wolf_critical_strike
p420
aValpha_wolf_command_aura
p421
aV
aV
asVnpc_dota_treant_eyes
p422
(lp423
V
aV
aV
aV
aV
asVfrozen megagreevil
p424
(lp425
Vgreevil_miniboss_blue_cold_feet
p426
aVgreevil_miniboss_blue_ice_vortex
p427
aVgreevil_miniboss_sight
p428
aV
asVhellbear smasher
p429
(lp430
Vpolar_furbolg_ursa_warrior_thunder_clap
p431
aVcentaur_khan_endurance_aura
p432
aV
aV
asg209
(lp433
V
aV
aV
aV
asVfell spirit
p434
(lp435
V
aV
aV
aV
asVproximity mine
p436
(lp437
V
aV
aV
aV
asVnpc_dota_halloween_chaos_unit
p438
(lp439
V
aV
aV
aV
aV
aV
aV
aV
asVspiderite
p440
(lp441
V
aV
aV
aV
aV
aV
aV
aV
asVundying
p442
(lp443
Vundying_decay
p444
aVundying_soul_rip
p445
aVundying_tombstone
p446
aVgeneric_hidden
p447
aVgeneric_hidden
p448
aVundying_flesh_golem
p449
aVspecial_bonus_cast_range_150
p450
aVspecial_bonus_hp_regen_8
p451
aVspecial_bonus_unique_undying_3
p452
aVspecial_bonus_unique_undying_4
p453
aVspecial_bonus_unique_undying
p454
aVspecial_bonus_unique_undying_5
p455
aVspecial_bonus_reincarnation_200
p456
aVspecial_bonus_unique_undying_2
p457
asVriki
p458
(lp459
Vriki_smoke_screen
p460
aVriki_blink_strike
p461
aVriki_permanent_invisibility
p462
aVgeneric_hidden
p463
aVgeneric_hidden
p464
aVriki_tricks_of_the_trade
p465
aVspecial_bonus_hp_regen_5
p466
aVspecial_bonus_agility_8
p467
aVspecial_bonus_20_crit_15
p468
aVspecial_bonus_unique_riki_2
p469
aVspecial_bonus_unique_riki_1
p470
aVspecial_bonus_unique_riki_3
p471
aVspecial_bonus_unique_riki_4
p472
aVspecial_bonus_unique_riki_5
p473
asVnpc_dota_roshan_halloween_minion
p474
(lp475
V
aV
aV
aV
aV
aV
aV
aV
asVdire year beast
p476
(lp477
Vcny_beast_force_attack
p478
aVcny_beast_teleport
p479
aV
aV
aV
aV
aV
aV
asVsiege creep
p480
(lp481
V
aV
aV
aV
aV
aV
aV
aV
asVtusk
p482
(lp483
Vtusk_ice_shards
p484
aVtusk_snowball
p485
aVtusk_frozen_sigil
p486
aVtusk_walrus_kick
p487
aVgeneric_hidden
p488
aVtusk_walrus_punch
p489
aVtusk_launch_snowball
p490
aVspecial_bonus_exp_boost_40
p491
aVspecial_bonus_gold_income_15
p492
aVspecial_bonus_hp_350
p493
aVspecial_bonus_unique_tusk_2
p494
aVspecial_bonus_unique_tusk_3
p495
aVspecial_bonus_unique_tusk
p496
aVspecial_bonus_unique_tusk_4
p497
aVspecial_bonus_unique_tusk_5
p498
asVsuper ranged creep
p499
(lp500
V
aV
aV
aV
aV
aV
aV
aV
asVnpc_dota_stormspirit_remnant
p501
(lp502
V
aV
aV
aV
asVsniper
p503
(lp504
Vsniper_shrapnel
p505
aVsniper_headshot
p506
aVsniper_take_aim
p507
aVgeneric_hidden
p508
aVgeneric_hidden
p509
aVsniper_assassinate
p510
aVspecial_bonus_cooldown_reduction_15
p511
aVspecial_bonus_attack_damage_20
p512
aVspecial_bonus_attack_speed_40
p513
aVspecial_bonus_unique_sniper_1
p514
aVspecial_bonus_unique_sniper_3
p515
aVspecial_bonus_unique_sniper_4
p516
aVspecial_bonus_attack_range_125
p517
aVspecial_bonus_unique_sniper_2
p518
asg159
(lp519
Vnight_stalker_void
p520
aVnight_stalker_crippling_fear
p521
aVnight_stalker_hunter_in_the_night
p522
aVgeneric_hidden
p523
aVgeneric_hidden
p524
aVnight_stalker_darkness
p525
aVspecial_bonus_hp_200
p526
aVspecial_bonus_mp_200
p527
aVspecial_bonus_strength_15
p528
aVspecial_bonus_cast_range_150
p529
aVspecial_bonus_movement_speed_50
p530
aVspecial_bonus_attack_damage_50
p531
aVspecial_bonus_unique_night_stalker_2
p532
aVspecial_bonus_unique_night_stalker
p533
asg133
(lp534
Vdark_seer_vacuum
p535
aVdark_seer_ion_shell
p536
aVdark_seer_surge
p537
aVgeneric_hidden
p538
aVgeneric_hidden
p539
aVdark_seer_wall_of_replica
p540
aVspecial_bonus_evasion_12
p541
aVspecial_bonus_attack_damage_90
p542
aVspecial_bonus_hp_regen_12
p543
aVspecial_bonus_unique_dark_seer_2
p544
aVspecial_bonus_cooldown_reduction_15
p545
aVspecial_bonus_unique_dark_seer_3
p546
aVspecial_bonus_unique_dark_seer_4
p547
aVspecial_bonus_unique_dark_seer
p548
asg341
(lp549
V
aV
aV
aV
asVpugna
p550
(lp551
Vpugna_nether_blast
p552
aVpugna_decrepify
p553
aVpugna_nether_ward
p554
aVgeneric_hidden
p555
aVgeneric_hidden
p556
aVpugna_life_drain
p557
aVspecial_bonus_movement_speed_25
p558
aVspecial_bonus_hp_225
p559
aVspecial_bonus_unique_pugna_4
p560
aVspecial_bonus_unique_pugna_6
p561
aVspecial_bonus_unique_pugna_1
p562
aVspecial_bonus_unique_pugna_5
p563
aVspecial_bonus_unique_pugna_2
p564
aVspecial_bonus_unique_pugna_3
p565
asVstone remnant
p566
(lp567
V
aV
aV
aV
asVsatyr mindstealer
p568
(lp569
Vsatyr_soulstealer_mana_burn
p570
aV
aV
aV
asVranged barracks
p571
(lp572
Vbackdoor_protection_in_base
p573
aV
aV
aV
aV
aV
aV
aV
asVwitch doctor
p574
(lp575
Vwitch_doctor_paralyzing_cask
p576
aVwitch_doctor_voodoo_restoration
p577
aVwitch_doctor_maledict
p578
aVgeneric_hidden
p579
aVgeneric_hidden
p580
aVwitch_doctor_death_ward
p581
aVspecial_bonus_attack_damage_75
p582
aVspecial_bonus_armor_5
p583
aVspecial_bonus_unique_witch_doctor_3
p584
aVspecial_bonus_gold_income_20
p585
aVspecial_bonus_unique_witch_doctor_1
p586
aVspecial_bonus_unique_witch_doctor_4
p587
aVspecial_bonus_unique_witch_doctor_2
p588
aVspecial_bonus_unique_witch_doctor_5
p589
asVnpc_dota_rattletrap_rocket
p590
(lp591
V
aV
aV
aV
asVbane
p592
(lp593
Vbane_enfeeble
p594
aVbane_brain_sap
p595
aVbane_nightmare
p596
aVgeneric_hidden
p597
aVgeneric_hidden
p598
aVbane_fiends_grip
p599
aVbane_nightmare_end
p600
aVspecial_bonus_armor_6
p601
aVspecial_bonus_cast_range_100
p602
aVspecial_bonus_unique_bane_4
p603
aVspecial_bonus_exp_boost_40
p604
aVspecial_bonus_unique_bane_1
p605
aVspecial_bonus_movement_speed_75
p606
aVspecial_bonus_unique_bane_2
p607
aVspecial_bonus_unique_bane_3
p608
asVwindranger
p609
(lp610
Vwindrunner_shackleshot
p611
aVwindrunner_powershot
p612
aVwindrunner_windrun
p613
aVgeneric_hidden
p614
aVgeneric_hidden
p615
aVwindrunner_focusfire
p616
aVspecial_bonus_mp_regen_175
p617
aVspecial_bonus_unique_windranger_2
p618
aVspecial_bonus_unique_windranger_3
p619
aVspecial_bonus_attack_range_100
p620
aVspecial_bonus_unique_windranger_6
p621
aVspecial_bonus_unique_windranger
p622
aVspecial_bonus_unique_windranger_4
p623
aVspecial_bonus_cooldown_reduction_30
p624
asg44
(lp625
V
aV
aV
aV
asVancient rock golem
p626
(lp627
V
aV
aV
aV
asVancient rumblehide
p628
(lp629
V
aV
aV
aV
asVhill troll berserker
p630
(lp631
V
aV
aV
aV
asVkobold
p632
(lp633
V
aV
aV
aV
asVwraith king skeleton
p634
(lp635
V
aV
aV
aV
aV
aV
aV
aV
asVrotten greevil minion
p636
(lp637
V
aV
aV
aV
asVplague ward
p638
(lp639
V
aV
aV
aV
aV
asVember spirit
p640
(lp641
sg58
(lp642
Vbatrider_sticky_napalm
p643
aVbatrider_flamebreak
p644
aVbatrider_firefly
p645
aVgeneric_hidden
p646
aVgeneric_hidden
p647
aVbatrider_flaming_lasso
p648
aVspecial_bonus_spell_amplify_6
p649
aVspecial_bonus_armor_5
p650
aVspecial_bonus_unique_batrider_3
p651
aVspecial_bonus_hp_300
p652
aVspecial_bonus_cooldown_reduction_15
p653
aVspecial_bonus_movement_speed_50
p654
aVspecial_bonus_unique_batrider_1
p655
aVspecial_bonus_unique_batrider_2
p656
asVsuper siege creep
p657
(lp658
V
aV
aV
aV
aV
aV
aV
aV
asg105
(lp659
V
aV
aV
aV
aV
aV
aV
aV
asVearth spirit
p660
(lp661
Vearth_spirit_boulder_smash
p662
aVearth_spirit_rolling_boulder
p663
aVearth_spirit_geomagnetic_grip
p664
aVearth_spirit_stone_caller
p665
aVearth_spirit_petrify
p666
aVearth_spirit_magnetize
p667
aVspecial_bonus_intelligence_10
p668
aVspecial_bonus_attack_damage_40
p669
aVspecial_bonus_armor_7
p670
aVspecial_bonus_unique_earth_spirit
p671
aVspecial_bonus_spell_amplify_15
p672
aVspecial_bonus_gold_income_25
p673
aVspecial_bonus_unique_earth_spirit_2
p674
aVspecial_bonus_unique_earth_spirit_3
p675
asVabaddon
p676
(lp677
Vabaddon_death_coil
p678
aVabaddon_aphotic_shield
p679
aVabaddon_frostmourne
p680
aVgeneric_hidden
p681
aVgeneric_hidden
p682
aVabaddon_borrowed_time
p683
aVspecial_bonus_movement_speed_25
p684
aVspecial_bonus_exp_boost_20
p685
aVspecial_bonus_armor_6
p686
aVspecial_bonus_unique_abaddon_2
p687
aVspecial_bonus_cooldown_reduction_20
p688
aVspecial_bonus_attack_damage_90
p689
aVspecial_bonus_unique_abaddon
p690
aVspecial_bonus_unique_abaddon_3
p691
asVkunkka
p692
(lp693
Vkunkka_torrent
p694
aVkunkka_tidebringer
p695
aVkunkka_x_marks_the_spot
p696
aVgeneric_hidden
p697
aVgeneric_hidden
p698
aVkunkka_ghostship
p699
aVkunkka_return
p700
aVspecial_bonus_attack_damage_40
p701
aVspecial_bonus_armor_6
p702
aVspecial_bonus_hp_regen_10
p703
aVspecial_bonus_unique_kunkka_2
p704
aVspecial_bonus_unique_kunkka
p705
aVspecial_bonus_strength_25
p706
aVspecial_bonus_unique_kunkka_3
p707
aVspecial_bonus_unique_kunkka_4
p708
asVroshling
p709
(lp710
V
aV
aV
aV
aV
aV
aV
aV
asVparadox memorial
p711
(lp712
V
aV
aV
aV
aV
asVdire eidolon
p713
(lp714
V
aV
aV
aV
aV
aV
aV
aV
asVnpc_dota_invisible_vision_source
p715
(lp716
sVphoenix
p717
(lp718
Vphoenix_icarus_dive
p719
aVphoenix_fire_spirits
p720
aVphoenix_sun_ray
p721
aVphoenix_sun_ray_toggle_move
p722
aVgeneric_hidden
p723
aVphoenix_supernova
p724
aVphoenix_launch_fire_spirit
p725
aVphoenix_icarus_dive_stop
p726
aVphoenix_sun_ray_stop
p727
aVspecial_bonus_gold_income_15
p728
aVspecial_bonus_spell_amplify_8
p729
aVspecial_bonus_unique_phoenix_3
p730
aVspecial_bonus_hp_500
p731
aVspecial_bonus_unique_phoenix_4
p732
aVspecial_bonus_unique_phoenix_2
p733
aVspecial_bonus_unique_phoenix_1
p734
aVspecial_bonus_unique_phoenix_5
p735
asVscorching megagreevil
p736
(lp737
Vgreevil_miniboss_orange_dragon_slave
p738
aVgreevil_miniboss_orange_light_strike_array
p739
aVgreevil_miniboss_sight
p740
aV
asVweaver
p741
(lp742
Vweaver_the_swarm
p743
aVweaver_shukuchi
p744
aVweaver_geminate_attack
p745
aVgeneric_hidden
p746
aVgeneric_hidden
p747
aVweaver_time_lapse
p748
aVspecial_bonus_mana_break_20
p749
aVspecial_bonus_exp_boost_35
p750
aVspecial_bonus_strength_12
p751
aVspecial_bonus_unique_weaver_1
p752
aVspecial_bonus_unique_weaver_3
p753
aVspecial_bonus_unique_weaver_4
p754
aVspecial_bonus_unique_weaver_2
p755
aVspecial_bonus_unique_weaver_5
p756
asVcentaur warrunner
p757
(lp758
Vcentaur_hoof_stomp
p759
aVcentaur_double_edge
p760
aVcentaur_return
p761
aVgeneric_hidden
p762
aVgeneric_hidden
p763
aVcentaur_stampede
p764
aVspecial_bonus_evasion_10
p765
aVspecial_bonus_magic_resistance_10
p766
aVspecial_bonus_attack_damage_75
p767
aVspecial_bonus_unique_centaur_3
p768
aVspecial_bonus_unique_centaur_4
p769
aVspecial_bonus_strength_20
p770
aVspecial_bonus_unique_centaur_1
p771
aVspecial_bonus_unique_centaur_2
p772
asVvicious greevil minion
p773
(lp774
V
aV
aV
aV
asVclinkz
p775
(lp776
Vclinkz_strafe
p777
aVclinkz_searing_arrows
p778
aVclinkz_wind_walk
p779
aVgeneric_hidden
p780
aVgeneric_hidden
p781
aVclinkz_death_pact
p782
aVspecial_bonus_magic_resistance_12
p783
aVspecial_bonus_armor_5
p784
aVspecial_bonus_evasion_20
p785
aVspecial_bonus_unique_clinkz_1
p786
aVspecial_bonus_attack_range_100
p787
aVspecial_bonus_hp_regen_20
p788
aVspecial_bonus_unique_clinkz_2
p789
aVspecial_bonus_unique_clinkz_3
p790
asVearthshaker
p791
(lp792
Vearthshaker_fissure
p793
aVearthshaker_enchant_totem
p794
aVearthshaker_aftershock
p795
aVgeneric_hidden
p796
aVgeneric_hidden
p797
aVearthshaker_echo_slam
p798
aVspecial_bonus_attack_damage_30
p799
aVspecial_bonus_mp_250
p800
aVspecial_bonus_movement_speed_30
p801
aVspecial_bonus_armor_7
p802
aVspecial_bonus_unique_earthshaker_2
p803
aVspecial_bonus_unique_earthshaker_3
p804
aVspecial_bonus_magic_resistance_50
p805
aVspecial_bonus_unique_earthshaker
p806
asg295
(lp807
V
aV
aV
aV
asVgreater hawk
p808
(lp809
Vbeastmaster_hawk_invisibility
p810
aV
aV
aV
asVwarlock golem
p811
(lp812
Vwarlock_golem_flaming_fists
p813
aVwarlock_golem_permanent_immolation
p814
aV
aV
asVclever greevil minion
p815
(lp816
V
aV
aV
aV
asVvile greevil minion
p817
(lp818
V
aV
aV
aV
asVdoom shard
p819
(lp820
Vmud_golem_hurl_boulder
p821
aV
aV
aV
asg301
(lp822
Vlion_impale
p823
aVlion_voodoo
p824
aVlion_mana_drain
p825
aVgeneric_hidden
p826
aVgeneric_hidden
p827
aVlion_finger_of_death
p828
aVspecial_bonus_cast_range_75
p829
aVspecial_bonus_attack_damage_90
p830
aVspecial_bonus_unique_lion_3
p831
aVspecial_bonus_gold_income_20
p832
aVspecial_bonus_hp_500
p833
aVspecial_bonus_unique_lion
p834
aVspecial_bonus_unique_lion_2
p835
aVspecial_bonus_unique_lion_4
p836
asVnecrophos
p837
(lp838
Vnecrolyte_death_pulse
p839
aVnecrolyte_sadist
p840
aVnecrolyte_heartstopper_aura
p841
aVgeneric_hidden
p842
aVgeneric_hidden
p843
aVnecrolyte_reapers_scythe
p844
aVspecial_bonus_attack_damage_40
p845
aVspecial_bonus_strength_10
p846
aVspecial_bonus_unique_necrophos_3
p847
aVspecial_bonus_unique_necrophos_4
p848
aVspecial_bonus_magic_resistance_20
p849
aVspecial_bonus_attack_speed_80
p850
aVspecial_bonus_unique_necrophos_2
p851
aVspecial_bonus_unique_necrophos
p852
asVearth
p853
(lp854
Vbrewmaster_earth_hurl_boulder
p855
aVbrewmaster_earth_spell_immunity
p856
aVbrewmaster_earth_pulverize
p857
aVbrewmaster_thunder_clap
p858
aVgeneric_hidden
p859
aVgeneric_hidden
p860
asg80
(lp861
Vchen_penitence
p862
aVchen_test_of_faith
p863
aVchen_holy_persuasion
p864
aVgeneric_hidden
p865
aVgeneric_hidden
p866
aVchen_hand_of_god
p867
aVspecial_bonus_exp_boost_35
p868
aVspecial_bonus_cast_range_200
p869
aVspecial_bonus_armor_7
p870
aVspecial_bonus_unique_chen_3
p871
aVspecial_bonus_gold_income_30
p872
aVspecial_bonus_unique_chen_4
p873
aVspecial_bonus_unique_chen_1
p874
aVspecial_bonus_unique_chen_2
p875
asVbrittle greevil minion
p876
(lp877
V
aV
aV
aV
asVtroll warlord
p878
(lp879
Vtroll_warlord_berserkers_rage
p880
aVtroll_warlord_whirling_axes_ranged
p881
aVtroll_warlord_whirling_axes_melee
p882
aVtroll_warlord_fervor
p883
aVgeneric_hidden
p884
aVtroll_warlord_battle_trance
p885
aVspecial_bonus_agility_10
p886
aVspecial_bonus_hp_250
p887
aVspecial_bonus_unique_troll_warlord_2
p888
aVspecial_bonus_unique_troll_warlord_3
p889
aVspecial_bonus_evasion_20
p890
aVspecial_bonus_attack_damage_50
p891
aVspecial_bonus_unique_troll_warlord
p892
aVspecial_bonus_unique_troll_warlord_4
p893
asg84
(lp894
Vtreant_natures_guise
p895
aVtreant_leech_seed
p896
aVtreant_living_armor
p897
aVtreant_eyes_in_the_forest
p898
aVgeneric_hidden
p899
aVtreant_overgrowth
p900
aVspecial_bonus_unique_treant
p901
aVspecial_bonus_cooldown_reduction_10
p902
aVspecial_bonus_attack_damage_90
p903
aVspecial_bonus_unique_treant_3
p904
aVspecial_bonus_unique_treant_4
p905
aVspecial_bonus_unique_treant_2
p906
aVspecial_bonus_unique_treant_5
p907
aVspecial_bonus_unique_treant_7
p908
asVdisruptor
p909
(lp910
Vdisruptor_thunder_strike
p911
aVdisruptor_glimpse
p912
aVdisruptor_kinetic_field
p913
aVgeneric_hidden
p914
aVgeneric_hidden
p915
aVdisruptor_static_storm
p916
aVspecial_bonus_hp_200
p917
aVspecial_bonus_unique_disruptor_3
p918
aVspecial_bonus_cast_range_150
p919
aVspecial_bonus_unique_disruptor_2
p920
aVspecial_bonus_gold_income_30
p921
aVspecial_bonus_unique_disruptor
p922
aVspecial_bonus_unique_disruptor_4
p923
aVspecial_bonus_unique_disruptor_5
p924
asVspirit breaker
p925
(lp926
Vspirit_breaker_charge_of_darkness
p927
aVspirit_breaker_empowering_haste
p928
aVspirit_breaker_greater_bash
p929
aVgeneric_hidden
p930
aVgeneric_hidden
p931
aVspirit_breaker_nether_strike
p932
aVspecial_bonus_night_vision_400
p933
aVspecial_bonus_armor_5
p934
aVspecial_bonus_hp_regen_10
p935
aVspecial_bonus_attack_damage_40
p936
aVspecial_bonus_unique_spirit_breaker_3
p937
aVspecial_bonus_unique_spirit_breaker_2
p938
aVspecial_bonus_unique_spirit_breaker_1
p939
aVspecial_bonus_hp_800
p940
asVnpc_dota_death_prophet_torment
p941
(lp942
V
aV
aV
aV
asVogre frostmage
p943
(lp944
Vogre_magi_frost_armor
p945
aV
aV
aV
asVvhoul assassin
p946
(lp947
Vgnoll_assassin_envenomed_weapon
p948
aV
aV
aV
asVlegion commander
p949
(lp950
Vlegion_commander_overwhelming_odds
p951
aVlegion_commander_press_the_attack
p952
aVlegion_commander_moment_of_courage
p953
aVgeneric_hidden
p954
aVgeneric_hidden
p955
aVlegion_commander_duel
p956
aVspecial_bonus_strength_8
p957
aVspecial_bonus_exp_boost_25
p958
aVspecial_bonus_attack_speed_30
p959
aVspecial_bonus_unique_legion_commander_4
p960
aVspecial_bonus_movement_speed_60
p961
aVspecial_bonus_unique_legion_commander_3
p962
aVspecial_bonus_unique_legion_commander
p963
aVspecial_bonus_unique_legion_commander_2
p964
asg63
(lp965
Vantimage_mana_break
p966
aVantimage_blink
p967
aVantimage_spell_shield
p968
aVgeneric_hidden
p969
aVgeneric_hidden
p970
aVantimage_mana_void
p971
aVspecial_bonus_strength_10
p972
aVspecial_bonus_attack_speed_20
p973
aVspecial_bonus_unique_antimage_3
p974
aVspecial_bonus_agility_15
p975
aVspecial_bonus_unique_antimage_5
p976
aVspecial_bonus_unique_antimage
p977
aVspecial_bonus_unique_antimage_4
p978
aVspecial_bonus_unique_antimage_2
p979
asVspirit bear
p980
(lp981
Vbear_empty1
p982
aVbear_empty2
p983
aVlone_druid_savage_roar_bear
p984
aV
asVdeath prophet
p985
(lp986
Vdeath_prophet_carrion_swarm
p987
aVdeath_prophet_silence
p988
aVdeath_prophet_spirit_siphon
p989
aVgeneric_hidden
p990
aVgeneric_hidden
p991
aVdeath_prophet_exorcism
p992
aVspecial_bonus_attack_damage_50
p993
aVspecial_bonus_magic_resistance_12
p994
aVspecial_bonus_unique_death_prophet_3
p995
aVspecial_bonus_cast_range_150
p996
aVspecial_bonus_hp_500
p997
aVspecial_bonus_unique_death_prophet_2
p998
aVspecial_bonus_unique_death_prophet_4
p999
aVspecial_bonus_unique_death_prophet
p1000
asVdiretide zombie
p1001
(lp1002
V
aV
aV
aV
aV
aV
aV
aV
asVdrow ranger
p1003
(lp1004
Vdrow_ranger_frost_arrows
p1005
aVdrow_ranger_wave_of_silence
p1006
aVdrow_ranger_trueshot
p1007
aVgeneric_hidden
p1008
aVgeneric_hidden
p1009
aVdrow_ranger_marksmanship
p1010
aVspecial_bonus_movement_speed_20
p1011
aVspecial_bonus_all_stats_5
p1012
aVspecial_bonus_attack_speed_25
p1013
aVspecial_bonus_unique_drow_ranger_2
p1014
aVspecial_bonus_unique_drow_ranger_3
p1015
aVspecial_bonus_unique_drow_ranger_4
p1016
aVspecial_bonus_unique_drow_ranger_1
p1017
aVspecial_bonus_cooldown_reduction_50
p1018
asVinvoker
p1019
(lp1020
Vinvoker_quas
p1021
aVinvoker_wex
p1022
aVinvoker_exort
p1023
aVinvoker_empty1
p1024
aVinvoker_empty2
p1025
aVinvoker_invoke
p1026
aVinvoker_cold_snap
p1027
aVinvoker_ghost_walk
p1028
aVinvoker_tornado
p1029
aVinvoker_emp
p1030
aVinvoker_alacrity
p1031
aVinvoker_chaos_meteor
p1032
aVinvoker_sun_strike
p1033
aVinvoker_forge_spirit
p1034
aVinvoker_ice_wall
p1035
aVinvoker_deafening_blast
p1036
aVspecial_bonus_unique_invoker_8
p1037
aVspecial_bonus_unique_invoker_6
p1038
aVspecial_bonus_unique_invoker_1
p1039
aVspecial_bonus_unique_invoker_7
p1040
aVspecial_bonus_unique_invoker_4
p1041
aVspecial_bonus_unique_invoker_5
p1042
aVspecial_bonus_unique_invoker_2
p1043
aVspecial_bonus_unique_invoker_3
p1044
asVjuggernaut
p1045
(lp1046
Vjuggernaut_blade_fury
p1047
aVjuggernaut_healing_ward
p1048
aVjuggernaut_blade_dance
p1049
aVgeneric_hidden
p1050
aVgeneric_hidden
p1051
aVjuggernaut_omni_slash
p1052
aVspecial_bonus_all_stats_5
p1053
aVspecial_bonus_movement_speed_20
p1054
aVspecial_bonus_unique_juggernaut
p1055
aVspecial_bonus_attack_speed_25
p1056
aVspecial_bonus_armor_10
p1057
aVspecial_bonus_unique_juggernaut_3
p1058
aVspecial_bonus_hp_600
p1059
aVspecial_bonus_unique_juggernaut_2
p1060
asVforged spirit
p1061
(lp1062
Vforged_spirit_melting_strike
p1063
aV
aV
aV
aV
aV
aV
aV
asVursa
p1064
(lp1065
Vursa_earthshock
p1066
aVursa_overpower
p1067
aVursa_fury_swipes
p1068
aVgeneric_hidden
p1069
aVgeneric_hidden
p1070
aVursa_enrage
p1071
aVspecial_bonus_mp_regen_175
p1072
aVspecial_bonus_strength_8
p1073
aVspecial_bonus_agility_16
p1074
aVspecial_bonus_unique_ursa_2
p1075
aVspecial_bonus_unique_ursa_3
p1076
aVspecial_bonus_unique_ursa_4
p1077
aVspecial_bonus_unique_ursa_5
p1078
aVspecial_bonus_unique_ursa
p1079
asg125
(lp1080
Vmudgolem_cloak_aura
p1081
aV
aV
aV
asVnpc_dota_techies_minefield_sign
p1082
(lp1083
V
aV
aV
aV
aV
asVlycan
p1084
(lp1085
Vlycan_summon_wolves
p1086
aVlycan_howl
p1087
aVlycan_feral_impulse
p1088
aVgeneric_hidden
p1089
aVgeneric_hidden
p1090
aVlycan_shapeshift
p1091
aVspecial_bonus_armor_5
p1092
aVspecial_bonus_attack_damage_20
p1093
aVspecial_bonus_unique_lycan_3
p1094
aVspecial_bonus_cooldown_reduction_12
p1095
aVspecial_bonus_unique_lycan_1
p1096
aVspecial_bonus_unique_lycan_4
p1097
aVspecial_bonus_unique_lycan_5
p1098
aVspecial_bonus_unique_lycan_2
p1099
asVshadow shaman
p1100
(lp1101
Vshadow_shaman_ether_shock
p1102
aVshadow_shaman_voodoo
p1103
aVshadow_shaman_shackles
p1104
aVgeneric_hidden
p1105
aVgeneric_hidden
p1106
aVshadow_shaman_mass_serpent_ward
p1107
aVspecial_bonus_hp_200
p1108
aVspecial_bonus_exp_boost_20
p1109
aVspecial_bonus_cast_range_125
p1110
aVspecial_bonus_unique_shadow_shaman_5
p1111
aVspecial_bonus_unique_shadow_shaman_2
p1112
aVspecial_bonus_unique_shadow_shaman_1
p1113
aVspecial_bonus_unique_shadow_shaman_3
p1114
aVspecial_bonus_unique_shadow_shaman_4
p1115
asVblessed greevil minion
p1116
(lp1117
V
aV
aV
aV
asVmeepo
p1118
(lp1119
Vmeepo_earthbind
p1120
aVmeepo_poof
p1121
aVmeepo_geostrike
p1122
aVgeneric_hidden
p1123
aVgeneric_hidden
p1124
aVmeepo_divided_we_stand
p1125
aVspecial_bonus_strength_7
p1126
aVspecial_bonus_attack_damage_20
p1127
aVspecial_bonus_lifesteal_10
p1128
aVspecial_bonus_unique_meepo_2
p1129
aVspecial_bonus_unique_meepo_3
p1130
aVspecial_bonus_evasion_15
p1131
aVspecial_bonus_hp_600
p1132
aVspecial_bonus_unique_meepo
p1133
asVflying courier
p1134
(lp1135
Vcourier_return_to_base
p1136
aVcourier_go_to_secretshop
p1137
aVcourier_return_stash_items
p1138
aVcourier_take_stash_items
p1139
aVcourier_transfer_items
p1140
aVcourier_shield
p1141
asVeidolon
p1142
(lp1143
V
aV
aV
aV
aV
aV
aV
aV
asg27
(lp1144
Vbroodmother_poison_sting
p1145
aVbroodmother_spawn_spiderite
p1146
aV
aV
aV
aV
aV
aV
asVfrozen sigil
p1147
(lp1148
V
aV
aV
aV
aV
aV
aV
aV
asVshard golem
p1149
(lp1150
Vmud_golem_hurl_boulder
p1151
aV
aV
aV
asg106
(lp1152
Vobsidian_destroyer_arcane_orb
p1153
aVobsidian_destroyer_astral_imprisonment
p1154
aVobsidian_destroyer_essence_aura
p1155
aVgeneric_hidden
p1156
aVgeneric_hidden
p1157
aVobsidian_destroyer_sanity_eclipse
p1158
aVspecial_bonus_hp_250
p1159
aVspecial_bonus_attack_speed_20
p1160
aVspecial_bonus_movement_speed_40
p1161
aVspecial_bonus_unique_outworld_devourer_2
p1162
aVspecial_bonus_strength_20
p1163
aVspecial_bonus_unique_outworld_devourer_3
p1164
aVspecial_bonus_unique_outworld_devourer
p1165
aVspecial_bonus_spell_lifesteal_15
p1166
asVnpc_dota_wraith_ghost
p1167
(lp1168
Vghost_frost_attack
p1169
aV
aV
aV
asVruthless megagreevil
p1170
(lp1171
Vgreevil_miniboss_red_earthshock
p1172
aVgreevil_miniboss_red_overpower
p1173
aVgreevil_miniboss_sight
p1174
aV
asVhill troll
p1175
(lp1176
V
aV
aV
aV
asVtinker
p1177
(lp1178
Vtinker_laser
p1179
aVtinker_heat_seeking_missile
p1180
aVtinker_march_of_the_machines
p1181
aVgeneric_hidden
p1182
aVgeneric_hidden
p1183
aVtinker_rearm
p1184
aVspecial_bonus_spell_amplify_6
p1185
aVspecial_bonus_cast_range_75
p1186
aVspecial_bonus_movement_speed_40
p1187
aVspecial_bonus_spell_lifesteal_10
p1188
aVspecial_bonus_armor_10
p1189
aVspecial_bonus_unique_tinker_2
p1190
aVspecial_bonus_unique_tinker
p1191
aVspecial_bonus_unique_tinker_3
p1192
asVbroodmother
p1193
(lp1194
Vbroodmother_spawn_spiderlings
p1195
aVbroodmother_spin_web
p1196
aVbroodmother_incapacitating_bite
p1197
aVgeneric_hidden
p1198
aVgeneric_hidden
p1199
aVbroodmother_insatiable_hunger
p1200
aVspecial_bonus_unique_broodmother_3
p1201
aVspecial_bonus_hp_200
p1202
aVspecial_bonus_cooldown_reduction_20
p1203
aVspecial_bonus_exp_boost_35
p1204
aVspecial_bonus_unique_broodmother_4
p1205
aVspecial_bonus_attack_speed_50
p1206
aVspecial_bonus_unique_broodmother_1
p1207
aVspecial_bonus_unique_broodmother_2
p1208
asVastral spirit
p1209
(lp1210
Velder_titan_echo_stomp_spirit
p1211
aVelder_titan_return_spirit
p1212
aVelder_titan_natural_order_spirit
p1213
asVtoasty greevil minion
p1214
(lp1215
V
aV
aV
aV
asVhuskar
p1216
(lp1217
Vhuskar_inner_vitality
p1218
aVhuskar_burning_spear
p1219
aVhuskar_berserkers_blood
p1220
aVgeneric_hidden
p1221
aVgeneric_hidden
p1222
aVhuskar_life_break
p1223
aVspecial_bonus_hp_175
p1224
aVspecial_bonus_attack_damage_20
p1225
aVspecial_bonus_unique_huskar_2
p1226
aVspecial_bonus_lifesteal_15
p1227
aVspecial_bonus_strength_15
p1228
aVspecial_bonus_unique_huskar
p1229
aVspecial_bonus_attack_range_125
p1230
aVspecial_bonus_unique_huskar_3
p1231
asVnpc_dota_beastmaster_axe
p1232
(lp1233
V
aV
aV
aV
asVpangolier
p1234
(lp1235
Vpangolier_swashbuckle
p1236
aVpangolier_shield_crash
p1237
aVpangolier_heartpiercer
p1238
aVgeneric_hidden
p1239
aVgeneric_hidden
p1240
aVpangolier_gyroshell
p1241
aVpangolier_gyroshell_stop
p1242
aVspecial_bonus_mp_regen_2
p1243
aVspecial_bonus_movement_speed_25
p1244
aVspecial_bonus_unique_pangolier_2
p1245
aVspecial_bonus_attack_speed_30
p1246
aVspecial_bonus_unique_pangolier_3
p1247
aVspecial_bonus_strength_20
p1248
aVspecial_bonus_unique_pangolier_4
p1249
aVspecial_bonus_unique_pangolier_5
p1250
asVnature's prophet
p1251
(lp1252
Vfurion_sprout
p1253
aVfurion_teleportation
p1254
aVfurion_force_of_nature
p1255
aVgeneric_hidden
p1256
aVgeneric_hidden
p1257
aVfurion_wrath_of_nature
p1258
aVspecial_bonus_attack_damage_30
p1259
aVspecial_bonus_movement_speed_40
p1260
aVspecial_bonus_armor_10
p1261
aVspecial_bonus_unique_furion_2
p1262
aVspecial_bonus_attack_speed_40
p1263
aVspecial_bonus_unique_furion_4
p1264
aVspecial_bonus_unique_furion_3
p1265
aVspecial_bonus_unique_furion
p1266
asVtechies
p1267
(lp1268
Vtechies_land_mines
p1269
aVtechies_stasis_trap
p1270
aVtechies_suicide
p1271
aVtechies_focused_detonate
p1272
aVtechies_minefield_sign
p1273
aVtechies_remote_mines
p1274
aVspecial_bonus_exp_boost_30
p1275
aVspecial_bonus_unique_techies_3
p1276
aVspecial_bonus_unique_techies
p1277
aVspecial_bonus_mp_regen_4
p1278
aVspecial_bonus_movement_speed_75
p1279
aVspecial_bonus_gold_income_25
p1280
aVspecial_bonus_attack_damage_251
p1281
aVspecial_bonus_unique_techies_4
p1282
asVelder titan
p1283
(lp1284
Velder_titan_echo_stomp
p1285
aVelder_titan_ancestral_spirit
p1286
aVelder_titan_natural_order
p1287
aVgeneric_hidden
p1288
aVgeneric_hidden
p1289
aVelder_titan_earth_splitter
p1290
aVelder_titan_return_spirit
p1291
aVspecial_bonus_movement_speed_25
p1292
aVspecial_bonus_hp_200
p1293
aVspecial_bonus_magic_resistance_15
p1294
aVspecial_bonus_unique_elder_titan
p1295
aVspecial_bonus_attack_speed_70
p1296
aVspecial_bonus_unique_elder_titan_2
p1297
aVspecial_bonus_unique_elder_titan_3
p1298
aVspecial_bonus_lifesteal_100
p1299
asg191
(lp1300
Vomniknight_purification
p1301
aVomniknight_repel
p1302
aVomniknight_degen_aura
p1303
aVgeneric_hidden
p1304
aVgeneric_hidden
p1305
aVomniknight_guardian_angel
p1306
aVspecial_bonus_gold_income_15
p1307
aVspecial_bonus_unique_omniknight_4
p1308
aVspecial_bonus_exp_boost_35
p1309
aVspecial_bonus_attack_damage_90
p1310
aVspecial_bonus_unique_omniknight_2
p1311
aVspecial_bonus_mp_regen_3
p1312
aVspecial_bonus_unique_omniknight_1
p1313
aVspecial_bonus_unique_omniknight_3
p1314
asVscout hawk
p1315
(lp1316
V
aV
aV
aV
asVnecronomicon warrior
p1317
(lp1318
Vnecronomicon_warrior_mana_burn
p1319
aVnecronomicon_warrior_last_will
p1320
aVnecronomicon_warrior_sight
p1321
aV
aV
aV
aV
aV
asg119
(lp1322
Vterrorblade_reflection
p1323
aVterrorblade_conjure_image
p1324
aVterrorblade_metamorphosis
p1325
aVgeneric_hidden
p1326
aVgeneric_hidden
p1327
aVterrorblade_sunder
p1328
aVspecial_bonus_movement_speed_20
p1329
aVspecial_bonus_evasion_10
p1330
aVspecial_bonus_hp_300
p1331
aVspecial_bonus_attack_speed_25
p1332
aVspecial_bonus_all_stats_10
p1333
aVspecial_bonus_unique_terrorblade_2
p1334
aVspecial_bonus_unique_terrorblade
p1335
aVspecial_bonus_unique_terrorblade_3
p1336
asg122
(lp1337
Valchemist_acid_spray
p1338
aValchemist_unstable_concoction
p1339
aValchemist_goblins_greed
p1340
aVgeneric_hidden
p1341
aVgeneric_hidden
p1342
aValchemist_chemical_rage
p1343
aValchemist_unstable_concoction_throw
p1344
aVspecial_bonus_attack_speed_25
p1345
aVspecial_bonus_unique_alchemist
p1346
aVspecial_bonus_hp_400
p1347
aVspecial_bonus_attack_damage_50
p1348
aVspecial_bonus_cleave_30
p1349
aVspecial_bonus_unique_alchemist_2
p1350
aVspecial_bonus_unique_alchemist_3
p1351
aVspecial_bonus_unique_alchemist_4
p1352
asg170
(lp1353
sVnyx assassin
p1354
(lp1355
Vnyx_assassin_impale
p1356
aVnyx_assassin_mana_burn
p1357
aVnyx_assassin_spiked_carapace
p1358
aVnyx_assassin_burrow
p1359
aVgeneric_hidden
p1360
aVnyx_assassin_vendetta
p1361
aVnyx_assassin_unburrow
p1362
aVspecial_bonus_spell_amplify_6
p1363
aVspecial_bonus_gold_income_10
p1364
aVspecial_bonus_hp_325
p1365
aVspecial_bonus_movement_speed_35
p1366
aVspecial_bonus_unique_nyx
p1367
aVspecial_bonus_unique_nyx_2
p1368
aVspecial_bonus_agility_100
p1369
aVspecial_bonus_unique_nyx_3
p1370
asVqueen of pain
p1371
(lp1372
Vqueenofpain_shadow_strike
p1373
aVqueenofpain_blink
p1374
aVqueenofpain_scream_of_pain
p1375
aVgeneric_hidden
p1376
aVgeneric_hidden
p1377
aVqueenofpain_sonic_wave
p1378
aVspecial_bonus_attack_damage_25
p1379
aVspecial_bonus_strength_10
p1380
aVspecial_bonus_cooldown_reduction_12
p1381
aVspecial_bonus_attack_speed_40
p1382
aVspecial_bonus_spell_lifesteal_30
p1383
aVspecial_bonus_unique_queen_of_pain
p1384
aVspecial_bonus_unique_queen_of_pain_2
p1385
aVspecial_bonus_spell_block_20
p1386
asg309
(lp1387
Vshadow_demon_disruption
p1388
aVshadow_demon_soul_catcher
p1389
aVshadow_demon_shadow_poison
p1390
aVshadow_demon_shadow_poison_release
p1391
aVgeneric_hidden
p1392
aVshadow_demon_demonic_purge
p1393
aVspecial_bonus_unique_shadow_demon_6
p1394
aVspecial_bonus_exp_boost_30
p1395
aVspecial_bonus_movement_speed_40
p1396
aVspecial_bonus_unique_shadow_demon_4
p1397
aVspecial_bonus_unique_shadow_demon_2
p1398
aVspecial_bonus_unique_shadow_demon_3
p1399
aVspecial_bonus_unique_shadow_demon_1
p1400
aVspecial_bonus_unique_shadow_demon_7
p1401
asg254
(lp1402
Vbroodmother_spin_web_destroy
p1403
aV
aV
aV
asVslark
p1404
(lp1405
Vslark_dark_pact
p1406
aVslark_pounce
p1407
aVslark_essence_shift
p1408
aVgeneric_hidden
p1409
aVgeneric_hidden
p1410
aVslark_shadow_dance
p1411
aVspecial_bonus_strength_10
p1412
aVspecial_bonus_agility_10
p1413
aVspecial_bonus_attack_speed_30
p1414
aVspecial_bonus_lifesteal_20
p1415
aVspecial_bonus_unique_slark_2
p1416
aVspecial_bonus_unique_slark
p1417
aVspecial_bonus_unique_slark_3
p1418
aVspecial_bonus_unique_slark_4
p1419
asVmirana
p1420
(lp1421
Vmirana_starfall
p1422
aVmirana_arrow
p1423
aVmirana_leap
p1424
aVgeneric_hidden
p1425
aVgeneric_hidden
p1426
aVmirana_invis
p1427
aVspecial_bonus_attack_damage_20
p1428
aVspecial_bonus_hp_200
p1429
aVspecial_bonus_unique_mirana_3
p1430
aVspecial_bonus_unique_mirana_1
p1431
aVspecial_bonus_spell_amplify_12
p1432
aVspecial_bonus_mana_break_25
p1433
aVspecial_bonus_unique_mirana_2
p1434
aVspecial_bonus_unique_mirana_4
p1435
asVsuper melee creep
p1436
(lp1437
V
aV
aV
aV
aV
aV
aV
aV
asVnpc_dota_target_dummy
p1438
(lp1439
V
aV
aV
aV
asVlifestealer
p1440
(lp1441
Vlife_stealer_rage
p1442
aVlife_stealer_feast
p1443
aVlife_stealer_open_wounds
p1444
aVlife_stealer_assimilate
p1445
aVgeneric_hidden
p1446
aVlife_stealer_infest
p1447
aVlife_stealer_control
p1448
aVlife_stealer_consume
p1449
aVlife_stealer_assimilate_eject
p1450
aVspecial_bonus_hp_200
p1451
aVspecial_bonus_attack_speed_20
p1452
aVspecial_bonus_attack_damage_30
p1453
aVspecial_bonus_movement_speed_35
p1454
aVspecial_bonus_evasion_20
p1455
aVspecial_bonus_unique_lifestealer_2
p1456
aVspecial_bonus_unique_lifestealer_3
p1457
aVspecial_bonus_unique_lifestealer
p1458
asVnpc_dota_plasma_field
p1459
(lp1460
sVgreater boar
p1461
(lp1462
Vbeastmaster_greater_boar_poison
p1463
aV
aV
aV
asg286
(lp1464
Vpuck_illusory_orb
p1465
aVpuck_waning_rift
p1466
aVpuck_phase_shift
p1467
aVpuck_ethereal_jaunt
p1468
aVgeneric_hidden
p1469
aVpuck_dream_coil
p1470
aVspecial_bonus_intelligence_10
p1471
aVspecial_bonus_armor_5
p1472
aVspecial_bonus_spell_amplify_8
p1473
aVspecial_bonus_attack_damage_50
p1474
aVspecial_bonus_unique_puck_2
p1475
aVspecial_bonus_unique_puck
p1476
aVspecial_bonus_gold_income_70
p1477
aVspecial_bonus_unique_puck_3
p1478
asVdragon knight
p1479
(lp1480
Vdragon_knight_breathe_fire
p1481
aVdragon_knight_dragon_tail
p1482
aVdragon_knight_dragon_blood
p1483
aVgeneric_hidden
p1484
aVgeneric_hidden
p1485
aVdragon_knight_elder_dragon_form
p1486
aVspecial_bonus_mp_regen_2
p1487
aVspecial_bonus_unique_dragon_knight_3
p1488
aVspecial_bonus_attack_damage_35
p1489
aVspecial_bonus_hp_300
p1490
aVspecial_bonus_gold_income_25
p1491
aVspecial_bonus_unique_dragon_knight
p1492
aVspecial_bonus_strength_40
p1493
aVspecial_bonus_unique_dragon_knight_2
p1494
asVmorphling
p1495
(lp1496
Vmorphling_waveform
p1497
aVmorphling_adaptive_strike_agi
p1498
aVmorphling_adaptive_strike_str
p1499
aVmorphling_morph_agi
p1500
aVmorphling_morph_str
p1501
aVmorphling_replicate
p1502
aVmorphling_morph_replicate
p1503
aVmorphling_morph
p1504
aVspecial_bonus_agility_10
p1505
aVspecial_bonus_unique_morphling_1
p1506
aVspecial_bonus_unique_morphling_8
p1507
aVspecial_bonus_attack_speed_30
p1508
aVspecial_bonus_unique_morphling_5
p1509
aVspecial_bonus_unique_morphling_4
p1510
aVspecial_bonus_unique_morphling_6
p1511
aVspecial_bonus_unique_morphling_3
p1512
asVremote mine
p1513
(lp1514
Vtechies_remote_mines_self_detonate
p1515
aV
aV
aV
asVluna
p1516
(lp1517
Vluna_lucent_beam
p1518
aVluna_moon_glaive
p1519
aVluna_lunar_blessing
p1520
aVgeneric_hidden
p1521
aVgeneric_hidden
p1522
aVluna_eclipse
p1523
aVspecial_bonus_attack_speed_20
p1524
aVspecial_bonus_cast_range_200
p1525
aVspecial_bonus_unique_luna_2
p1526
aVspecial_bonus_unique_luna_3
p1527
aVspecial_bonus_all_stats_10
p1528
aVspecial_bonus_unique_luna_1
p1529
aVspecial_bonus_lifesteal_25
p1530
aVspecial_bonus_unique_luna_5
p1531
asVnpc_dota_troll_warlord_axe
p1532
(lp1533
V
aV
aV
aV
asVroshan
p1534
(lp1535
Vroshan_halloween_apocalypse
p1536
aVroshan_halloween_wave_of_force
p1537
aVroshan_halloween_toss
p1538
aVroshan_halloween_burn
p1539
aVroshan_halloween_fireball
p1540
aVroshan_halloween_summon
p1541
aVroshan_halloween_shell
p1542
aVroshan_halloween_greater_bash
p1543
aVroshan_halloween_levels
p1544
aVroshan_halloween_angry
p1545
aVroshan_halloween_candy
p1546
aVroshan_halloween_spell_block
p1547
asVtemplar assassin
p1548
(lp1549
Vtemplar_assassin_refraction
p1550
aVtemplar_assassin_meld
p1551
aVtemplar_assassin_psi_blades
p1552
aVtemplar_assassin_trap
p1553
aVgeneric_hidden
p1554
aVtemplar_assassin_psionic_trap
p1555
aVspecial_bonus_attack_speed_25
p1556
aVspecial_bonus_unique_templar_assassin_6
p1557
aVspecial_bonus_armor_7
p1558
aVspecial_bonus_unique_templar_assassin_3
p1559
aVspecial_bonus_unique_templar_assassin_4
p1560
aVspecial_bonus_unique_templar_assassin_2
p1561
aVspecial_bonus_unique_templar_assassin_5
p1562
aVspecial_bonus_unique_templar_assassin
p1563
asVnpc_dota_thinker
p1564
(lp1565
sVhellbear
p1566
(lp1567
Vmudgolem_cloak_aura
p1568
aV
aV
aV
asVboar
p1569
(lp1570
Vbeastmaster_boar_poison
p1571
aV
aV
aV
asVdiretide witch
p1572
(lp1573
V
aV
aV
aV
aV
aV
aV
aV
asVpower cog
p1574
(lp1575
V
aV
aV
aV
asVsatyr banisher
p1576
(lp1577
Vsatyr_trickster_purge
p1578
aV
aV
aV
asVhealing campfire
p1579
(lp1580
V
aV
aV
aV
aV
aV
aV
aV
asg228
(lp1581
Vharpy_storm_chain_lightning
p1582
aV
aV
aV
asVrazor
p1583
(lp1584
Vrazor_plasma_field
p1585
aVrazor_static_link
p1586
aVrazor_unstable_current
p1587
aVgeneric_hidden
p1588
aVgeneric_hidden
p1589
aVrazor_eye_of_the_storm
p1590
aVspecial_bonus_hp_200
p1591
aVspecial_bonus_agility_15
p1592
aVspecial_bonus_unique_razor
p1593
aVspecial_bonus_unique_razor_3
p1594
aVspecial_bonus_armor_10
p1595
aVspecial_bonus_unique_razor_2
p1596
aVspecial_bonus_attack_speed_100
p1597
aVspecial_bonus_unique_razor_4
p1598
asVgreater eidolon
p1599
(lp1600
V
aV
aV
aV
aV
aV
aV
aV
asVmud golem
p1601
(lp1602
Vmud_golem_hurl_boulder
p1603
aVmud_golem_rock_destroy
p1604
aV
aV
asVpsionic trap
p1605
(lp1606
Vtemplar_assassin_self_trap
p1607
aV
aV
aV
asVradiant year beast
p1608
(lp1609
Vcny_beast_force_attack
p1610
aVcny_beast_teleport
p1611
aV
aV
aV
aV
aV
aV
asg77
(lp1612
Vtiny_avalanche
p1613
aVtiny_toss
p1614
aVtiny_craggy_exterior
p1615
aVgeneric_hidden
p1616
aVgeneric_hidden
p1617
aVtiny_grow
p1618
aVtiny_toss_tree
p1619
aVspecial_bonus_magic_resistance_20
p1620
aVspecial_bonus_attack_damage_30
p1621
aVspecial_bonus_hp_350
p1622
aVspecial_bonus_unique_tiny
p1623
aVspecial_bonus_unique_tiny_4
p1624
aVspecial_bonus_unique_tiny_5
p1625
aVspecial_bonus_unique_tiny_3
p1626
aVspecial_bonus_unique_tiny_2
p1627
asVobserver ward
p1628
(lp1629
sVsatyr tormenter
p1630
(lp1631
Vsatyr_hellcaller_shockwave
p1632
aVsatyr_hellcaller_unholy_aura
p1633
aV
aV
asVancient thunderhide
p1634
(lp1635
Vbig_thunder_lizard_frenzy
p1636
aVbig_thunder_lizard_wardrums_aura
p1637
aVbig_thunder_lizard_slam
p1638
aV
asg175
(lp1639
Vpudge_meat_hook
p1640
aVpudge_rot
p1641
aVpudge_flesh_heap
p1642
aVgeneric_hidden
p1643
aVgeneric_hidden
p1644
aVpudge_dismember
p1645
aVspecial_bonus_armor_5
p1646
aVspecial_bonus_unique_pudge_2
p1647
aVspecial_bonus_spell_lifesteal_13
p1648
aVspecial_bonus_attack_damage_75
p1649
aVspecial_bonus_gold_income_30
p1650
aVspecial_bonus_cooldown_reduction_15
p1651
aVspecial_bonus_unique_pudge_3
p1652
aVspecial_bonus_unique_pudge_1
p1653
asVancient prowler acolyte
p1654
(lp1655
Vspawnlord_aura
p1656
aV
aV
aV
asVstorm
p1657
(lp1658
Vbrewmaster_storm_dispel_magic
p1659
aVbrewmaster_storm_cyclone
p1660
aVbrewmaster_storm_wind_walk
p1661
aVbrewmaster_drunken_haze
p1662
aVgeneric_hidden
p1663
aVgeneric_hidden
p1664
asVcentaur conqueror
p1665
(lp1666
Vcentaur_khan_war_stomp
p1667
aV
aV
aV
asVdire's ancient
p1668
(lp1669
Vbackdoor_protection_in_base
p1670
aV
aV
aV
aV
aV
aV
aV
asg25
(lp1671
Vabyssal_underlord_firestorm
p1672
aVabyssal_underlord_pit_of_malice
p1673
aVabyssal_underlord_atrophy_aura
p1674
aVgeneric_hidden
p1675
aVgeneric_hidden
p1676
aVabyssal_underlord_dark_rift
p1677
aVabyssal_underlord_cancel_dark_rift
p1678
aVspecial_bonus_unique_underlord_2
p1679
aVspecial_bonus_movement_speed_30
p1680
aVspecial_bonus_cast_range_100
p1681
aVspecial_bonus_unique_underlord_3
p1682
aVspecial_bonus_attack_speed_70
p1683
aVspecial_bonus_hp_regen_20
p1684
aVspecial_bonus_unique_underlord
p1685
aVspecial_bonus_unique_underlord_4
p1686
asVnpc_dota_units_base
p1687
(lp1688
V
aV
aV
aV
aV
aV
aV
aV
asVwarlock
p1689
(lp1690
Vwarlock_fatal_bonds
p1691
aVwarlock_shadow_word
p1692
aVwarlock_upheaval
p1693
aVgeneric_hidden
p1694
aVgeneric_hidden
p1695
aVwarlock_rain_of_chaos
p1696
aVspecial_bonus_unique_warlock_5
p1697
aVspecial_bonus_cast_range_150
p1698
aVspecial_bonus_exp_boost_60
p1699
aVspecial_bonus_unique_warlock_3
p1700
aVspecial_bonus_unique_warlock_4
p1701
aVspecial_bonus_unique_warlock_6
p1702
aVspecial_bonus_unique_warlock_2
p1703
aVspecial_bonus_unique_warlock_1
p1704
asVghost
p1705
(lp1706
Vghost_frost_attack
p1707
aV
aV
aV
asVsand king
p1708
(lp1709
Vsandking_burrowstrike
p1710
aVsandking_sand_storm
p1711
aVsandking_caustic_finale
p1712
aVgeneric_hidden
p1713
aVgeneric_hidden
p1714
aVsandking_epicenter
p1715
aVspecial_bonus_movement_speed_30
p1716
aVspecial_bonus_hp_200
p1717
aVspecial_bonus_unique_sand_king_2
p1718
aVspecial_bonus_unique_sand_king_3
p1719
aVspecial_bonus_armor_10
p1720
aVspecial_bonus_unique_sand_king
p1721
aVspecial_bonus_hp_regen_35
p1722
aVspecial_bonus_unique_sand_king_4
p1723
asVbuilding
p1724
(lp1725
Vbackdoor_protection_in_base
p1726
aV
aV
aV
aV
aV
aV
aV
asVcourier
p1727
(lp1728
Vcourier_return_to_base
p1729
aVcourier_go_to_secretshop
p1730
aVcourier_return_stash_items
p1731
aVcourier_take_stash_items
p1732
aVcourier_transfer_items
p1733
aVcourier_shield
p1734
aVcourier_morph
p1735
aVcourier_take_stash_and_transfer_items
p1736
aVcourier_transfer_items_to_other_player
p1737
aVcourier_go_to_enemy_secretshop
p1738
aVcourier_go_to_sideshop
p1739
aVcourier_go_to_sideshop2
p1740
asVfire
p1741
(lp1742
Vbrewmaster_fire_permanent_immolation
p1743
aVbrewmaster_drunken_brawler
p1744
asVkobold foreman
p1745
(lp1746
Vkobold_taskmaster_speed_aura
p1747
aV
aV
aV
asVzeus
p1748
(lp1749
Vzuus_arc_lightning
p1750
aVzuus_lightning_bolt
p1751
aVzuus_static_field
p1752
aVzuus_cloud
p1753
aVgeneric_hidden
p1754
aVzuus_thundergods_wrath
p1755
aVspecial_bonus_armor_6
p1756
aVspecial_bonus_exp_boost_25
p1757
aVspecial_bonus_movement_speed_40
p1758
aVspecial_bonus_unique_zeus
p1759
aVspecial_bonus_cooldown_reduction_15
p1760
aVspecial_bonus_unique_zeus_3
p1761
aVspecial_bonus_cast_range_275
p1762
aVspecial_bonus_unique_zeus_2
p1763
asVogre bruiser
p1764
(lp1765
V
aV
aV
aV
asVgyrocopter
p1766
(lp1767
Vgyrocopter_rocket_barrage
p1768
aVgyrocopter_homing_missile
p1769
aVgyrocopter_flak_cannon
p1770
aVgeneric_hidden
p1771
aVgeneric_hidden
p1772
aVgyrocopter_call_down
p1773
aVspecial_bonus_attack_damage_25
p1774
aVspecial_bonus_hp_200
p1775
aVspecial_bonus_unique_gyrocopter_2
p1776
aVspecial_bonus_unique_gyrocopter_3
p1777
aVspecial_bonus_movement_speed_50
p1778
aVspecial_bonus_unique_gyrocopter_4
p1779
aVspecial_bonus_unique_gyrocopter_1
p1780
aVspecial_bonus_unique_gyrocopter_5
p1781
asVsilencer
p1782
(lp1783
Vsilencer_curse_of_the_silent
p1784
aVsilencer_glaives_of_wisdom
p1785
aVsilencer_last_word
p1786
aVgeneric_hidden
p1787
aVgeneric_hidden
p1788
aVsilencer_global_silence
p1789
aVspecial_bonus_armor_5
p1790
aVspecial_bonus_attack_speed_25
p1791
aVspecial_bonus_gold_income_15
p1792
aVspecial_bonus_unique_silencer_2
p1793
aVspecial_bonus_attack_range_125
p1794
aVspecial_bonus_unique_silencer
p1795
aVspecial_bonus_unique_silencer_3
p1796
aVspecial_bonus_unique_silencer_4
p1797
asVdeath ward
p1798
(lp1799
V
aV
aV
aV
aV
asVmelee barracks
p1800
(lp1801
Vbackdoor_protection_in_base
p1802
aV
aV
aV
aV
aV
aV
aV
asVstasis trap
p1803
(lp1804
V
aV
aV
aV
asVenigma
p1805
(lp1806
Venigma_malefice
p1807
aVenigma_demonic_conversion
p1808
aVenigma_midnight_pulse
p1809
aVgeneric_hidden
p1810
aVgeneric_hidden
p1811
aVenigma_black_hole
p1812
aVspecial_bonus_movement_speed_25
p1813
aVspecial_bonus_magic_resistance_15
p1814
aVspecial_bonus_cooldown_reduction_15
p1815
aVspecial_bonus_gold_income_20
p1816
aVspecial_bonus_hp_400
p1817
aVspecial_bonus_unique_enigma_3
p1818
aVspecial_bonus_unique_enigma_2
p1819
aVspecial_bonus_unique_enigma
p1820
asVstorm spirit
p1821
(lp1822
Vstorm_spirit_static_remnant
p1823
aVstorm_spirit_electric_vortex
p1824
aVstorm_spirit_overload
p1825
aVgeneric_hidden
p1826
aVgeneric_hidden
p1827
aVstorm_spirit_ball_lightning
p1828
aVspecial_bonus_attack_damage_20
p1829
aVspecial_bonus_mp_regen_175
p1830
aVspecial_bonus_unique_storm_spirit_5
p1831
aVspecial_bonus_hp_300
p1832
aVspecial_bonus_unique_storm_spirit
p1833
aVspecial_bonus_attack_speed_30
p1834
aVspecial_bonus_unique_storm_spirit_3
p1835
aVspecial_bonus_unique_storm_spirit_4
p1836
asVfaceless void
p1837
(lp1838
Vfaceless_void_time_walk
p1839
aVfaceless_void_time_dilation
p1840
aVfaceless_void_time_lock
p1841
aVgeneric_hidden
p1842
aVgeneric_hidden
p1843
aVfaceless_void_chronosphere
p1844
aVspecial_bonus_attack_damage_20
p1845
aVspecial_bonus_strength_8
p1846
aVspecial_bonus_unique_faceless_void_3
p1847
aVspecial_bonus_hp_300
p1848
aVspecial_bonus_attack_speed_40
p1849
aVspecial_bonus_unique_faceless_void
p1850
aVspecial_bonus_unique_faceless_void_4
p1851
aVspecial_bonus_unique_faceless_void_2
p1852
asVdoom
p1853
(lp1854
Vdoom_bringer_devour
p1855
aVdoom_bringer_scorched_earth
p1856
aVdoom_bringer_infernal_blade
p1857
aVdoom_bringer_empty1
p1858
aVdoom_bringer_empty2
p1859
aVdoom_bringer_doom
p1860
aVspecial_bonus_unique_doom_4
p1861
aVspecial_bonus_unique_doom_6
p1862
aVspecial_bonus_evasion_20
p1863
aVspecial_bonus_unique_doom_3
p1864
aVspecial_bonus_unique_doom_5
p1865
aVspecial_bonus_unique_doom_2
p1866
aVspecial_bonus_unique_doom_1
p1867
aVspecial_bonus_cleave_100
p1868
asVgreevil
p1869
(lp1870
V
aV
aV
aV
aV
aV
aV
aV
asVlina
p1871
(lp1872
Vlina_dragon_slave
p1873
aVlina_light_strike_array
p1874
aVlina_fiery_soul
p1875
aVgeneric_hidden
p1876
aVgeneric_hidden
p1877
aVlina_laguna_blade
p1878
aVspecial_bonus_attack_damage_30
p1879
aVspecial_bonus_cast_range_125
p1880
aVspecial_bonus_hp_350
p1881
aVspecial_bonus_unique_lina_3
p1882
aVspecial_bonus_spell_amplify_12
p1883
aVspecial_bonus_unique_lina_2
p1884
aVspecial_bonus_unique_lina_1
p1885
aVspecial_bonus_attack_range_175
p1886
asVancient black drake
p1887
(lp1888
V
aV
aV
aV
asg239
(lp1889
V
aV
aV
aV
asVmonkey king
p1890
(lp1891
Vmonkey_king_boundless_strike
p1892
aVmonkey_king_tree_dance
p1893
aVmonkey_king_primal_spring
p1894
aVmonkey_king_jingu_mastery
p1895
aVmonkey_king_mischief
p1896
aVmonkey_king_wukongs_command
p1897
aVmonkey_king_primal_spring_early
p1898
aVmonkey_king_untransform
p1899
aVspecial_bonus_unique_monkey_king_5
p1900
aVspecial_bonus_attack_speed_20
p1901
aVspecial_bonus_unique_monkey_king_7
p1902
aVspecial_bonus_unique_monkey_king_2
p1903
aVspecial_bonus_unique_monkey_king
p1904
aVspecial_bonus_unique_monkey_king_3
p1905
aVspecial_bonus_unique_monkey_king_4
p1906
aVspecial_bonus_unique_monkey_king_6
p1907
asVlone druid
p1908
(lp1909
Vlone_druid_spirit_bear
p1910
aVlone_druid_rabid
p1911
aVlone_druid_savage_roar
p1912
aVlone_druid_true_form_battle_cry
p1913
aVgeneric_hidden
p1914
aVlone_druid_true_form
p1915
aVlone_druid_true_form_druid
p1916
aVspecial_bonus_hp_250
p1917
aVspecial_bonus_attack_range_175
p1918
aVspecial_bonus_unique_lone_druid_4
p1919
aVspecial_bonus_unique_lone_druid_2
p1920
aVspecial_bonus_unique_lone_druid_8
p1921
aVspecial_bonus_unique_lone_druid_6
p1922
aVspecial_bonus_unique_lone_druid_9
p1923
aVspecial_bonus_unique_lone_druid_7
p1924
asVnpc_dota_companion
p1925
(lp1926
sVbrewmaster
p1927
(lp1928
Vbrewmaster_thunder_clap
p1929
aVbrewmaster_drunken_haze
p1930
aVbrewmaster_drunken_brawler
p1931
aVgeneric_hidden
p1932
aVgeneric_hidden
p1933
aVbrewmaster_primal_split
p1934
aVspecial_bonus_attack_damage_30
p1935
aVspecial_bonus_hp_200
p1936
aVspecial_bonus_unique_brewmaster_3
p1937
aVspecial_bonus_magic_resistance_20
p1938
aVspecial_bonus_unique_brewmaster
p1939
aVspecial_bonus_attack_speed_100
p1940
aVspecial_bonus_unique_brewmaster_2
p1941
aVspecial_bonus_unique_brewmaster_4
p1942
asVwraith king
p1943
(lp1944
Vskeleton_king_hellfire_blast
p1945
aVskeleton_king_vampiric_aura
p1946
aVskeleton_king_mortal_strike
p1947
aVgeneric_hidden
p1948
aVgeneric_hidden
p1949
aVskeleton_king_reincarnation
p1950
aVspecial_bonus_unique_wraith_king_3
p1951
aVspecial_bonus_attack_speed_20
p1952
aVspecial_bonus_strength_15
p1953
aVspecial_bonus_unique_wraith_king_6
p1954
aVspecial_bonus_unique_wraith_king_1
p1955
aVspecial_bonus_unique_wraith_king_8
p1956
aVspecial_bonus_unique_wraith_king_2
p1957
aVspecial_bonus_unique_wraith_king_4
p1958
asg178
(lp1959
Venraged_wildkin_tornado
p1960
aVenraged_wildkin_toughness_aura
p1961
aV
aV
asVnpc_dota_loadout_generic
p1962
(lp1963
sg231
(lp1964
Vrattletrap_battery_assault
p1965
aVrattletrap_power_cogs
p1966
aVrattletrap_rocket_flare
p1967
aVgeneric_hidden
p1968
aVgeneric_hidden
p1969
aVrattletrap_hookshot
p1970
aVspecial_bonus_armor_5
p1971
aVspecial_bonus_movement_speed_25
p1972
aVspecial_bonus_strength_15
p1973
aVspecial_bonus_unique_clockwerk_3
p1974
aVspecial_bonus_magic_resistance_20
p1975
aVspecial_bonus_unique_clockwerk_2
p1976
aVspecial_bonus_unique_clockwerk_4
p1977
aVspecial_bonus_unique_clockwerk
p1978
asVkeeper of the light
p1979
(lp1980
Vkeeper_of_the_light_illuminate
p1981
aVkeeper_of_the_light_mana_leak
p1982
aVkeeper_of_the_light_chakra_magic
p1983
aVkeeper_of_the_light_recall
p1984
aVkeeper_of_the_light_blinding_light
p1985
aVkeeper_of_the_light_spirit_form
p1986
aVkeeper_of_the_light_illuminate_end
p1987
aVkeeper_of_the_light_spirit_form_illuminate
p1988
aVkeeper_of_the_light_spirit_form_illuminate_end
p1989
aVspecial_bonus_spell_lifesteal_8
p1990
aVspecial_bonus_movement_speed_25
p1991
aVspecial_bonus_exp_boost_40
p1992
aVspecial_bonus_cast_range_350
p1993
aVspecial_bonus_magic_resistance_40
p1994
aVspecial_bonus_unique_keeper_of_the_light_2
p1995
aVspecial_bonus_unique_keeper_of_the_light_3
p1996
aVspecial_bonus_unique_keeper_of_the_light
p1997
asg179
(lp1998
Vphantom_lancer_spirit_lance
p1999
aVphantom_lancer_doppelwalk
p2000
aVphantom_lancer_phantom_edge
p2001
aVgeneric_hidden
p2002
aVgeneric_hidden
p2003
aVphantom_lancer_juxtapose
p2004
aVspecial_bonus_evasion_10
p2005
aVspecial_bonus_attack_speed_20
p2006
aVspecial_bonus_hp_250
p2007
aVspecial_bonus_unique_phantom_lancer_2
p2008
aVspecial_bonus_unique_phantom_lancer
p2009
aVspecial_bonus_unique_phantom_lancer_3
p2010
aVspecial_bonus_unique_phantom_lancer_4
p2011
aVspecial_bonus_30_crit_2
p2012
asVgiant wolf
p2013
(lp2014
V
aV
aV
aV
asVdark willow
p2015
(lp2016
Vdark_willow_bramble_maze
p2017
aVdark_willow_shadow_realm
p2018
aVdark_willow_cursed_crown
p2019
aVdark_willow_bedlam
p2020
aVgeneric_hidden
p2021
aVdark_willow_terrorize
p2022
aVspecial_bonus_attack_damage_20
p2023
aVspecial_bonus_cast_range_125
p2024
aVspecial_bonus_gold_income_15
p2025
aVspecial_bonus_movement_speed_40
p2026
aVspecial_bonus_spell_lifesteal_10
p2027
aVspecial_bonus_unique_dark_willow_1
p2028
aVspecial_bonus_attack_speed_200
p2029
aVspecial_bonus_unique_dark_willow_2
p2030
asVsentry ward
p2031
(lp2032
sVvengeful spirit
p2033
(lp2034
Vvengefulspirit_magic_missile
p2035
aVvengefulspirit_wave_of_terror
p2036
aVvengefulspirit_command_aura
p2037
aVgeneric_hidden
p2038
aVgeneric_hidden
p2039
aVvengefulspirit_nether_swap
p2040
aVspecial_bonus_magic_resistance_15
p2041
aVspecial_bonus_unique_vengeful_spirit_4
p2042
aVspecial_bonus_agility_15
p2043
aVspecial_bonus_unique_vengeful_spirit_6
p2044
aVspecial_bonus_unique_vengeful_spirit_5
p2045
aVspecial_bonus_unique_vengeful_spirit_2
p2046
aVspecial_bonus_unique_vengeful_spirit_1
p2047
aVspecial_bonus_unique_vengeful_spirit_3
p2048
asVbristleback
p2049
(lp2050
Vbristleback_viscous_nasal_goo
p2051
aVbristleback_quill_spray
p2052
aVbristleback_bristleback
p2053
aVgeneric_hidden
p2054
aVgeneric_hidden
p2055
aVbristleback_warpath
p2056
aVspecial_bonus_movement_speed_20
p2057
aVspecial_bonus_mp_regen_2
p2058
aVspecial_bonus_hp_250
p2059
aVspecial_bonus_unique_bristleback
p2060
aVspecial_bonus_hp_regen_20
p2061
aVspecial_bonus_unique_bristleback_2
p2062
aVspecial_bonus_spell_lifesteal_15
p2063
aVspecial_bonus_unique_bristleback_3
p2064
asVlich
p2065
(lp2066
Vlich_frost_nova
p2067
aVlich_frost_armor
p2068
aVlich_dark_ritual
p2069
aVgeneric_hidden
p2070
aVgeneric_hidden
p2071
aVlich_chain_frost
p2072
aVspecial_bonus_hp_175
p2073
aVspecial_bonus_movement_speed_25
p2074
aVspecial_bonus_attack_damage_120
p2075
aVspecial_bonus_unique_lich_3
p2076
aVspecial_bonus_cast_range_175
p2077
aVspecial_bonus_gold_income_20
p2078
aVspecial_bonus_unique_lich_1
p2079
aVspecial_bonus_unique_lich_2
p2080
asVmega melee creep
p2081
(lp2082
V
aV
aV
aV
aV
aV
aV
aV
asVnefarious megagreevil
p2083
(lp2084
Vgreevil_miniboss_black_nightmare
p2085
aVgreevil_miniboss_black_brain_sap
p2086
aVgreevil_miniboss_sight
p2087
aV
asVvisage
p2088
(lp2089
Vvisage_grave_chill
p2090
aVvisage_soul_assumption
p2091
aVvisage_gravekeepers_cloak
p2092
aVvisage_stone_form_self_cast
p2093
aVgeneric_hidden
p2094
aVvisage_summon_familiars
p2095
aVspecial_bonus_cast_range_125
p2096
aVspecial_bonus_attack_damage_30
p2097
aVspecial_bonus_exp_boost_40
p2098
aVspecial_bonus_unique_visage_3
p2099
aVspecial_bonus_unique_visage_4
p2100
aVspecial_bonus_unique_visage_2
p2101
aVspecial_bonus_unique_visage_5
p2102
aVspecial_bonus_unique_visage_6
p2103
asVnecronomicon archer
p2104
(lp2105
Vnecronomicon_archer_aoe
p2106
aV
aV
aV
aV
aV
aV
aV
asVnpc_dota_ember_spirit_remnant
p2107
(lp2108
V
aV
aV
aV
asVslardar
p2109
(lp2110
Vslardar_sprint
p2111
aVslardar_slithereen_crush
p2112
aVslardar_bash
p2113
aVgeneric_hidden
p2114
aVgeneric_hidden
p2115
aVslardar_amplify_damage
p2116
aVspecial_bonus_hp_regen_5
p2117
aVspecial_bonus_attack_damage_25
p2118
aVspecial_bonus_hp_300
p2119
aVspecial_bonus_unique_slardar_2
p2120
aVspecial_bonus_attack_speed_50
p2121
aVspecial_bonus_night_vision_1000
p2122
aVspecial_bonus_unique_slardar
p2123
aVspecial_bonus_unique_slardar_3
p2124
asVancient prowler shaman
p2125
(lp2126
Vspawnlord_master_stomp
p2127
aVspawnlord_master_freeze
p2128
aV
aV
asVtreant
p2129
(lp2130
V
aV
aV
aV
aV
aV
aV
aV
asVlycan wolf
p2131
(lp2132
Vlycan_summon_wolves_critical_strike
p2133
aVlycan_summon_wolves_invisibility
p2134
aV
aV
asVdark troll summoner
p2135
(lp2136
Vdark_troll_warlord_ensnare
p2137
aVdark_troll_warlord_raise_dead
p2138
aV
aV
asVshadow fiend
p2139
(lp2140
Vnevermore_shadowraze1
p2141
aVnevermore_shadowraze2
p2142
aVnevermore_shadowraze3
p2143
aVnevermore_necromastery
p2144
aVnevermore_dark_lord
p2145
aVnevermore_requiem
p2146
aVspecial_bonus_spell_amplify_10
p2147
aVspecial_bonus_attack_speed_20
p2148
aVspecial_bonus_unique_nevermore_3
p2149
aVspecial_bonus_movement_speed_40
p2150
aVspecial_bonus_evasion_20
p2151
aVspecial_bonus_unique_nevermore_2
p2152
aVspecial_bonus_unique_nevermore_1
p2153
aVspecial_bonus_cooldown_reduction_40
p2154
asVnether ward
p2155
(lp2156
V
aV
aV
aV
asVtidehunter
p2157
(lp2158
Vtidehunter_gush
p2159
aVtidehunter_kraken_shell
p2160
aVtidehunter_anchor_smash
p2161
aVgeneric_hidden
p2162
aVgeneric_hidden
p2163
aVtidehunter_ravage
p2164
aVspecial_bonus_movement_speed_25
p2165
aVspecial_bonus_unique_tidehunter_2
p2166
aVspecial_bonus_exp_boost_40
p2167
aVspecial_bonus_unique_tidehunter_3
p2168
aVspecial_bonus_unique_tidehunter_4
p2169
aVspecial_bonus_unique_tidehunter
p2170
aVspecial_bonus_cooldown_reduction_25
p2171
aVspecial_bonus_attack_damage_250
p2172
asVserpent ward
p2173
(lp2174
V
aV
aV
aV
aV
asVio
p2175
(lp2176
Vwisp_tether
p2177
aVwisp_spirits
p2178
aVwisp_overcharge
p2179
aVwisp_spirits_in
p2180
aVwisp_spirits_out
p2181
aVwisp_relocate
p2182
aVwisp_tether_break
p2183
aVspecial_bonus_unique_wisp_3
p2184
aVspecial_bonus_attack_damage_60
p2185
aVspecial_bonus_unique_wisp
p2186
aVspecial_bonus_unique_wisp_5
p2187
aVspecial_bonus_gold_income_25
p2188
aVspecial_bonus_unique_wisp_4
p2189
aVspecial_bonus_unique_wisp_2
p2190
aVspecial_bonus_hp_regen_50
p2191
asVverdant megagreevil
p2192
(lp2193
Vgreevil_miniboss_green_living_armor
p2194
aVgreevil_miniboss_green_overgrowth
p2195
aVgreevil_miniboss_sight
p2196
aV
asg245
(lp2197
Vrubick_telekinesis
p2198
aVrubick_fade_bolt
p2199
aVrubick_null_field
p2200
aVrubick_empty1
p2201
aVrubick_empty2
p2202
aVrubick_spell_steal
p2203
aVrubick_telekinesis_land
p2204
aVrubick_hidden1
p2205
aVrubick_hidden2
p2206
aVrubick_hidden3
p2207
aVspecial_bonus_hp_200
p2208
aVspecial_bonus_attack_damage_60
p2209
aVspecial_bonus_cast_range_100
p2210
aVspecial_bonus_unique_rubick_2
p2211
aVspecial_bonus_unique_rubick_3
p2212
aVspecial_bonus_unique_rubick
p2213
aVspecial_bonus_unique_rubick_4
p2214
aVspecial_bonus_unique_rubick_5
p2215
asg247
(lp2216
Venchantress_untouchable
p2217
aVenchantress_enchant
p2218
aVenchantress_natures_attendants
p2219
aVgeneric_hidden
p2220
aVgeneric_hidden
p2221
aVenchantress_impetus
p2222
aVspecial_bonus_magic_resistance_15
p2223
aVspecial_bonus_movement_speed_25
p2224
aVspecial_bonus_attack_damage_50
p2225
aVspecial_bonus_unique_enchantress_2
p2226
aVspecial_bonus_unique_enchantress_3
p2227
aVspecial_bonus_unique_enchantress_1
p2228
aVspecial_bonus_unique_enchantress_4
p2229
aVspecial_bonus_unique_enchantress_5
p2230
asVwildwing
p2231
(lp2232
V
aV
aV
aV
asg319
(lp2233
V
aV
aV
aV
aV
aV
aV
aV
asVdazzle
p2234
(lp2235
Vdazzle_poison_touch
p2236
aVdazzle_shallow_grave
p2237
aVdazzle_shadow_wave
p2238
aVgeneric_hidden
p2239
aVgeneric_hidden
p2240
aVdazzle_weave
p2241
aVspecial_bonus_attack_damage_75
p2242
aVspecial_bonus_hp_200
p2243
aVspecial_bonus_cast_range_125
p2244
aVspecial_bonus_unique_dazzle_2
p2245
aVspecial_bonus_movement_speed_50
p2246
aVspecial_bonus_unique_dazzle_3
p2247
aVspecial_bonus_unique_dazzle_1
p2248
aVspecial_bonus_unique_dazzle_4
p2249
asVwinter wyvern
p2250
(lp2251
Vwinter_wyvern_arctic_burn
p2252
aVwinter_wyvern_splinter_blast
p2253
aVwinter_wyvern_cold_embrace
p2254
aVgeneric_hidden
p2255
aVgeneric_hidden
p2256
aVwinter_wyvern_winters_curse
p2257
aVspecial_bonus_gold_income_15
p2258
aVspecial_bonus_attack_damage_60
p2259
aVspecial_bonus_hp_350
p2260
aVspecial_bonus_night_vision_500
p2261
aVspecial_bonus_unique_winter_wyvern_1
p2262
aVspecial_bonus_unique_winter_wyvern_2
p2263
aVspecial_bonus_unique_winter_wyvern_3
p2264
aVspecial_bonus_unique_winter_wyvern_4
p2265
asVtimbersaw
p2266
(lp2267
Vshredder_whirling_death
p2268
aVshredder_timber_chain
p2269
aVshredder_reactive_armor
p2270
aVshredder_chakram_2
p2271
aVgeneric_hidden
p2272
aVshredder_chakram
p2273
aVshredder_return_chakram
p2274
aVshredder_return_chakram_2
p2275
aVspecial_bonus_spell_amplify_6
p2276
aVspecial_bonus_exp_boost_25
p2277
aVspecial_bonus_attack_damage_100
p2278
aVspecial_bonus_unique_timbersaw_2
p2279
aVspecial_bonus_strength_15
p2280
aVspecial_bonus_cooldown_reduction_10
p2281
aVspecial_bonus_unique_timbersaw
p2282
aVspecial_bonus_unique_timbersaw_3
p2283
asVmagnus
p2284
(lp2285
Vmagnataur_shockwave
p2286
aVmagnataur_empower
p2287
aVmagnataur_skewer
p2288
aVgeneric_hidden
p2289
aVgeneric_hidden
p2290
aVmagnataur_reverse_polarity
p2291
aVspecial_bonus_attack_speed_25
p2292
aVspecial_bonus_hp_200
p2293
aVspecial_bonus_strength_15
p2294
aVspecial_bonus_unique_magnus_4
p2295
aVspecial_bonus_armor_12
p2296
aVspecial_bonus_unique_magnus_3
p2297
aVspecial_bonus_unique_magnus_2
p2298
aVspecial_bonus_unique_magnus_5
p2299
asVcrystal maiden
p2300
(lp2301
Vcrystal_maiden_crystal_nova
p2302
aVcrystal_maiden_frostbite
p2303
aVcrystal_maiden_brilliance_aura
p2304
aVgeneric_hidden
p2305
aVgeneric_hidden
p2306
aVcrystal_maiden_freezing_field
p2307
aVspecial_bonus_hp_250
p2308
aVspecial_bonus_cast_range_100
p2309
aVspecial_bonus_unique_crystal_maiden_4
p2310
aVspecial_bonus_gold_income_20
p2311
aVspecial_bonus_attack_speed_250
p2312
aVspecial_bonus_unique_crystal_maiden_3
p2313
aVspecial_bonus_unique_crystal_maiden_1
p2314
aVspecial_bonus_unique_crystal_maiden_2
p2315
asVarc warden
p2316
(lp2317
Varc_warden_flux
p2318
aVarc_warden_magnetic_field
p2319
aVarc_warden_spark_wraith
p2320
aVgeneric_hidden
p2321
aVgeneric_hidden
p2322
aVarc_warden_tempest_double
p2323
aVspecial_bonus_cooldown_reduction_8
p2324
aVspecial_bonus_attack_speed_25
p2325
aVspecial_bonus_hp_350
p2326
aVspecial_bonus_unique_arc_warden_2
p2327
aVspecial_bonus_unique_arc_warden_3
p2328
aVspecial_bonus_attack_range_125
p2329
aVspecial_bonus_lifesteal_30
p2330
aVspecial_bonus_unique_arc_warden
p2331
asVthyg the giftsnatch
p2332
(lp2333
V
aV
aV
aV
aV
aV
aV
aV
asVancient black dragon
p2334
(lp2335
Vblack_dragon_fireball
p2336
aVblack_dragon_splash_attack
p2337
aVblack_dragon_dragonhide_aura
p2338
aV
asVnimbus
p2339
(lp2340
V
aV
aV
aV
aV
aV
aV
aV
asVshrine
p2341
(lp2342
Vbackdoor_protection_in_base
p2343
aVfiller_ability
p2344
aV
aV
aV
aV
aV
aV
asVphantom assassin
p2345
(lp2346
Vphantom_assassin_stifling_dagger
p2347
aVphantom_assassin_phantom_strike
p2348
aVphantom_assassin_blur
p2349
aVgeneric_hidden
p2350
aVgeneric_hidden
p2351
aVphantom_assassin_coup_de_grace
p2352
aVspecial_bonus_hp_150
p2353
aVspecial_bonus_attack_damage_15
p2354
aVspecial_bonus_corruption_4
p2355
aVspecial_bonus_cleave_20
p2356
aVspecial_bonus_lifesteal_20
p2357
aVspecial_bonus_unique_phantom_assassin
p2358
aVspecial_bonus_unique_phantom_assassin_2
p2359
aVspecial_bonus_unique_phantom_assassin_3
p2360
asVfamiliar
p2361
(lp2362
Vvisage_summon_familiars_stone_form
p2363
aV
aV
aV
aV
aV
aV
aV
asVbudding greevil minion
p2364
(lp2365
V
aV
aV
aV
asVundying zombie
p2366
(lp2367
Vundying_tombstone_zombie_deathstrike
p2368
aVneutral_spell_immunity
p2369
aV
aV
aV
aV
aV
aV
asVogre magi
p2370
(lp2371
Vogre_magi_fireblast
p2372
aVogre_magi_ignite
p2373
aVogre_magi_bloodlust
p2374
aVogre_magi_unrefined_fireblast
p2375
aVgeneric_hidden
p2376
aVogre_magi_multicast
p2377
aVspecial_bonus_gold_income_10
p2378
aVspecial_bonus_cast_range_100
p2379
aVspecial_bonus_attack_damage_90
p2380
aVspecial_bonus_hp_300
p2381
aVspecial_bonus_strength_40
p2382
aVspecial_bonus_unique_ogre_magi
p2383
aVspecial_bonus_movement_speed_90
p2384
aVspecial_bonus_unique_ogre_magi_2
p2385
asVnpc_dota_hero_base
p2386
(lp2387
V
aV
aV
aV
aV
aV
aV
aV
aV
asVancient granite golem
p2388
(lp2389
Vgranite_golem_hp_aura
p2390
aV
aV
aV
asVtower
p2391
(lp2392
Vbackdoor_protection_in_base
p2393
aV
aV
aV
aV
aV
aV
aV
asVvenomancer
p2394
(lp2395
Vvenomancer_venomous_gale
p2396
aVvenomancer_poison_sting
p2397
aVvenomancer_plague_ward
p2398
aVgeneric_hidden
p2399
aVgeneric_hidden
p2400
aVvenomancer_poison_nova
p2401
aVspecial_bonus_unique_venomancer_3
p2402
aVspecial_bonus_gold_income_15
p2403
aVspecial_bonus_cast_range_200
p2404
aVspecial_bonus_unique_venomancer_2
p2405
aVspecial_bonus_unique_venomancer_4
p2406
aVspecial_bonus_unique_venomancer_5
p2407
aVspecial_bonus_unique_venomancer_6
p2408
aVspecial_bonus_unique_venomancer
p2409
asVtornado
p2410
(lp2411
Vtornado_tempest
p2412
aV
aV
aV
aV
aV
aV
aV
asVleshrac
p2413
(lp2414
Vleshrac_split_earth
p2415
aVleshrac_diabolic_edict
p2416
aVleshrac_lightning_storm
p2417
aVgeneric_hidden
p2418
aVgeneric_hidden
p2419
aVleshrac_pulse_nova
p2420
aVspecial_bonus_armor_5
p2421
aVspecial_bonus_mp_250
p2422
aVspecial_bonus_strength_15
p2423
aVspecial_bonus_movement_speed_40
p2424
aVspecial_bonus_evasion_25
p2425
aVspecial_bonus_unique_leshrac_3
p2426
aVspecial_bonus_unique_leshrac_1
p2427
aVspecial_bonus_unique_leshrac_2
p2428
asVchaos knight
p2429
(lp2430
Vchaos_knight_chaos_bolt
p2431
aVchaos_knight_reality_rift
p2432
aVchaos_knight_chaos_strike
p2433
aVgeneric_hidden
p2434
aVgeneric_hidden
p2435
aVchaos_knight_phantasm
p2436
aVspecial_bonus_all_stats_5
p2437
aVspecial_bonus_movement_speed_20
p2438
aVspecial_bonus_strength_15
p2439
aVspecial_bonus_cooldown_reduction_12
p2440
aVspecial_bonus_gold_income_25
p2441
aVspecial_bonus_unique_chaos_knight
p2442
aVspecial_bonus_unique_chaos_knight_2
p2443
aVspecial_bonus_unique_chaos_knight_3
p2444
asVbeastmaster
p2445
(lp2446
Vbeastmaster_wild_axes
p2447
aVbeastmaster_call_of_the_wild
p2448
aVbeastmaster_inner_beast
p2449
aVgeneric_hidden
p2450
aVgeneric_hidden
p2451
aVbeastmaster_primal_roar
p2452
aVspecial_bonus_exp_boost_25
p2453
aVspecial_bonus_movement_speed_30
p2454
aVspecial_bonus_armor_7
p2455
aVspecial_bonus_unique_beastmaster_2
p2456
aVspecial_bonus_unique_beastmaster
p2457
aVspecial_bonus_hp_500
p2458
aVspecial_bonus_unique_beastmaster_4
p2459
aVspecial_bonus_unique_beastmaster_3
p2460
asVskeleton warrior
p2461
(lp2462
V
aV
aV
aV
aV
aV
aV
aV
asVbloodseeker
p2463
(lp2464
Vbloodseeker_bloodrage
p2465
aVbloodseeker_blood_bath
p2466
aVbloodseeker_thirst
p2467
aVgeneric_hidden
p2468
aVgeneric_hidden
p2469
aVbloodseeker_rupture
p2470
aVspecial_bonus_attack_speed_25
p2471
aVspecial_bonus_armor_4
p2472
aVspecial_bonus_hp_300
p2473
aVspecial_bonus_unique_bloodseeker_2
p2474
aVspecial_bonus_unique_bloodseeker_3
p2475
aVspecial_bonus_lifesteal_25
p2476
aVspecial_bonus_unique_bloodseeker
p2477
aVspecial_bonus_unique_bloodseeker_4
p2478
asVnpc_dota_dark_willow_creature
p2479
(lp2480
V
aV
aV
aV
asg275
(lp2481
Vgreevil_miniboss_yellow_ion_shell
p2482
aVgreevil_miniboss_yellow_surge
p2483
aVgreevil_miniboss_sight
p2484
aV
asVsven
p2485
(lp2486
Vsven_storm_bolt
p2487
aVsven_great_cleave
p2488
aVsven_warcry
p2489
aVgeneric_hidden
p2490
aVgeneric_hidden
p2491
aVsven_gods_strength
p2492
aVspecial_bonus_strength_8
p2493
aVspecial_bonus_mp_regen_2
p2494
aVspecial_bonus_movement_speed_30
p2495
aVspecial_bonus_unique_sven_3
p2496
aVspecial_bonus_lifesteal_25
p2497
aVspecial_bonus_unique_sven
p2498
aVspecial_bonus_unique_sven_2
p2499
aVspecial_bonus_unique_sven_4
p2500
asVancient primal stalker
p2501
(lp2502
V
aV
aV
aV
asVgreater treant
p2503
(lp2504
V
aV
aV
aV
aV
aV
aV
aV
asVhawk
p2505
(lp2506
V
aV
aV
aV
asVnpc_dota_slark_visual
p2507
(lp2508
V
aV
aV
aV
asVskywrath mage
p2509
(lp2510
Vskywrath_mage_arcane_bolt
p2511
aVskywrath_mage_concussive_shot
p2512
aVskywrath_mage_ancient_seal
p2513
aVgeneric_hidden
p2514
aVgeneric_hidden
p2515
aVskywrath_mage_mystic_flare
p2516
aVspecial_bonus_movement_speed_25
p2517
aVspecial_bonus_intelligence_8
p2518
aVspecial_bonus_unique_skywrath
p2519
aVspecial_bonus_unique_skywrath_2
p2520
aVspecial_bonus_unique_skywrath_4
p2521
aVspecial_bonus_unique_skywrath_3
p2522
aVspecial_bonus_gold_income_50
p2523
aVspecial_bonus_unique_skywrath_5
p2524
asVjakiro
p2525
(lp2526
Vjakiro_dual_breath
p2527
aVjakiro_ice_path
p2528
aVjakiro_liquid_fire
p2529
aVgeneric_hidden
p2530
aVgeneric_hidden
p2531
aVjakiro_macropyre
p2532
aVspecial_bonus_exp_boost_30
p2533
aVspecial_bonus_spell_amplify_8
p2534
aVspecial_bonus_attack_range_300
p2535
aVspecial_bonus_unique_jakiro_2
p2536
aVspecial_bonus_unique_jakiro_4
p2537
aVspecial_bonus_gold_income_25
p2538
aVspecial_bonus_unique_jakiro_3
p2539
aVspecial_bonus_unique_jakiro
p2540
asVtarget dummy
p2541
(lp2542
V
aV
aV
aV
aV
aV
asVviper
p2543
(lp2544
Vviper_poison_attack
p2545
aVviper_nethertoxin
p2546
aVviper_corrosive_skin
p2547
aVgeneric_hidden
p2548
aVgeneric_hidden
p2549
aVviper_viper_strike
p2550
aVspecial_bonus_attack_speed_20
p2551
aVspecial_bonus_spell_lifesteal_8
p2552
aVspecial_bonus_attack_range_100
p2553
aVspecial_bonus_unique_viper_1
p2554
aVspecial_bonus_unique_viper_2
p2555
aVspecial_bonus_unique_viper_4
p2556
aVspecial_bonus_unique_viper_3
p2557
aVspecial_bonus_attack_damage_120
p2558
asVdiretide ghoul
p2559
(lp2560
V
aV
aV
aV
aV
aV
aV
aV
asVranged creep
p2561
(lp2562
V
aV
aV
aV
aV
aV
aV
aV
asVspectre
p2563
(lp2564
Vspectre_spectral_dagger
p2565
aVspectre_desolate
p2566
aVspectre_dispersion
p2567
aVspectre_reality
p2568
aVgeneric_hidden
p2569
aVspectre_haunt
p2570
aVspecial_bonus_hp_regen_5
p2571
aVspecial_bonus_unique_spectre_2
p2572
aVspecial_bonus_all_stats_8
p2573
aVspecial_bonus_unique_spectre
p2574
aVspecial_bonus_hp_500
p2575
aVspecial_bonus_unique_spectre_3
p2576
aVspecial_bonus_unique_spectre_4
p2577
aVspecial_bonus_unique_spectre_5
p2578
asVbounty hunter
p2579
(lp2580
Vbounty_hunter_shuriken_toss
p2581
aVbounty_hunter_jinada
p2582
aVbounty_hunter_wind_walk
p2583
aVgeneric_hidden
p2584
aVgeneric_hidden
p2585
aVbounty_hunter_track
p2586
aVspecial_bonus_movement_speed_30
p2587
aVspecial_bonus_exp_boost_25
p2588
aVspecial_bonus_attack_speed_50
p2589
aVspecial_bonus_hp_350
p2590
aVspecial_bonus_unique_bounty_hunter_2
p2591
aVspecial_bonus_unique_bounty_hunter
p2592
aVspecial_bonus_evasion_50
p2593
aVspecial_bonus_unique_bounty_hunter_3
p2594
asVtombstone
p2595
(lp2596
Vneutral_spell_immunity
p2597
aV
aV
aV
aV
aV
aV
aV
asVancient apparition
p2598
(lp2599
Vancient_apparition_cold_feet
p2600
aVancient_apparition_ice_vortex
p2601
aVancient_apparition_chilling_touch
p2602
aVgeneric_hidden
p2603
aVgeneric_hidden
p2604
aVancient_apparition_ice_blast
p2605
aVancient_apparition_ice_blast_release
p2606
aVspecial_bonus_gold_income_10
p2607
aVspecial_bonus_spell_amplify_10
p2608
aVspecial_bonus_unique_ancient_apparition_3
p2609
aVspecial_bonus_hp_regen_20
p2610
aVspecial_bonus_unique_ancient_apparition_4
p2611
aVspecial_bonus_unique_ancient_apparition_2
p2612
aVspecial_bonus_unique_ancient_apparition_6
p2613
aVspecial_bonus_unique_ancient_apparition_5
p2614
asVhoming missile
p2615
(lp2616
V
aV
aV
aV
asVaxe
p2617
(lp2618
Vaxe_berserkers_call
p2619
aVaxe_battle_hunger
p2620
aVaxe_counter_helix
p2621
aVgeneric_hidden
p2622
aVgeneric_hidden
p2623
aVaxe_culling_blade
p2624
aVspecial_bonus_strength_8
p2625
aVspecial_bonus_attack_speed_40
p2626
aVspecial_bonus_mp_regen_3
p2627
aVspecial_bonus_movement_speed_40
p2628
aVspecial_bonus_hp_regen_20
p2629
aVspecial_bonus_unique_axe_3
p2630
aVspecial_bonus_unique_axe_2
p2631
aVspecial_bonus_unique_axe
p2632
asVoracle
p2633
(lp2634
Voracle_fortunes_end
p2635
aVoracle_fates_edict
p2636
aVoracle_purifying_flames
p2637
aVgeneric_hidden
p2638
aVgeneric_hidden
p2639
aVoracle_false_promise
p2640
aVspecial_bonus_unique_oracle_2
p2641
aVspecial_bonus_exp_boost_25
p2642
aVspecial_bonus_cast_range_150
p2643
aVspecial_bonus_gold_income_15
p2644
aVspecial_bonus_movement_speed_75
p2645
aVspecial_bonus_unique_oracle_4
p2646
aVspecial_bonus_unique_oracle_3
p2647
aVspecial_bonus_unique_oracle
p2648
asVnoxious megagreevil
p2649
(lp2650
Vgreevil_miniboss_purple_venomous_gale
p2651
aVgreevil_miniboss_purple_plague_ward
p2652
aVgreevil_miniboss_sight
p2653
aV
assVsatyr_trickster_purge
p2654
V5314
p2655
sVlone_druid_true_form_battle_cry
p2656
V5417
p2657
sVlone_druid_rabid
p2658
V5413
p2659
sVomniknight_repel
p2660
V5264
p2661
sg311
g310
sg775
Vnpc_dota_hero_clinkz
p2662
sVtidehunter_ravage
p2663
V5121
p2664
sVnpc_dota_goodguys_siege_upgraded
p2665
g657
sVdeath_prophet_carrion_swarm
p2666
V5090
p2667
sVitem_helm_of_iron_will
p2668
V6
sVwisp_spirits_out
p2669
V5493
p2670
sVenchantress_impetus
p2671
V5270
p2672
sVitem_mekansm
p2673
V79
p2674
sVnpc_dota_hero_sniper
p2675
g503
sVspecial_bonus_movement_speed_60
p2676
V6373
p2677
sg1317
Vnpc_dota_necronomicon_warrior_3
p2678
sVitem_recipe_poor_mans_shield
p2679
V70
p2680
sVspecial_bonus_cast_range_200
p2681
V6114
p2682
sVnpc_dota_hero_bloodseeker
p2683
g2463
sVtinker_laser
p2684
V5150
p2685
sg1193
Vnpc_dota_hero_broodmother
p2686
sVbrewmaster_earth_spell_immunity
p2687
V5405
p2688
sVcrystal_maiden_freezing_field
p2689
V5129
p2690
sVvenomancer_venomous_gale
p2691
V5178
p2692
sVcentaur_return
p2693
V5516
p2694
sVvisage_soul_assumption
p2695
V5481
p2696
sVnpc_dota_dire_eidolon
p2697
g713
sVspecial_bonus_lifesteal_20
p2698
V6078
p2699
sVspecial_bonus_lifesteal_25
p2700
V6111
p2701
sVearthshaker_enchant_totem
p2702
V5024
p2703
sVspecial_bonus_respawn_reduction_50
p2704
V6269
p2705
sVtechies_stasis_trap
p2706
V5600
p2707
sVzuus_thundergods_wrath
p2708
V5113
p2709
sVshredder_timber_chain
p2710
V5525
p2711
sVnight_stalker_crippling_fear
p2712
V5276
p2713
sVnpc_dota_creep_goodguys_melee_diretide
p2714
g2559
sVzuus_lightning_bolt
p2715
V5111
p2716
sg1566
Vnpc_dota_neutral_polar_furbolg_champion
p2717
sVbroodmother_spawn_spiderite
p2718
V5283
p2719
sVitem_recipe_travel_boots_2
p2720
V219
p2721
sVspecial_bonus_unique_axe_3
p2722
V6815
p2723
sVspecial_bonus_unique_axe_2
p2724
V6608
p2725
sVitem_recipe_ethereal_blade
p2726
V175
p2727
sVspawnlord_master_freeze
p2728
V6278
p2729
sVitem_null_talisman
p2730
V77
p2731
sVitem_boots
p2732
V29
p2733
sg1745
Vnpc_dota_neutral_kobold_taskmaster
p2734
sVnpc_dota_hero_spirit_breaker
p2735
g925
sg1251
Vnpc_dota_hero_furion
p2736
sVlycan_shapeshift
p2737
V5398
p2738
sVspecial_bonus_attack_range_175
p2739
V6186
p2740
sVspecial_bonus_unique_outworld_devourer
p2741
V6241
p2742
sVspecial_bonus_attack_speed_160
p2743
V6605
p2744
sVspecial_bonus_unique_razor
p2745
V6028
p2746
sVitem_boots_of_elves
p2747
V18
p2748
sVgreevil_miniboss_red_overpower
p2749
V5541
p2750
sVspecial_bonus_unique_storm_spirit_3
p2751
V6907
p2752
sVspecial_bonus_unique_storm_spirit_2
p2753
V6906
p2754
sVnpc_dota_shadow_shaman_ward_1
p2755
Vserpent ward
p2756
sVspecial_bonus_unique_storm_spirit_5
p2757
V6916
p2758
sVspecial_bonus_unique_storm_spirit_4
p2759
V6908
p2760
sVundying_tombstone
p2761
V5444
p2762
sVspecial_bonus_intelligence_30
p2763
V6060
p2764
sVspecial_bonus_intelligence_35
p2765
V6248
p2766
sVitem_mithril_hammer
p2767
V8
sg383
Vnpc_dota_goodguys_fort
p2768
sg1579
Vnpc_dota_healing_campfire
p2769
sVroshan_devotion
p2770
V5217
p2771
sg2284
Vnpc_dota_hero_magnataur
p2772
sVspecial_bonus_spell_amplify_3
p2773
V6162
p2774
sVspecial_bonus_spell_amplify_6
p2775
V5996
p2776
sVspecial_bonus_spell_amplify_5
p2777
V5948
p2778
sVspecial_bonus_spell_amplify_4
p2779
V6015
p2780
sVspecial_bonus_spell_amplify_8
p2781
V5949
p2782
sVnpc_dota_creep_badguys_melee_upgraded
p2783
Vsuper melee creep
p2784
sVspecial_bonus_gold_income_40
p2785
V6301
p2786
sVitem_demon_edge
p2787
V51
p2788
sg2394
Vnpc_dota_hero_venomancer
p2789
sVbrewmaster_storm_dispel_magic
p2790
V5408
p2791
sVslardar_bash
p2792
V5116
p2793
sVcourier_take_stash_items
p2794
V5208
p2795
sVinvoker_empty2
p2796
V5374
p2797
sVitem_sange_and_yasha
p2798
V154
p2799
sg1869
Vnpc_dota_greevil
p2800
sVinvoker_empty1
p2801
V5373
p2802
sVspecial_bonus_mp_350
p2803
V6254
p2804
sVriki_permanent_invisibility
p2805
V5144
p2806
sVitem_enchanted_mango
p2807
V216
p2808
sVroshan_halloween_angry
p2809
V9991
p2810
sVspecial_bonus_unique_disruptor_3
p2811
V6536
p2812
sVspecial_bonus_unique_disruptor_2
p2813
V6368
p2814
sVspecial_bonus_unique_disruptor_5
p2815
V6812
p2816
sVspecial_bonus_unique_disruptor_4
p2817
V6630
p2818
sVwisp_spirits
p2819
V5486
p2820
sVlich_dark_ritual
p2821
V5136
p2822
sVshredder_return_chakram_2
p2823
V5646
p2824
sVspecial_bonus_undefined
p2825
V6285
p2826
sg1805
Vnpc_dota_hero_enigma
p2827
sVitem_veil_of_discord
p2828
V190
p2829
sValchemist_unstable_concoction_throw
p2830
V5367
p2831
sVobsidian_destroyer_arcane_orb
p2832
V5391
p2833
sg949
Vnpc_dota_hero_legion_commander
p2834
sVphantom_assassin_blur
p2835
V5192
p2836
sVspecial_bonus_mp_225
p2837
V6504
p2838
sVspecial_bonus_intelligence_8
p2839
V5925
p2840
sg1630
Vnpc_dota_neutral_satyr_hellcaller
p2841
sg853
Vnpc_dota_brewmaster_earth_3
p2842
sVspecial_bonus_exp_boost_5
p2843
V5983
p2844
sVbackdoor_protection
p2845
V5350
p2846
sVnpc_dota_goodguys_tower3_top
p2847
Vtower
p2848
sVitem_vitality_booster
p2849
V61
p2850
sg476
Vnpc_dota_badguys_cny_beast
p2851
sVspecial_bonus_unique_bristleback_3
p2852
V6615
p2853
sVspecial_bonus_unique_bristleback_2
p2854
V6360
p2855
sVspecial_bonus_attack_range_400
p2856
V6307
p2857
sVshadow_shaman_mass_serpent_ward
p2858
V5081
p2859
sVclinkz_wind_walk
p2860
V5261
p2861
sVitem_river_painter
p2862
V1021
p2863
sVspecial_bonus_unique_razor_3
p2864
V6860
p2865
sVspecial_bonus_unique_razor_2
p2866
V6408
p2867
sVspecial_bonus_unique_razor_4
p2868
V6861
p2869
sVnpc_dota_hero_earth_spirit
p2870
g660
sVnpc_dota_neutral_ogre_magi
p2871
g943
sVnpc_dota_hero_lycan
p2872
g1084
sVspecial_bonus_unique_treant_6
p2873
V7103
p2874
sVitem_recipe_manta
p2875
V146
p2876
sVlone_druid_true_form_druid
p2877
V5416
p2878
sVitem_recipe_satanic
p2879
V155
p2880
sVspecial_bonus_unique_phoenix_4
p2881
V6852
p2882
sVspecial_bonus_unique_sven
p2883
V6045
p2884
sVspecial_bonus_unique_phoenix_2
p2885
V6085
p2886
sVspecial_bonus_unique_phoenix_3
p2887
V6401
p2888
sVspecial_bonus_unique_phoenix_1
p2889
V6227
p2890
sg791
Vnpc_dota_hero_earthshaker
p2891
sVthrow_coal
p2892
V5578
p2893
sVpugna_nether_blast
p2894
V5186
p2895
sVnpc_dota_hero_ancient_apparition
p2896
g2598
sVspecial_bonus_attack_speed_50
p2897
V6020
p2898
sVnpc_dota_hero_shadow_shaman
p2899
g1100
sVelder_titan_return_spirit
p2900
V5592
p2901
sg876
Vnpc_dota_greevil_minion_blue
p2902
sVslardar_amplify_damage
p2903
V5117
p2904
sVspecial_bonus_unique_lone_druid_9
p2905
V7036
p2906
sVspecial_bonus_unique_lone_druid_8
p2907
V6806
p2908
sVspecial_bonus_unique_lone_druid_5
p2909
V6508
p2910
sVspecial_bonus_unique_lone_druid_4
p2911
V6268
p2912
sVspecial_bonus_unique_lone_druid_7
p2913
V6680
p2914
sVspecial_bonus_unique_lone_druid_6
p2915
V6679
p2916
sVspecial_bonus_unique_lone_druid_1
p2917
V6261
p2918
sVluna_moon_glaive
p2919
V5223
p2920
sVspecial_bonus_unique_lone_druid_3
p2921
V6263
p2922
sVspecial_bonus_unique_lone_druid_2
p2923
V6262
p2924
sg438
g438
sVshadow_demon_shadow_poison_release
p2925
V5424
p2926
sg1979
Vnpc_dota_hero_keeper_of_the_light
p2927
sg1061
Vnpc_dota_invoker_forged_spirit
p2928
sVspecial_bonus_unique_legion_commander
p2929
V6218
p2930
sVspecial_bonus_unique_phantom_lancer
p2931
V6146
p2932
sg434
Vnpc_dota_neutral_fel_beast
p2933
sVgreevil_blade_fury
p2934
V5553
p2935
sVitem_silver_edge
p2936
V249
p2937
sg248
g247
sVspecial_bonus_unique_earth_spirit
p2938
V6203
p2939
sg429
Vnpc_dota_neutral_polar_furbolg_ursa_warrior
p2940
sVitem_monkey_king_bar
p2941
V135
p2942
sVspecial_bonus_unique_meepo_2
p2943
V6689
p2944
sVspecial_bonus_unique_clinkz_3
p2945
V6620
p2946
sVspecial_bonus_unique_clinkz_2
p2947
V6231
p2948
sVspecial_bonus_unique_clinkz_1
p2949
V6104
p2950
sg1267
Vnpc_dota_hero_techies
p2951
sVspecial_bonus_movement_speed_75
p2952
V6355
p2953
sg180
g179
sVabaddon_borrowed_time
p2954
V5588
p2955
sg1175
Vnpc_dota_neutral_dark_troll
p2956
sVmedusa_mana_shield
p2957
V5506
p2958
sVnpc_dota_hero_lich
p2959
g2065
sVitem_arcane_boots
p2960
V180
p2961
sVitem_recipe_sange_and_yasha
p2962
V153
p2963
sVnpc_dota_hero_invoker
p2964
g1019
sVgreevil_flesh_golem
p2965
V5562
p2966
sVwarlock_golem_flaming_fists
p2967
V5166
p2968
sVneutral_spell_immunity
p2969
V5303
p2970
sg1461
Vnpc_dota_beastmaster_greater_boar
p2971
sVitem_relic
p2972
V54
p2973
sVsniper_headshot
p2974
V5155
p2975
sg1513
Vnpc_dota_techies_remote_mine
p2976
sVnpc_dota_hero_nyx_assassin
p2977
g1354
sg2543
Vnpc_dota_hero_viper
p2978
sVnpc_dota_broodmother_spiderite
p2979
g440
sVitem_solar_crest
p2980
V229
p2981
sVspecial_bonus_lifesteal_30
p2982
V6121
p2983
sVforest_troll_high_priest_heal
p2984
V5318
p2985
sVspecial_bonus_unique_huskar_3
p2986
V6655
p2987
sg77
g76
sVitem_ghost
p2988
V37
p2989
sVpugna_life_drain
p2990
V5189
p2991
sVnpc_dota_greevil_miniboss_purple
p2992
g2649
sVnpc_dota_badguys_siege
p2993
Vsiege creep
p2994
sVspecial_bonus_respawn_reduction_40
p2995
V6066
p2996
sg2841
g1630
sVspecial_bonus_respawn_reduction_45
p2997
V6375
p2998
sVnpc_dota_neutral_mud_golem_split
p2999
g1149
sVnpc_dota_hero_juggernaut
p3000
g1045
sg1708
Vnpc_dota_hero_sand_king
p3001
sVmorphling_adaptive_strike_str
p3002
V7000
p3003
sVcentaur_double_edge
p3004
V5515
p3005
sVspecial_bonus_attack_damage_90
p3006
V5968
p3007
sVbrewmaster_primal_split
p3008
V5403
p3009
sg1800
Vnpc_dota_goodguys_melee_rax_mid
p3010
sg1837
Vnpc_dota_hero_faceless_void
p3011
sVnpc_dota_greevil_miniboss_black
p3012
g2083
sVitem_bloodthorn
p3013
V250
p3014
sVitem_power_treads
p3015
V63
p3016
sVdisruptor_glimpse
p3017
V5459
p3018
sVhuskar_life_break
p3019
V5274
p3020
sVspecial_bonus_unique_dazzle_1
p3021
V6049
p3022
sVitem_recipe_greater_crit
p3023
V140
p3024
sVpudge_flesh_heap
p3025
V5074
p3026
sg815
Vnpc_dota_greevil_minion_yellow
p3027
sg2976
g1513
sVweaver_the_swarm
p3028
V5289
p3029
sVcourier_burst
p3030
V5210
p3031
sg2033
Vnpc_dota_hero_vengefulspirit
p3032
sVcourier_go_to_sideshop2
p3033
V6334
p3034
sVspecial_bonus_unique_troll_warlord_2
p3035
V6958
p3036
sVspecial_bonus_unique_troll_warlord_3
p3037
V6959
p3038
sVspecial_bonus_hp_regen_35
p3039
V8351
p3040
sg2615
Vnpc_dota_gyrocopter_homing_missile
p3041
sVspecial_bonus_unique_troll_warlord_4
p3042
V6960
p3043
sVwarlock_golem_permanent_immolation
p3044
V5167
p3045
sVnpc_dota_hero_slardar
p3046
g2109
sVriki_tricks_of_the_trade
p3047
V5145
p3048
sVspecial_bonus_unique_ogre_magi
p3049
V6183
p3050
sVnpc_dota_hero_zuus
p3051
g1748
sg2175
Vnpc_dota_hero_wisp
p3052
sVjuggernaut_blade_fury
p3053
V5028
p3054
sVspecial_bonus_hp_100
p3055
V5900
p3056
sVleshrac_lightning_storm
p3057
V5243
p3058
sVitem_branches
p3059
V16
p3060
sVwarlock_shadow_word
p3061
V5163
p3062
sVgreevil_leech_seed
p3063
V5557
p3064
sVnpc_dota_badguys_tower1_bot
p3065
Vtower
p3066
sVnpc_dota_creep_badguys_ranged_diretide
p3067
g393
sg628
Vnpc_dota_neutral_small_thunder_lizard
p3068
sVnpc_dota_goodguys_healers
p3069
Vshrine
p3070
sg1371
Vnpc_dota_hero_queenofpain
p3071
sVspecial_bonus_unique_bounty_hunter
p3072
V6018
p3073
sVaxe_battle_hunger
p3074
V5008
p3075
sVbrewmaster_fire_permanent_immolation
p3076
V5411
p3077
sVdeath_prophet_spirit_siphon
p3078
V5685
p3079
sVearth_spirit_geomagnetic_grip
p3080
V5610
p3081
sg2559
g2714
sVnpc_dota_brewmaster_earth_2
p3082
Vearth
p3083
sg2842
Vearth
p3084
sg2595
Vnpc_dota_unit_tombstone3
p3085
sVtiny_toss_tree
p3086
V6937
p3087
sVnpc_dota_neutral_satyr_trickster
p3088
g1576
sVnpc_dota_greater_eidolon
p3089
g1599
sVhealing_campfire
p3090
V5579
p3091
sVitem_blades_of_attack
p3092
V2
sVitem_broadsword
p3093
V3
sVnpc_dota_goodguys_range_rax_mid
p3094
g571
sVgreevil_miniboss_black_nightmare
p3095
V5536
p3096
sVitem_rapier
p3097
V133
p3098
sVnpc_dota_neutral_satyr_soulstealer
p3099
g568
sVbrewmaster_drunken_haze
p3100
V5401
p3101
sVspecial_bonus_gold_income_70
p3102
V6446
p3103
sVspecial_bonus_unique_meepo_3
p3104
V7027
p3105
sVspecial_bonus_mp_500
p3106
V6185
p3107
sVspecial_bonus_unique_meepo_4
p3108
V7102
p3109
sVitem_recipe_rod_of_atos
p3110
V205
p3111
sVbeastmaster_boar_poison
p3112
V5171
p3113
sVrubick_empty1
p3114
V5453
p3115
sVrubick_empty2
p3116
V5454
p3117
sVnpc_dota_badguys_fillers
p3118
g1724
sg2345
Vnpc_dota_hero_phantom_assassin
p3119
sg568
g3099
sVpudge_rot
p3120
V5076
p3121
sVwinter_wyvern_winters_curse
p3122
V5654
p3123
sg609
Vnpc_dota_hero_windrunner
p3124
sVskywrath_mage_arcane_bolt
p3125
V5581
p3126
sVspecial_bonus_unique_elder_titan
p3127
V6171
p3128
sVspecial_bonus_cleave_30
p3129
V7122
p3130
sVitem_skadi
p3131
V160
p3132
sVgreevil_ice_wall
p3133
V5547
p3134
sVspecial_bonus_unique_death_prophet_2
p3135
V6367
p3136
sVspecial_bonus_unique_death_prophet_3
p3137
V6628
p3138
sVspecial_bonus_unique_death_prophet_4
p3139
V6805
p3140
sVgreevil_echo_slam
p3141
V5558
p3142
sg210
g209
sVspecial_bonus_cooldown_reduction_15
p3143
V5951
p3144
sVroshan_inherent_buffs
p3145
V5216
p3146
sVspecial_bonus_cooldown_reduction_10
p3147
V6021
p3148
sVspecial_bonus_cooldown_reduction_12
p3149
V6190
p3150
sVdazzle_shadow_wave
p3151
V5235
p3152
sVlegion_commander_press_the_attack
p3153
V5596
p3154
sVitem_river_painter4
p3155
V1024
p3156
sVfaceless_void_time_lock
p3157
V5184
p3158
sVvengefulspirit_magic_missile
p3159
V5122
p3160
sVlife_stealer_empty_1
p3161
V5657
p3162
sVlife_stealer_empty_2
p3163
V5658
p3164
sVlife_stealer_empty_3
p3165
V5659
p3166
sVlife_stealer_empty_4
p3167
V5660
p3168
sVnpc_dota_goodguys_tower3_bot
p3169
Vtower
p3170
sVwindrunner_focusfire
p3171
V5133
p3172
sVzuus_static_field
p3173
V5112
p3174
sVspirit_breaker_charge_of_darkness
p3175
V5353
p3176
sVspecial_bonus_unique_faceless_void
p3177
V6128
p3178
sVitem_recipe_dragon_lance
p3179
V234
p3180
sg692
Vnpc_dota_hero_kunkka
p3181
sVitem_recipe_power_treads
p3182
V62
p3183
sg125
g124
sVtechies_minefield_sign
p3184
V5644
p3185
sVspecial_bonus_strength_40
p3186
V6633
p3187
sVshadow_demon_shadow_poison
p3188
V5423
p3189
sVspecial_bonus_unique_nevermore_1
p3190
V6670
p3191
sVspecial_bonus_unique_nevermore_2
p3192
V6070
p3193
sVspecial_bonus_unique_nevermore_3
p3194
V6875
p3195
sVspecial_bonus_unique_nevermore_4
p3196
V6876
p3197
sVspecial_bonus_unique_nevermore_5
p3198
V6912
p3199
sVspecial_bonus_cast_range_350
p3200
V6930
p3201
sVphoenix_sun_ray_toggle_move
p3202
V5628
p3203
sVspecial_bonus_attack_speed_45
p3204
V6224
p3205
sVitem_river_painter6
p3206
V1026
p3207
sVspecial_bonus_attack_speed_40
p3208
V6210
p3209
sVroshan_halloween_fireball
p3210
V10002
p3211
sVjakiro_ice_path
p3212
V5298
p3213
sVnpc_dota_hero_necrolyte
p3214
g837
sVspecial_bonus_unique_bloodseeker_4
p3215
V6809
p3216
sVnpc_dota_rattletrap_cog
p3217
g1574
sg1315
Vnpc_dota_scout_hawk
p3218
sVspecial_bonus_unique_bloodseeker_2
p3219
V6356
p3220
sVitem_orchid
p3221
V98
p3222
sVspecial_bonus_unique_bloodseeker_3
p3223
V6357
p3224
sVnpc_dota_greevil_minion_red
p3225
g773
sVtemplar_assassin_trap
p3226
V5198
p3227
sVitem_pers
p3228
V69
p3229
sVlycan_summon_wolves_invisibility
p3230
V5500
p3231
sVspecial_bonus_unique_meepo
p3232
V6288
p3233
sg630
Vnpc_dota_neutral_forest_troll_berserker
p3234
sVspecial_bonus_magic_resistance_20
p3235
V6000
p3236
sVspecial_bonus_movement_speed_40
p3237
V6093
p3238
sVspecial_bonus_movement_speed_45
p3239
V6249
p3240
sg1601
Vnpc_dota_neutral_mud_golem
p3241
sVspecial_bonus_unique_templar_assassin_6
p3242
V7058
p3243
sVspecial_bonus_unique_templar_assassin_5
p3244
V6940
p3245
sVmeepo_earthbind
p3246
V5430
p3247
sVspecial_bonus_unique_templar_assassin_3
p3248
V6938
p3249
sVspecial_bonus_unique_templar_assassin_2
p3250
V6545
p3251
sVnpc_dota_techies_stasis_trap
p3252
g1803
sVbroodmother_poison_sting
p3253
V5284
p3254
sVnpc_dota_weaver_swarm
p3255
g391
sg2598
g2896
sVmeepo_divided_we_stand
p3256
V5433
p3257
sVkunkka_tidebringer
p3258
V5032
p3259
sVshredder_reactive_armor
p3260
V5526
p3261
sVitem_river_painter2
p3262
V1022
p3263
sVgranite_golem_hp_aura
p3264
V5656
p3265
sVdisruptor_kinetic_field
p3266
V5460
p3267
sVmagnataur_empower
p3268
V5519
p3269
sVvisage_grave_chill
p3270
V5480
p3271
sVchaos_knight_chaos_bolt
p3272
V5426
p3273
sVitem_medallion_of_courage
p3274
V187
p3275
sVspecial_bonus_unique_ancient_apparition_1
p3276
V6214
p3277
sVspecial_bonus_unique_ancient_apparition_2
p3278
V6291
p3279
sVspecial_bonus_unique_ancient_apparition_3
p3280
V6352
p3281
sVspecial_bonus_unique_ancient_apparition_4
p3282
V6534
p3283
sVspecial_bonus_unique_windranger
p3284
V6144
p3285
sVspecial_bonus_unique_ancient_apparition_6
p3286
V7106
p3287
sVcny2015_black_hole
p3288
V5663
p3289
sVmonkey_king_primal_spring_early
p3290
V5726
p3291
sVspecial_bonus_respawn_reduction_35
p3292
V6038
p3293
sVstorm_spirit_electric_vortex
p3294
V5099
p3295
sVspecial_bonus_respawn_reduction_30
p3296
V5964
p3297
sVinvoker_chaos_meteor
p3298
V5385
p3299
sVdeath_prophet_witchcraft
p3300
V5092
p3301
sVitem_tome_of_knowledge
p3302
V257
p3303
sVluna_lunar_blessing
p3304
V5224
p3305
sVnpc_dota_beastmaster_hawk
p3306
Vhawk
p3307
sVspecial_bonus_unique_wisp
p3308
V6265
p3309
sVnpc_dota_creep_badguys_melee_diretide
p3310
g1001
sVspecial_bonus_unique_wraith_king_8
p3311
V7108
p3312
sVspecial_bonus_unique_wraith_king_2
p3313
V6088
p3314
sVspecial_bonus_unique_wraith_king_3
p3315
V6414
p3316
sVspecial_bonus_unique_wraith_king_1
p3317
V6201
p3318
sVspecial_bonus_unique_wraith_king_6
p3319
V6822
p3320
sVspecial_bonus_unique_wraith_king_7
p3321
V7107
p3322
sVspecial_bonus_unique_wraith_king_4
p3323
V6566
p3324
sVspecial_bonus_unique_wraith_king_5
p3325
V6821
p3326
sg2013
Vnpc_dota_neutral_giant_wolf
p3327
sVskywrath_mage_mystic_flare
p3328
V5584
p3329
sVitem_buckler
p3330
V86
p3331
sVspecial_bonus_unique_arc_warden
p3332
V6287
p3333
sVabyssal_underlord_pit_of_malice
p3334
V5614
p3335
sVspecial_bonus_hp_regen_20
p3336
V6079
p3337
sg717
Vnpc_dota_hero_phoenix
p3338
sVspecial_bonus_hp_regen_25
p3339
V6308
p3340
sg2617
Vnpc_dota_hero_axe
p3341
sVitem_wind_lace
p3342
V244
p3343
sVspecial_bonus_spell_lifesteal_10
p3344
V6564
p3345
sVtemplar_assassin_refraction
p3346
V5194
p3347
sVspecial_bonus_attack_range_150
p3348
V5963
p3349
sVnpc_dota_hero_weaver
p3350
g741
sVnpc_dota_neutral_mud_golem_split_doom
p3351
g819
sVdisruptor_thunder_strike
p3352
V5458
p3353
sVtiny_craggy_exterior
p3354
V5108
p3355
sVwarlock_rain_of_chaos
p3356
V5165
p3357
sVitem_recipe_invis_sword
p3358
V183
p3359
sVcourier_return_to_base
p3360
V5205
p3361
sVtreant_living_armor
p3362
V5436
p3363
sVjuggernaut_omni_slash
p3364
V5030
p3365
sVlife_stealer_control
p3366
V5655
p3367
sVmirana_arrow
p3368
V5048
p3369
sVnight_stalker_darkness
p3370
V5278
p3371
sVspecial_bonus_attack_speed_100
p3372
V6037
p3373
sVgnoll_assassin_envenomed_weapon
p3374
V5296
p3375
sVnpc_dota_hero_winter_wyvern
p3376
g2250
sVitem_heavens_halberd
p3377
V210
p3378
sVnpc_dota_beastmaster_boar_4
p3379
Vboar
p3380
sVspecial_bonus_all_stats_5
p3381
V5921
p3382
sVkeeper_of_the_light_mana_leak
p3383
V5472
p3384
sVancient_apparition_ice_vortex
p3385
V5346
p3386
sVspectre_desolate
p3387
V5335
p3388
sVbear_empty2
p3389
V83
p3390
sVbear_empty1
p3391
V82
p3392
sVspecial_bonus_all_stats_7
p3393
V6074
p3394
sVspecial_bonus_attack_damage_100
p3395
V5979
p3396
sVgreevil_decrepify
p3397
V5531
p3398
sVspecial_bonus_unique_earthshaker
p3399
V6035
p3400
sVnpc_dota_greevil_miniboss_green
p3401
g2192
sVroshan_halloween_burn
p3402
V9999
p3403
sg482
Vnpc_dota_hero_tusk
p3404
sVgreevil_poison_nova
p3405
V5546
p3406
sg133
g132
sg550
Vnpc_dota_hero_pugna
p3407
sVspecial_bonus_armor_10
p3408
V6004
p3409
sVspecial_bonus_unique_tinker
p3410
V6152
p3411
sVspecial_bonus_armor_12
p3412
V6286
p3413
sVspecial_bonus_armor_15
p3414
V6175
p3415
sg393
g3067
sVnpc_dota_hero_mirana
p3416
g1420
sVdoom_bringer_scorched_earth
p3417
V5340
p3418
sVspecial_bonus_mp_400
p3419
V6321
p3420
sg1209
Vnpc_dota_elder_titan_ancestral_spirit
p3421
sVearth_spirit_magnetize
p3422
V5612
p3423
sg660
g2870
sVbane_brain_sap
p3424
V5011
p3425
sVitem_phase_boots
p3426
V50
p3427
sg709
Vnpc_dota_badguys_siege_diretide
p3428
sVgreevil_miniboss_green_living_armor
p3429
V5570
p3430
sVbroodmother_spin_web
p3431
V5280
p3432
sg811
Vnpc_dota_warlock_golem_scepter_2
p3433
sVmud_golem_rock_destroy
p3434
V5667
p3435
sg817
Vnpc_dota_greevil_minion_black
p3436
sVogre_magi_multicast
p3437
V5441
p3438
sg1142
Vnpc_dota_eidolon
p3439
sVspecial_bonus_cleave_20
p3440
V6603
p3441
sVdrow_ranger_marksmanship
p3442
V5022
p3443
sVdoom_bringer_doom
p3444
V5342
p3445
sVspecial_bonus_cleave_25
p3446
V6801
p3447
sVpuck_phase_shift
p3448
V5072
p3449
sVitem_guardian_greaves
p3450
V231
p3451
sVitem_mask_of_madness
p3452
V172
p3453
sVitem_faerie_fire
p3454
V237
p3455
sVcentaur_khan_endurance_aura
p3456
V5294
p3457
sVtemplar_assassin_self_trap
p3458
V5199
p3459
sVnpc_dota_badguys_tower3_mid
p3460
Vtower
p3461
sVancient_apparition_ice_blast_release
p3462
V5349
p3463
sVnyx_assassin_burrow
p3464
V5666
p3465
sVspecial_bonus_cooldown_reduction_20
p3466
V5952
p3467
sVlich_frost_armor
p3468
V5135
p3469
sVearth_spirit_rolling_boulder
p3470
V5609
p3471
sVnecronomicon_archer_aoe
p3472
V5204
p3473
sVlegion_commander_duel
p3474
V5598
p3475
sVspecial_bonus_all_stats_20
p3476
V6309
p3477
sVnpc_dota_unit_undying_zombie
p3478
g2366
sVpugna_decrepify
p3479
V5187
p3480
sVspecial_bonus_unique_disruptor
p3481
V6215
p3482
sVitem_sphere
p3483
V123
p3484
sg1628
Vnpc_dota_observer_wards
p3485
sVgyrocopter_flak_cannon
p3486
V5363
p3487
sVcny_beast_teleport
p3488
V5665
p3489
sg2834
g949
sVnpc_dota_hero_tinker
p3490
g1177
sVitem_yasha
p3491
V170
p3492
sVsniper_take_aim
p3493
V5156
p3494
sVspecial_bonus_unique_wisp_5
p3495
V6924
p3496
sVspecial_bonus_unique_wisp_4
p3497
V6808
p3498
sVspecial_bonus_unique_wisp_3
p3499
V6659
p3500
sVspecial_bonus_unique_wisp_2
p3501
V6537
p3502
sVdark_willow_bedlam
p3503
V6340
p3504
sVitem_recipe_bloodstone
p3505
V120
p3506
sVnpc_dota_creep_goodguys_melee
p3507
g417
sVspecial_bonus_attack_speed_70
p3508
V6444
p3509
sVspecial_bonus_magic_resistance_80
p3510
V6965
p3511
sVlone_druid_savage_roar_bear
p3512
V5687
p3513
sVgreevil_miniboss_yellow_ion_shell
p3514
V5542
p3515
sVspecial_bonus_unique_shadow_demon_6
p3516
V7061
p3517
sVspecial_bonus_unique_shadow_demon_7
p3518
V7118
p3519
sVspecial_bonus_unique_shadow_demon_4
p3520
V6873
p3521
sVspecial_bonus_unique_shadow_demon_5
p3522
V7002
p3523
sVspecial_bonus_unique_shadow_demon_2
p3524
V6293
p3525
sVspecial_bonus_unique_shadow_demon_3
p3526
V6542
p3527
sVspecial_bonus_unique_shadow_demon_1
p3528
V6208
p3529
sVnpc_dota_neutral_prowler_acolyte
p3530
g1654
sVsilencer_global_silence
p3531
V5380
p3532
sg1599
g3089
sVbroodmother_spawn_spiderlings
p3533
V5279
p3534
sVitem_clarity
p3535
V38
p3536
sVspecial_bonus_unique_luna_1
p3537
V6180
p3538
sVspecial_bonus_unique_puck
p3539
V6219
p3540
sVspecial_bonus_unique_luna_3
p3541
V6682
p3542
sVspecial_bonus_unique_luna_4
p3543
V7047
p3544
sVspecial_bonus_unique_luna_5
p3545
V7055
p3546
sVenchantress_natures_attendants
p3547
V5269
p3548
sVmonkey_king_primal_spring
p3549
V5724
p3550
sVitem_recipe_magic_wand
p3551
V35
p3552
sVitem_recipe_shivas_guard
p3553
V118
p3554
sVitem_force_staff
p3555
V102
p3556
sVtechies_suicide
p3557
V5601
p3558
sVspecial_bonus_unique_oracle_4
p3559
V6970
p3560
sVspecial_bonus_unique_oracle_2
p3561
V6540
p3562
sVspecial_bonus_unique_oracle_3
p3563
V6710
p3564
sVspecial_bonus_movement_speed_50
p3565
V6306
p3566
sVcny2015_sonic_wave
p3567
V5662
p3568
sVspecial_bonus_unique_treant
p3569
V6024
p3570
sg2104
Vnpc_dota_necronomicon_archer_1
p3571
sVclinkz_death_pact
p3572
V5262
p3573
sg2155
Vnpc_dota_pugna_nether_ward_2
p3574
sVitem_travel_boots_2
p3575
V220
p3576
sVspecial_bonus_lifesteal_10
p3577
V6158
p3578
sVundying_decay
p3579
V5442
p3580
sVnpc_dota_hero_target_dummy
p3581
g2541
sVnpc_dota_hero_dragon_knight
p3582
g1479
sg2334
Vnpc_dota_neutral_black_dragon
p3583
sVnpc_dota_tusk_frozen_sigil4
p3584
g1147
sVearth_spirit_petrify
p3585
V5648
p3586
sVnpc_dota_tusk_frozen_sigil1
p3587
Vfrozen sigil
p3588
sVspecial_bonus_unique_timbersaw
p3589
V6223
p3590
sVnpc_dota_tusk_frozen_sigil2
p3591
Vfrozen sigil
p3592
sVspecial_bonus_respawn_reduction_25
p3593
V5954
p3594
sVwarlock_upheaval
p3595
V5164
p3596
sVspecial_bonus_respawn_reduction_20
p3597
V5953
p3598
sVlone_druid_spirit_bear_entangle
p3599
V5419
p3600
sVbounty_hunter_jinada
p3601
V5286
p3602
sVspecial_bonus_agility_8
p3603
V6014
p3604
sg2479
g2479
sVtusk_frozen_sigil
p3605
V5567
p3606
sg2501
Vnpc_dota_neutral_elder_jungle_stalker
p3607
sg2503
Vnpc_dota_furion_treant_large
p3608
sg2686
g1193
sVspecial_bonus_spell_lifesteal_6
p3609
V6817
p3610
sVitem_flask
p3611
V39
p3612
sVspecial_bonus_unique_arc_warden_4
p3613
V7105
p3614
sg2083
g3012
sVspecial_bonus_spell_lifesteal_8
p3615
V6565
p3616
sVspecial_bonus_unique_arc_warden_3
p3617
V7104
p3618
sVnyx_assassin_unburrow
p3619
V5673
p3620
sVgeneric_hidden
p3621
V6251
p3622
sVslark_essence_shift
p3623
V5496
p3624
sVnpc_dota_creep_goodguys_melee_upgraded_mega
p3625
Vmega melee creep
p3626
sVitem_recipe_ring_of_aquila
p3627
V211
p3628
sVspecial_bonus_hp_regen_15
p3629
V5914
p3630
sVjuggernaut_healing_ward
p3631
V5029
p3632
sVspecial_bonus_hp_regen_12
p3633
V6730
p3634
sVleshrac_diabolic_edict
p3635
V5242
p3636
sVspecial_bonus_hp_regen_10
p3637
V5912
p3638
sVnecrolyte_sadist_stop
p3639
V6316
p3640
sVspecial_bonus_unique_undying_3
p3641
V6546
p3642
sVspecial_bonus_unique_undying_2
p3643
V6420
p3644
sVbrewmaster_thunder_clap
p3645
V5400
p3646
sVspecial_bonus_unique_undying_5
p3647
V6972
p3648
sVspecial_bonus_unique_undying_4
p3649
V6971
p3650
sVspecial_bonus_unique_doom_1
p3651
V6073
p3652
sVspecial_bonus_unique_doom_3
p3653
V6369
p3654
sVspecial_bonus_unique_doom_2
p3655
V6314
p3656
sVspecial_bonus_mp_1000
p3657
V6686
p3658
sVspecial_bonus_unique_doom_4
p3659
V6370
p3660
sVspecial_bonus_unique_doom_6
p3661
V7123
p3662
sg440
g2979
sg85
g84
sVstorm_spirit_ball_lightning
p3663
V5101
p3664
sVitem_recipe_crimson_guard
p3665
V243
p3666
sVitem_ward_sentry
p3667
V43
p3668
sVgreevil_maledict
p3669
V5533
p3670
sVlion_voodoo
p3671
V5045
p3672
sVhuskar_inner_vitality
p3673
V5271
p3674
sg571
Vnpc_dota_badguys_range_rax_mid
p3675
sVspecial_bonus_unique_puck_3
p3676
V6855
p3677
sVspecial_bonus_unique_puck_2
p3678
V6402
p3679
sVspecial_bonus_unique_puck_4
p3680
V7057
p3681
sVchaos_knight_phantasm
p3682
V5429
p3683
sVghost_frost_attack
p3684
V5301
p3685
sVitem_bottle
p3686
V41
p3687
sVspecial_bonus_unique_riki_5
p3688
V6867
p3689
sVspecial_bonus_unique_riki_4
p3690
V6866
p3691
sVspecial_bonus_attack_damage_55
p3692
V6396
p3693
sVspecial_bonus_unique_riki_1
p3694
V6330
p3695
sVspecial_bonus_attack_damage_50
p3696
V5941
p3697
sVspecial_bonus_unique_riki_2
p3698
V6193
p3699
sg2445
Vnpc_dota_hero_beastmaster
p3700
sVspecial_bonus_unique_tiny_4
p3701
V6934
p3702
sVspecial_bonus_unique_tiny_5
p3703
V7005
p3704
sVspecial_bonus_attack_damage_150
p3705
V6247
p3706
sVspecial_bonus_unique_tiny_2
p3707
V6932
p3708
sVspecial_bonus_unique_tiny_3
p3709
V6933
p3710
sg2940
g429
sVkeeper_of_the_light_illuminate_end
p3711
V5477
p3712
sg946
Vnpc_dota_neutral_gnoll_assassin
p3713
sVspecial_bonus_night_vision_1000
p3714
V6888
p3715
sVspecial_bonus_armor_20
p3716
V6503
p3717
sg391
g3255
sVnpc_dota_beastmaster_hawk_2
p3718
g2505
sVnpc_dota_beastmaster_hawk_3
p3719
Vhawk
p3720
sg878
Vnpc_dota_hero_troll_warlord
p3721
sVspecial_bonus_unique_doom_5
p3722
V6371
p3723
sVlegion_commander_overwhelming_odds
p3724
V5595
p3725
sVspecial_bonus_mana_break_40
p3726
V6695
p3727
sVspecial_bonus_attack_speed_120
p3728
V6650
p3729
sVtiny_grow
p3730
V5109
p3731
sVitem_ward_dispenser
p3732
V218
p3733
sVbrewmaster_earth_pulverize
p3734
V5406
p3735
sVnpc_dota_badguys_tower2_mid
p3736
Vtower
p3737
sg3421
g1209
sVspecial_bonus_mp_700
p3738
V7059
p3739
sVnpc_dota_creep_goodguys_melee_upgraded
p3740
g1436
sVspecial_bonus_mp_250
p3741
V6006
p3742
sVtreant_eyes_in_the_forest
p3743
V5649
p3744
sVphoenix_sun_ray_stop
p3745
V5627
p3746
sVlife_stealer_feast
p3747
V5250
p3748
sVspecial_bonus_unique_slardar_2
p3749
V6889
p3750
sVspecial_bonus_unique_slardar_3
p3751
V6890
p3752
sVspecial_bonus_unique_kunkka_3
p3753
V6666
p3754
sVspecial_bonus_unique_kunkka_2
p3755
V6385
p3756
sVspecial_bonus_unique_kunkka_4
p3757
V6667
p3758
sVpangolier_shield_crash
p3759
V6461
p3760
sg1438
g1438
sVspecial_bonus_gold_income_5
p3761
V5955
p3762
sg1440
Vnpc_dota_hero_life_stealer
p3763
sVspecial_bonus_unique_templar_assassin_4
p3764
V6939
p3765
sVroshan_halloween_spell_block
p3766
V5618
p3767
sVspecial_bonus_cleave_15
p3768
V6845
p3769
sVnpc_dota_courier
p3770
g1727
sg45
g44
sVtusk_ice_shards
p3771
V5565
p3772
sVnpc_dota_neutral_rock_golem
p3773
g626
sg3181
g692
sVspecial_bonus_cooldown_reduction_30
p3774
V6561
p3775
sVspecial_bonus_unique_dark_seer_3
p3776
V6624
p3777
sVspecial_bonus_unique_dark_seer_2
p3778
V6365
p3779
sVspecial_bonus_unique_dark_seer_4
p3780
V7046
p3781
sVgreevil_miniboss_blue_cold_feet
p3782
V5538
p3783
sVspecial_bonus_strength_25
p3784
V5984
p3785
sVnaga_siren_mirror_image
p3786
V5467
p3787
sVspecial_bonus_strength_20
p3788
V6080
p3789
sVnpc_dota_goodguys_range_rax_top
p3790
Vranged barracks
p3791
sVarc_warden_tempest_double
p3792
V5683
p3793
sVdazzle_shallow_grave
p3794
V5234
p3795
sVspecial_bonus_attack_speed_60
p3796
V5908
p3797
sVspecial_bonus_night_vision_400
p3798
V6920
p3799
sg1727
g3770
sVspecial_bonus_unique_pangolier_4
p3800
V9061
p3801
sVspecial_bonus_unique_pangolier_5
p3802
V9062
p3803
sVspecial_bonus_unique_pangolier_2
p3804
V6463
p3805
sVspecial_bonus_unique_pangolier_3
p3806
V9060
p3807
sVspecial_bonus_unique_enigma_3
p3808
V6649
p3809
sVspecial_bonus_unique_enigma_2
p3810
V6510
p3811
sVbatrider_flaming_lasso
p3812
V5323
p3813
sVnpc_dota_necronomicon_archer_2
p3814
g2104
sVearthshaker_echo_slam
p3815
V5026
p3816
sg3571
Vnecronomicon archer
p3817
sVspecial_bonus_unique_treant_2
p3818
V6531
p3819
sVspecial_bonus_unique_treant_3
p3820
V6955
p3821
sg1665
Vnpc_dota_neutral_centaur_khan
p3822
sVphoenix_sun_ray
p3823
V5626
p3824
sVspecial_bonus_unique_treant_7
p3825
V7115
p3826
sVspecial_bonus_unique_treant_4
p3827
V6956
p3828
sVspecial_bonus_unique_treant_5
p3829
V6957
p3830
sg178
g177
sVtidehunter_kraken_shell
p3831
V5119
p3832
sVkunkka_ghostship
p3833
V5035
p3834
sVitem_mystic_staff
p3835
V58
p3836
sg2065
g2959
sVmonkey_king_jingu_mastery
p3837
V5723
p3838
sg2107
g2107
sVspecial_bonus_unique_batrider_1
p3839
V6087
p3840
sVspecial_bonus_unique_batrider_3
p3841
V6610
p3842
sVspecial_bonus_unique_batrider_2
p3843
V6229
p3844
sg3071
g1371
sVabyssal_underlord_dark_rift
p3845
V5616
p3846
sVspecial_bonus_unique_dazzle_2
p3847
V6232
p3848
sVspecial_bonus_unique_dazzle_3
p3849
V6528
p3850
sVspecial_bonus_unique_dazzle_4
p3851
V6626
p3852
sVqueenofpain_sonic_wave
p3853
V5176
p3854
sVitem_tango_single
p3855
V241
p3856
sVitem_maelstrom
p3857
V166
p3858
sg2231
Vnpc_dota_neutral_wildkin
p3859
sg319
g318
sVbig_thunder_lizard_wardrums_aura
p3860
V5682
p3861
sVwarlock_fatal_bonds
p3862
V5162
p3863
sVnpc_dota_roshan
p3864
g1534
sVkeeper_of_the_light_blinding_light
p3865
V5476
p3866
sVspecial_bonus_30_crit_2
p3867
V6851
p3868
sVitem_recipe_dagon_3
p3869
V198
p3870
sVdragon_knight_breathe_fire
p3871
V5226
p3872
sVspecial_bonus_movement_speed_20
p3873
V5918
p3874
sVspecial_bonus_movement_speed_25
p3875
V5919
p3876
sVarc_warden_spark_wraith
p3877
V5679
p3878
sg2410
Vnpc_dota_enraged_wildkin_tornado
p3879
sg2413
Vnpc_dota_hero_leshrac
p3880
sVskywrath_mage_concussive_shot
p3881
V5582
p3882
sVitem_headdress
p3883
V94
p3884
sVsven_gods_strength
p3885
V5097
p3886
sVspecial_bonus_respawn_reduction_15
p3887
V5975
p3888
sVnecrolyte_death_pulse
p3889
V5158
p3890
sVspecial_bonus_unique_furion
p3891
V6084
p3892
sVsven_great_cleave
p3893
V5095
p3894
sVtreant_overgrowth
p3895
V5437
p3896
sVundying_tombstone_zombie_aura
p3897
V5445
p3898
sVitem_aether_lens
p3899
V232
p3900
sVspecial_bonus_spell_lifesteal_13
p3901
V6560
p3902
sVspecial_bonus_spell_lifesteal_15
p3903
V6550
p3904
sVnpc_dota_badguys_tower3_bot
p3905
Vtower
p3906
sVnight_stalker_hunter_in_the_night
p3907
V5277
p3908
sVshadow_shaman_ether_shock
p3909
V5078
p3910
sVphoenix_icarus_dive_stop
p3911
V5624
p3912
sVnpc_dota_wraith_king_skeleton_warrior
p3913
g634
sVnpc_dota_badguys_tower2_top
p3914
g2391
sVfurion_wrath_of_nature
p3915
V5248
p3916
sVnpc_dota_hero_naga_siren
p3917
g366
sVnpc_dota_hero_doom_bringer
p3918
g1853
sg1459
g1459
sVitem_recipe_silver_edge
p3919
V248
p3920
sVfurion_force_of_nature
p3921
V5247
p3922
sVitem_recipe_headdress
p3923
V93
p3924
sVmirana_invis
p3925
V5049
p3926
sVspecial_bonus_hp_600
p3927
V6377
p3928
sVitem_recipe_sphere
p3929
V122
p3930
sVrubick_hidden1
p3931
V5455
p3932
sVspecial_bonus_unique_rubick
p3933
V6041
p3934
sVrubick_hidden3
p3935
V5457
p3936
sVrubick_hidden2
p3937
V5456
p3938
sVlina_laguna_blade
p3939
V5043
p3940
sVinvoker_tornado
p3941
V5382
p3942
sVsilencer_last_word
p3943
V5379
p3944
sVnpc_dota_goodguys_siege_diretide
p3945
g709
sVitem_recipe_pipe
p3946
V89
p3947
sg3763
g1440
sVspecial_bonus_unique_monkey_king_2
p3948
V6421
p3949
sVspecial_bonus_unique_monkey_king_3
p3950
V6696
p3951
sVspecial_bonus_unique_monkey_king_4
p3952
V6697
p3953
sVspecial_bonus_unique_monkey_king_5
p3954
V7024
p3955
sVspecial_bonus_unique_monkey_king_6
p3956
V7025
p3957
sVspecial_bonus_unique_monkey_king_7
p3958
V7038
p3959
sg1084
g2872
sVspecial_bonus_armor_3
p3960
V5930
p3961
sVspecial_bonus_armor_2
p3962
V6110
p3963
sVspecial_bonus_armor_5
p3964
V5932
p3965
sVspecial_bonus_armor_4
p3966
V5931
p3967
sVspecial_bonus_armor_7
p3968
V5970
p3969
sVspecial_bonus_armor_6
p3970
V5933
p3971
sVspecial_bonus_armor_9
p3972
V6136
p3973
sVspecial_bonus_armor_8
p3974
V5934
p3975
sVnpc_dota_creep_goodguys_ranged_upgraded_mega
p3976
g397
sg1436
g2783
sVitem_recipe_dagon
p3977
V103
p3978
sVnpc_dota_roshan_halloween
p3979
Vroshan
p3980
sg2717
g1566
sVnecronomicon_archer_mana_burn
p3981
V5203
p3982
sVspecial_bonus_unique_ancient_apparition_5
p3983
V6810
p3984
sVroshan_halloween_toss
p3985
V9995
p3986
sg2956
g1175
sVspecial_bonus_unique_sand_king
p3987
V6207
p3988
sVabaddon_aphotic_shield
p3989
V5586
p3990
sVspecial_bonus_movement_speed_100
p3991
V6422
p3992
sVspecial_bonus_unique_spectre_5
p3993
V6903
p3994
sVspecial_bonus_unique_spectre_4
p3995
V6902
p3996
sVspecial_bonus_unique_spectre_3
p3997
V6901
p3998
sVspecial_bonus_unique_spectre_2
p3999
V6900
p4000
sVspecial_bonus_unique_jakiro_3
p4001
V6538
p4002
sVogre_magi_frost_armor
p4003
V5304
p4004
sVitem_recipe_lotus_orb
p4005
V221
p4006
sVspecial_bonus_attack_damage_45
p4007
V6253
p4008
sVitem_recipe_meteor_hammer
p4009
V222
p4010
sVspecial_bonus_attack_damage_40
p4011
V5940
p4012
sVnevermore_dark_lord
p4013
V5063
p4014
sVenraged_wildkin_tornado
p4015
V5312
p4016
sVmagnataur_skewer
p4017
V5520
p4018
sVnpc_dota_zeus_cloud
p4019
g2339
sg1019
g2964
sVtusk_walrus_kick
p4020
V5672
p4021
sVmedusa_stone_gaze
p4022
V5507
p4023
sVspecial_bonus_attack_speed_30
p4024
V5907
p4025
sVpugna_nether_ward
p4026
V5188
p4027
sVnpc_dota_creep_badguys_melee
p4028
Vmelee creep
p4029
sVspecial_bonus_cast_range_400
p4030
V6384
p4031
sVspecial_bonus_unique_jakiro_2
p4032
V6381
p4033
sVjakiro_macropyre
p4034
V5300
p4035
sVspecial_bonus_unique_beastmaster_4
p4036
V6612
p4037
sVspecial_bonus_unique_beastmaster_2
p4038
V6517
p4039
sVspecial_bonus_unique_beastmaster_3
p4040
V6611
p4041
sVdark_willow_shadow_realm
p4042
V6341
p4043
sVspecial_bonus_armor_30
p4044
V6645
p4045
sVmorphling_replicate
p4046
V5057
p4047
sVbrewmaster_storm_wind_walk
p4048
V5410
p4049
sVenigma_malefice
p4050
V5146
p4051
sVnpc_dota_venomancer_plague_ward_3
p4052
g638
sVnpc_dota_venomancer_plague_ward_2
p4053
Vplague ward
p4054
sVnpc_dota_venomancer_plague_ward_1
p4055
Vplague ward
p4056
sVblue_dragonspawn_overseer_evasion
p4057
V5326
p4058
sVnpc_dota_venomancer_plague_ward_4
p4059
Vplague ward
p4060
sVlina_fiery_soul
p4061
V5042
p4062
sVshadow_demon_soul_catcher
p4063
V5422
p4064
sVrazor_eye_of_the_storm
p4065
V5085
p4066
sVterrorblade_reflection
p4067
V5619
p4068
sVitem_desolator
p4069
V168
p4070
sVitem_manta
p4071
V147
p4072
sVkeeper_of_the_light_chakra_magic
p4073
V5473
p4074
sVnpc_dota_neutral_ogre_mauler
p4075
g1764
sVkunkka_return
p4076
V5034
p4077
sg1532
g1532
sg1569
Vnpc_dota_beastmaster_boar_3
p4078
sVspecial_bonus_unique_tusk
p4079
V6194
p4080
sVspecial_bonus_hp_regen_7
p4081
V5966
p4082
sVspecial_bonus_hp_regen_6
p4083
V5969
p4084
sVspecial_bonus_hp_regen_5
p4085
V5910
p4086
sVspecial_bonus_hp_regen_4
p4087
V5909
p4088
sVspecial_bonus_unique_jakiro_4
p4089
V6661
p4090
sVspecial_bonus_hp_regen_8
p4091
V5911
p4092
sVinvoker_ice_wall
p4093
V5389
p4094
sVspecial_bonus_unique_alchemist
p4095
V6101
p4096
sVaxe_berserkers_call
p4097
V5007
p4098
sVspecial_bonus_unique_omniknight_4
p4099
V7010
p4100
sVspecial_bonus_evasion_10
p4101
V5971
p4102
sVshredder_whirling_death
p4103
V5524
p4104
sVspecial_bonus_unique_clockwerk_2
p4105
V6364
p4106
sVspecial_bonus_unique_alchemist_3
p4107
V6604
p4108
sVspecial_bonus_unique_alchemist_2
p4109
V6350
p4110
sVspecial_bonus_unique_silencer_3
p4111
V6879
p4112
sVspecial_bonus_unique_silencer_2
p4113
V6878
p4114
sg4078
Vboar
p4115
sVnpc_dota_beastmaster_boar_2
p4116
Vboar
p4117
sVdrow_ranger_frost_arrows
p4118
V5019
p4119
sVwisp_tether
p4120
V5485
p4121
sVnpc_dota_hero_skywrath_mage
p4122
g2509
sVnevermore_shadowraze1
p4123
V5059
p4124
sVnevermore_shadowraze3
p4125
V5061
p4126
sVnevermore_shadowraze2
p4127
V5060
p4128
sVspecial_bonus_unique_queen_of_pain
p4129
V6407
p4130
sVkunkka_x_marks_the_spot
p4131
V5033
p4132
sVspecial_bonus_unique_lion
p4133
V6174
p4134
sVgreevil_shadow_wave
p4135
V5556
p4136
sVspecial_bonus_strength_30
p4137
V6708
p4138
sVdark_willow_bramble_maze
p4139
V6339
p4140
sVspecial_bonus_attack_speed_10
p4141
V6118
p4142
sVspecial_bonus_attack_speed_15
p4143
V6119
p4144
sVdeath_prophet_silence
p4145
V5091
p4146
sVspecial_bonus_magic_resistance_100
p4147
V6874
p4148
sVpangolier_gyroshell_stop
p4149
V6459
p4150
sg2366
Vnpc_dota_unit_undying_zombie_torso
p4151
sVitem_hurricane_pike
p4152
V263
p4153
sVnpc_dota_earth_spirit_stone
p4154
g566
sVskeleton_king_hellfire_blast
p4155
V5086
p4156
sVember_spirit_fire_remnant
p4157
V5606
p4158
sVnpc_dota_hero_bristleback
p4159
g2049
sVspirit_breaker_nether_strike
p4160
V5356
p4161
sVancient_apparition_ice_blast
p4162
V5348
p4163
sVsilencer_curse_of_the_silent
p4164
V5377
p4165
sVspecial_bonus_cast_range_250
p4166
V6161
p4167
sVnpc_dota_hero_drow_ranger
p4168
g1003
sg3338
g717
sVchaos_knight_chaos_strike
p4169
V5428
p4170
sVmorphling_morph_replicate
p4171
V5058
p4172
sVgreevil_magic_missile
p4173
V5529
p4174
sg3439
g1142
sg592
Vnpc_dota_hero_bane
p4175
sVantimage_mana_void
p4176
V5006
p4177
sg2579
Vnpc_dota_hero_bounty_hunter
p4178
sVspecial_bonus_unique_lion_2
p4179
V6389
p4180
sVspecial_bonus_unique_lion_3
p4181
V6600
p4182
sVspecial_bonus_unique_lion_4
p4183
V6678
p4184
sVspirit_breaker_empowering_haste
p4185
V5354
p4186
sg2316
Vnpc_dota_hero_arc_warden
p4187
sVspecial_bonus_movement_speed_30
p4188
V6141
p4189
sVspecial_bonus_movement_speed_35
p4190
V6077
p4191
sVspecial_bonus_unique_sven_2
p4192
V6910
p4193
sVspecial_bonus_unique_sven_3
p4194
V6911
p4195
sVspecial_bonus_unique_sven_4
p4196
V7112
p4197
sVclinkz_searing_arrows
p4198
V5260
p4199
sVitem_river_painter3
p4200
V1023
p4201
sVgreevil_miniboss_yellow_surge
p4202
V5543
p4203
sVnpc_dota_badguys_range_rax_top
p4204
Vranged barracks
p4205
sVtornado_tempest
p4206
V5310
p4207
sVnecronomicon_warrior_sight
p4208
V5201
p4209
sVspecial_bonus_20_bash_2
p4210
V6025
p4211
sVitem_recipe_monkey_king_bar
p4212
V134
p4213
sVspecial_bonus_spell_amplify_20
p4214
V6236
p4215
sVpangolier_heartpiercer
p4216
V6346
p4217
sVspecial_bonus_spell_amplify_25
p4218
V6327
p4219
sg2341
g3069
sg2768
g383
sVspecial_bonus_unique_juggernaut_2
p4220
V6662
p4221
sVspecial_bonus_unique_juggernaut_3
p4222
V7021
p4223
sVspecial_bonus_unique_bloodseeker
p4224
V6230
p4225
sVlone_druid_savage_roar
p4226
V5414
p4227
sVitem_bloodstone
p4228
V121
p4229
sVtroll_warlord_berserkers_rage
p4230
V5508
p4231
sVspecial_bonus_exp_boost_10
p4232
V5985
p4233
sVsandking_epicenter
p4234
V5105
p4235
sVspecial_bonus_exp_boost_15
p4236
V5986
p4237
sVember_spirit_searing_chains
p4238
V5603
p4239
sVspectre_reality
p4240
V5338
p4241
sVfurion_sprout
p4242
V5245
p4243
sg63
g62
sVobsidian_destroyer_essence_aura
p4244
V5393
p4245
sVgreevil_miniboss_sight
p4246
V5576
p4247
sg736
Vnpc_dota_greevil_miniboss_orange
p4248
sg2391
g3905
sVnpc_dota_loot_greevil
p4249
g2332
sVbeastmaster_primal_roar
p4250
V5177
p4251
sVtusk_ice_shards_stop
p4252
V5668
p4253
sVspecial_bonus_unique_winter_wyvern_2
p4254
V6297
p4255
sVspecial_bonus_unique_winter_wyvern_3
p4256
V6523
p4257
sVnecrolyte_heartstopper_aura
p4258
V5159
p4259
sg501
g501
sVgreevil_bloodlust
p4260
V5560
p4261
sVitem_ring_of_health
p4262
V56
p4263
sg4175
g592
sVitem_recipe_hand_of_midas
p4264
V64
p4265
sg105
g104
sg925
g2735
sVskeleton_king_vampiric_aura
p4266
V5087
p4267
sVspecial_bonus_hp_700
p4268
V6415
p4269
sVitem_recipe_cyclone
p4270
V99
p4271
sg1045
g3000
sVomniknight_degen_aura
p4272
V5265
p4273
sVtechies_remote_mines_self_detonate
p4274
V5636
p4275
sVnecronomicon_warrior_mana_burn
p4276
V5202
p4277
sg713
g2697
sVbane_nightmare_end
p4278
V5523
p4279
sVspecial_bonus_unique_skywrath
p4280
V6181
p4281
sg1214
Vnpc_dota_greevil_minion_orange
p4282
sg1234
Vnpc_dota_hero_pangolier
p4283
sg1283
Vnpc_dota_hero_elder_titan
p4284
sg3607
g2501
sVroshan_halloween_levels
p4285
V10000
p4286
sVspecial_bonus_attack_damage_75
p4287
V5942
p4288
sVnpc_dota_templar_assassin_psionic_trap
p4289
g1605
sVlycan_summon_wolves
p4290
V5395
p4291
sVlife_stealer_assimilate_eject
p4292
V5675
p4293
sVwitch_doctor_maledict
p4294
V5140
p4295
sVitem_recipe_abyssal_blade
p4296
V207
p4297
sg1479
g3582
sVspawnlord_master_bash
p4298
V6126
p4299
sVbristleback_viscous_nasal_goo
p4300
V5548
p4301
sVmorphling_morph_str
p4302
V5056
p4303
sVitem_aeon_disk
p4304
V256
p4305
sVancient_apparition_cold_feet
p4306
V5345
p4307
sVitem_reaver
p4308
V53
p4309
sg1574
g3217
sVspecial_bonus_evasion_12
p4310
V6239
p4311
sg2928
g1061
sVspecial_bonus_all_stats_15
p4312
V6135
p4313
sVspecial_bonus_all_stats_14
p4314
V6252
p4315
sVspecial_bonus_all_stats_10
p4316
V6168
p4317
sVspecial_bonus_all_stats_12
p4318
V6139
p4319
sVitem_echo_sabre
p4320
V252
p4321
sg1608
Vnpc_dota_goodguys_cny_beast
p4322
sVinvoker_alacrity
p4323
V5384
p4324
sVitem_helm_of_the_dominator
p4325
V164
p4326
sVhuskar_burning_spear
p4327
V5272
p4328
sg25
g24
sg2891
g791
sVspecial_bonus_unique_lina_4
p4329
V6509
p4330
sVitem_recipe_basher
p4331
V142
p4332
sVspecial_bonus_unique_lina_1
p4333
V6212
p4334
sVspecial_bonus_unique_lina_2
p4335
V6313
p4336
sVspecial_bonus_unique_lina_3
p4337
V6388
p4338
sVundying_tombstone_zombie_deathstrike
p4339
V5446
p4340
sVnpc_dota_hero_abaddon
p4341
g676
sVtreant_leech_seed
p4342
V5435
p4343
sVnpc_dota_hero_ember_spirit
p4344
g640
sVabyssal_underlord_cancel_dark_rift
p4345
V5617
p4346
sVnpc_dota_neutral_kobold
p4347
g632
sVitem_refresher
p4348
V110
p4349
sg2933
g434
sVphoenix_launch_fire_spirit
p4350
V5631
p4351
sg3721
g878
sVspecial_bonus_evasion_15
p4352
V5972
p4353
sVcourier_shield
p4354
V5209
p4355
sg2031
Vnpc_dota_sentry_wards
p4356
sVspecial_bonus_evasion_25
p4357
V5974
p4358
sVitem_blight_stone
p4359
V240
p4360
sVspecial_bonus_evasion_20
p4361
V5973
p4362
sg295
g294
sVitem_crimson_guard
p4363
V242
p4364
sg2109
g3046
sVspecial_bonus_unique_silencer_5
p4365
V7048
p4366
sg2139
Vnpc_dota_hero_nevermore
p4367
sVspecial_bonus_unique_silencer_4
p4368
V6880
p4369
sVnpc_dota_goodguys_tower4
p4370
Vtower
p4371
sVnpc_dota_beastmaster_boar_1
p4372
g1569
sVspecial_bonus_unique_alchemist_4
p4373
V7054
p4374
sVomniknight_purification
p4375
V5263
p4376
sg2266
Vnpc_dota_hero_shredder
p4377
sg3218
g1315
sVcny2015_chronosphere
p4378
V5664
p4379
sVspecial_bonus_mp_600
p4380
V6382
p4381
sVitem_recipe_heavens_halberd
p4382
V209
p4383
sVjakiro_liquid_fire
p4384
V5299
p4385
sg1634
Vnpc_dota_neutral_big_thunder_lizard
p4386
sVqueenofpain_blink
p4387
V5174
p4388
sVterrorblade_metamorphosis
p4389
V5621
p4390
sVelder_titan_ancestral_spirit
p4391
V5591
p4392
sg2370
Vnpc_dota_hero_ogre_magi
p4393
sVgreevil_black_hole
p4394
V5569
p4395
sVspecial_bonus_mp_100
p4396
V6096
p4397
sg3675
Vranged barracks
p4398
sVspecial_bonus_unique_legion_commander_4
p4399
V6671
p4400
sVspecial_bonus_unique_legion_commander_3
p4401
V6526
p4402
sVspecial_bonus_unique_legion_commander_2
p4403
V6449
p4404
sVspecial_bonus_unique_phantom_lancer_3
p4405
V6849
p4406
sVspecial_bonus_unique_phantom_lancer_2
p4407
V6400
p4408
sVspecial_bonus_attack_damage_35
p4409
V6164
p4410
sVnpc_dota_dark_troll_warlord_skeleton_warrior
p4411
g2461
sVnpc_dota_hero_crystal_maiden
p4412
g2300
sVnpc_dota_hero_brewmaster
p4413
g1927
sg1724
Vnpc_dota_goodguys_fillers
p4414
sVinvoker_deafening_blast
p4415
V5390
p4416
sg2332
g4249
sVnpc_dota_badguys_fort
p4417
g1668
sg417
g4028
sVember_spirit_sleight_of_fist
p4418
V5604
p4419
sVspecial_bonus_unique_keeper_of_the_light_2
p4420
V6527
p4421
sVspecial_bonus_unique_keeper_of_the_light_3
p4422
V6665
p4423
sVnpc_dota_greevil_minion_green
p4424
g2364
sVwisp_overcharge
p4425
V5487
p4426
sg395
g395
sVnpc_dota_goodguys_melee_rax_bot
p4427
Vmelee barracks
p4428
sVitem_meteor_hammer
p4429
V223
p4430
sVdark_seer_ion_shell
p4431
V5256
p4432
sVspecial_bonus_unique_troll_warlord
p4433
V6154
p4434
sVnaga_siren_song_of_the_siren_cancel
p4435
V5478
p4436
sVnpc_dota_visage_familiar3
p4437
Vfamiliar
p4438
sg59
g58
sVspecial_bonus_unique_faceless_void_4
p4439
V7001
p4440
sVaxe_counter_helix
p4441
V5009
p4442
sVclinkz_strafe
p4443
V5259
p4444
sVnpc_dota_visage_familiar2
p4445
g2361
sVnpc_dota_warlock_golem_scepter_3
p4446
g811
sVursa_earthshock
p4447
V5357
p4448
sVspecial_bonus_unique_faceless_void_2
p4449
V6651
p4450
sVspecial_bonus_unique_faceless_void_3
p4451
V6807
p4452
sVdark_seer_wall_of_replica
p4453
V5258
p4454
sVobsidian_destroyer_mind_over_matter
p4455
V5684
p4456
sVslark_shadow_dance
p4457
V5497
p4458
sg574
Vnpc_dota_hero_witch_doctor
p4459
sVundying_flesh_golem
p4460
V5447
p4461
sVitem_recipe_solar_crest
p4462
V227
p4463
sVphantom_lancer_doppelwalk
p4464
V5066
p4465
sVcentaur_stampede
p4466
V5517
p4467
sVabaddon_death_coil
p4468
V5585
p4469
sVspecial_bonus_unique_kunkka
p4470
V6089
p4471
sVspecial_bonus_unique_slardar
p4472
V6211
p4473
sVitem_lesser_crit
p4474
V149
p4475
sg676
g4341
sVlife_stealer_consume
p4476
V5253
p4477
sVitem_dagon
p4478
V104
p4479
sVnpc_dota_greater_hawk
p4480
g808
sVspecial_bonus_spell_lifesteal_30
p4481
V6513
p4482
sg773
g3225
sVitem_recipe_ring_of_basilius
p4483
V87
p4484
sVfaceless_void_chronosphere
p4485
V5185
p4486
sVbeastmaster_call_of_the_wild
p4487
V5169
p4488
sVcrystal_maiden_crystal_nova
p4489
V5126
p4490
sVlone_druid_true_form
p4491
V5415
p4492
sVember_spirit_activate_fire_remnant
p4493
V5607
p4494
sVspecial_bonus_unique_ursa
p4495
V6132
p4496
sg3859
g2231
sVspecial_bonus_unique_dark_seer
p4497
V6047
p4498
sVkeeper_of_the_light_recall
p4499
V5475
p4500
sg909
Vnpc_dota_hero_disruptor
p4501
sVspecial_bonus_exp_boost_25
p4502
V5987
p4503
sVslark_dark_pact
p4504
V5494
p4505
sVspecial_bonus_exp_boost_20
p4506
V6017
p4507
sVobsidian_destroyer_sanity_eclipse
p4508
V5394
p4509
sVdoom_bringer_infernal_blade
p4510
V5341
p4511
sg980
Vnpc_dota_lone_druid_bear1
p4512
sVitem_diffusal_blade
p4513
V174
p4514
sg1001
g3310
sg1003
g4168
sVskeleton_king_mortal_strike
p4515
V5088
p4516
sg2927
g1979
sVslark_pounce
p4517
V5495
p4518
sg1167
g1167
sg246
g245
sg1216
Vnpc_dota_hero_huskar
p4519
sg1232
g1232
sVspecial_bonus_unique_elder_titan_2
p4520
V6378
p4521
sVspecial_bonus_unique_elder_titan_3
p4522
V6720
p4523
sVursa_overpower
p4524
V5358
p4525
sVitem_recipe_veil_of_discord
p4526
V189
p4527
sg1925
g1925
sg309
g308
sVnpc_dota_badguys_tower1_top
p4528
Vtower
p4529
sg1420
g3416
sVitem_recipe_rapier
p4530
V132
p4531
sg2851
g476
sVbroodmother_incapacitating_bite
p4532
V5281
p4533
sVspecial_bonus_unique_keeper_of_the_light
p4534
V6217
p4535
sVspecial_bonus_unique_zeus_3
p4536
V6518
p4537
sVspecial_bonus_unique_zeus_2
p4538
V6501
p4539
sVitem_ethereal_blade
p4540
V176
p4541
sVspecial_bonus_hp_400
p4542
V5976
p4543
sVspecial_bonus_attack_damage_65
p4544
V6142
p4545
sVspecial_bonus_hp_150
p4546
V5902
p4547
sVspecial_bonus_attack_damage_60
p4548
V6366
p4549
sVspecial_bonus_cast_range_75
p4550
V5947
p4551
sVcentaur_hoof_stomp
p4552
V5514
p4553
sg1082
g1082
sVmonkey_king_tree_dance
p4554
V5721
p4555
sVnpc_dota_goodguys_tower1_top
p4556
Vtower
p4557
sVcny_beast_force_attack
p4558
V5661
p4559
sVnpc_dota_witch_doctor_death_ward
p4560
g1798
sVnpc_dota_techies_land_mine
p4561
g436
sg2736
g1251
sg2339
g4019
sVspecial_bonus_all_stats_8
p4562
V5923
p4563
sVspecial_bonus_unique_necrophos
p4564
V6010
p4565
sVspecial_bonus_agility_40
p4566
V6430
p4567
sVspecial_bonus_all_stats_4
p4568
V5920
p4569
sVlycan_summon_wolves_critical_strike
p4570
V5399
p4571
sVspecial_bonus_all_stats_6
p4572
V5922
p4573
sVkeeper_of_the_light_illuminate
p4574
V5471
p4575
sVweaver_geminate_attack
p4576
V5291
p4577
sVwisp_tether_break
p4578
V5489
p4579
sg1962
g1962
sVitem_invis_sword
p4580
V152
p4581
sVgyrocopter_homing_missile
p4582
V5362
p4583
sVspecial_bonus_unique_brewmaster_2
p4584
V6359
p4585
sVspecial_bonus_unique_brewmaster_3
p4586
V6516
p4587
sg503
g2675
sVnpc_dota_goodguys_melee_rax_top
p4588
Vmelee barracks
p4589
sVnyx_assassin_spiked_carapace
p4590
V5464
p4591
sVspecial_bonus_unique_brewmaster_4
p4592
V6614
p4593
sVnevermore_requiem
p4594
V5064
p4595
sg2088
Vnpc_dota_hero_visage
p4596
sg808
g4480
sVitem_magic_stick
p4597
V34
p4598
sVitem_glimmer_cape
p4599
V254
p4600
sVspecial_bonus_cooldown_reduction_50
p4601
V6804
p4602
sVtusk_snowball
p4603
V5566
p4604
sVitem_ogre_axe
p4605
V21
p4606
sVmonkey_king_untransform
p4607
V5722
p4608
sg2234
Vnpc_dota_hero_dazzle
p4609
sg2250
g3376
sVwisp_spirits_in
p4610
V5490
p4611
sVnpc_dota_badguys_tower4
p4612
Vtower
p4613
sValchemist_unstable_concoction
p4614
V5366
p4615
sVspecial_bonus_evasion_30
p4616
V6700
p4617
sVnpc_dota_brewmaster_storm_3
p4618
Vstorm
p4619
sVnpc_dota_brewmaster_storm_2
p4620
Vstorm
p4621
sVnpc_dota_brewmaster_storm_1
p4622
g1657
sVnpc_dota_hero_spectre
p4623
g2563
sVbeastmaster_wild_axes
p4624
V5168
p4625
sVnpc_dota_hero_death_prophet
p4626
g985
sVlife_stealer_infest
p4627
V5252
p4628
sVnpc_dota_goodguys_tower1_bot
p4629
Vtower
p4630
sVspecial_bonus_strength_14
p4631
V6281
p4632
sVspecial_bonus_strength_15
p4633
V6145
p4634
sg3010
Vmelee barracks
p4635
sVspecial_bonus_strength_10
p4636
V6137
p4637
sVspecial_bonus_strength_12
p4638
V5928
p4639
sg2485
Vnpc_dota_hero_sven
p4640
sVnpc_dota_hero_slark
p4641
g1404
sVitem_recipe_pers
p4642
V68
p4643
sVnpc_dota_furion_treant
p4644
g2129
sVitem_assault
p4645
V112
p4646
sg2563
g4623
sg4393
g2370
sVspectre_dispersion
p4647
V5336
p4648
sVspecial_bonus_night_vision_600
p4649
V7019
p4650
sVphantom_lancer_juxtapose
p4651
V5067
p4652
sVspecial_bonus_unique_lifestealer_3
p4653
V7012
p4654
sVspecial_bonus_unique_lifestealer_2
p4655
V6676
p4656
sg4640
g2485
sVitem_recipe_ultimate_scepter
p4657
V107
p4658
sVqueenofpain_scream_of_pain
p4659
V5175
p4660
sg4248
g736
sVspecial_bonus_attack_speed_35
p4661
V6196
p4662
sVnpc_dota_neutral_ghost
p4663
g1705
sVspecial_bonus_magic_resistance_40
p4664
V6663
p4665
sg422
g422
sVmorphling_morph_agi
p4666
V5055
p4667
sVlife_stealer_rage
p4668
V5249
p4669
sg436
g4561
sg458
Vnpc_dota_hero_riki
p4670
sg4282
g1214
sg3436
g817
sVvisage_summon_familiars_stone_form
p4671
V5484
p4672
sVspecial_bonus_cast_range_275
p4673
V7117
p4674
sVkeeper_of_the_light_spirit_form_illuminate
p4675
V5479
p4676
sVitem_radiance
p4677
V137
p4678
sVnpc_dota_creep_goodguys_ranged
p4679
g2561
sVjuggernaut_blade_dance
p4680
V5027
p4681
sVroshan_halloween_greater_bash
p4682
V9994
p4683
sVspecial_bonus_unique_earth_spirit_2
p4684
V6514
p4685
sVspecial_bonus_unique_earth_spirit_3
p4686
V6640
p4687
sVblue_dragonspawn_overseer_devotion_aura
p4688
V5327
p4689
sVspecial_bonus_unique_rubick_2
p4690
V6862
p4691
sVspecial_bonus_unique_rubick_3
p4692
V6863
p4693
sVspecial_bonus_unique_rubick_4
p4694
V6864
p4695
sVspecial_bonus_unique_rubick_5
p4696
V6870
p4697
sVspecial_bonus_movement_speed_10
p4698
V5958
p4699
sg4322
g1608
sg1764
g4075
sVitem_recipe_oblivion_staff
p4700
V66
p4701
sVspecial_bonus_movement_speed_15
p4702
V5917
p4703
sVgreevil_fatal_bonds
p4704
V5552
p4705
sVspecial_bonus_unique_nyx
p4706
V6130
p4707
sg2971
g1461
sVcourier_go_to_sideshop
p4708
V6333
p4709
sVgreevil_miniboss_green_overgrowth
p4710
V5571
p4711
sVcentaur_khan_war_stomp
p4712
V5295
p4713
sVnpc_dota_hero_undying
p4714
g442
sg3880
g2413
sVnpc_dota_badguys_healers
p4715
g2341
sVspecial_bonus_spell_lifesteal_20
p4716
V6166
p4717
sVlion_finger_of_death
p4718
V5047
p4719
sVspecial_bonus_unique_medusa_4
p4720
V6803
p4721
sVspecial_bonus_unique_medusa_3
p4722
V6687
p4723
sVspecial_bonus_unique_medusa_2
p4724
V6392
p4725
sVspecial_bonus_unique_jakiro
p4726
V6064
p4727
sg2125
Vnpc_dota_neutral_prowler_shaman
p4728
sVearth_spirit_stone_caller
p4729
V5611
p4730
sg1134
Vnpc_dota_flying_courier
p4731
sVitem_moon_shard
p4732
V247
p4733
sVspecial_bonus_haste
p4734
V6629
p4735
sVnpc_dota_greevil_minion_purple
p4736
g636
sVitem_recipe_black_king_bar
p4737
V115
p4738
sVbounty_hunter_track
p4739
V5288
p4740
sVspecial_bonus_exp_boost_30
p4741
V6317
p4742
sVspecial_bonus_exp_boost_35
p4743
V6372
p4744
sVenchantress_enchant
p4745
V5268
p4746
sg2131
Vnpc_dota_lycan_wolf4
p4747
sg254
g253
sVcourier_transfer_items_to_other_player
p4748
V6328
p4749
sVchen_holy_persuasion
p4750
V5330
p4751
sVlich_frost_nova
p4752
V5134
p4753
sVspecial_bonus_unique_crystal_maiden_1
p4754
V6072
p4755
sVspecial_bonus_unique_crystal_maiden_3
p4756
V6520
p4757
sVspecial_bonus_unique_crystal_maiden_2
p4758
V6234
p4759
sg2902
g876
sVitem_recipe_buckler
p4760
V85
p4761
sVitem_circlet
p4762
V20
p4763
sVitem_wraith_band
p4764
V75
p4765
sg1495
Vnpc_dota_hero_morphling
p4766
sVbeastmaster_hawk_invisibility
p4767
V5170
p4768
sVitem_belt_of_strength
p4769
V17
p4770
sVspecial_bonus_hp_regen_50
p4771
V6302
p4772
sg1583
Vnpc_dota_hero_razor
p4773
sVspecial_bonus_unique_lifestealer
p4774
V6173
p4775
sVtroll_warlord_whirling_axes_ranged
p4776
V5509
p4777
sg1654
g3530
sg1657
g4620
sVspecial_bonus_unique_brewmaster
p4778
V6082
p4779
sVphoenix_fire_spirits
p4780
V5625
p4781
sVleshrac_pulse_nova
p4782
V5244
p4783
sVspecial_bonus_unique_ogre_magi_3
p4784
V7030
p4785
sg1748
g3051
sVblack_dragon_splash_attack
p4786
V5324
p4787
sVinvoker_wex
p4788
V5371
p4789
sVnpc_dota_goodguys_range_rax_bot
p4790
Vranged barracks
p4791
sg3700
g2445
sg2649
g2992
sVspecial_bonus_hp_500
p4792
V6235
p4793
sVspecial_bonus_attack_damage_12
p4794
V6159
p4795
sVspecial_bonus_attack_damage_10
p4796
V6095
p4797
sVspecial_bonus_attack_damage_15
p4798
V5938
p4799
sVnpc_dota_creep_badguys_melee_upgraded_mega
p4800
g2081
sVitem_quelling_blade
p4801
V11
p4802
sVmeepo_poof
p4803
V5431
p4804
sVantimage_mana_break
p4805
V5003
p4806
sVitem_recipe_guardian_greaves
p4807
V230
p4808
sVroshan_slam
p4809
V5215
p4810
sVvenomancer_poison_nova
p4811
V5181
p4812
sVitem_chainmail
p4813
V4
sVchaos_knight_reality_rift
p4814
V5427
p4815
sVspecial_bonus_unique_magnus_5
p4816
V6691
p4817
sVspecial_bonus_unique_magnus_4
p4818
V6690
p4819
sVspecial_bonus_unique_magnus_3
p4820
V6507
p4821
sVspecial_bonus_unique_magnus_2
p4822
V6390
p4823
sg3124
g609
sVdefault_attack
p4824
V5001
p4825
sVnpc_dota_creep_badguys_ranged
p4826
Vranged creep
p4827
sVitem_greater_crit
p4828
V141
p4829
sVchen_test_of_faith_teleport
p4830
V5522
p4831
sVgreevil_miniboss_orange_dragon_slave
p4832
V5572
p4833
sg2388
Vnpc_dota_neutral_granite_golem
p4834
sg3011
g1837
sVspecial_bonus_unique_naga_siren
p4835
V6205
p4836
sVmirana_starfall
p4837
V5051
p4838
sVmeepo_geostrike
p4839
V5432
p4840
sVcrystal_maiden_brilliance_aura
p4841
V5128
p4842
sVrubick_spell_steal
p4843
V5452
p4844
sVitem_nullifier
p4845
V225
p4846
sVnpc_dota_hero_dark_willow
p4847
g2015
sVitem_recipe_butterfly
p4848
V138
p4849
sVitem_bfury
p4850
V145
p4851
sVrattletrap_rocket_flare
p4852
V5239
p4853
sVdazzle_weave
p4854
V5236
p4855
sVlina_light_strike_array
p4856
V5041
p4857
sVspecial_bonus_truestrike
p4858
V6922
p4859
sg192
g191
sVweaver_time_lapse
p4860
V5292
p4861
sVzuus_arc_lightning
p4862
V5110
p4863
sVdark_troll_warlord_raise_dead
p4864
V5306
p4865
sVbloodseeker_thirst
p4866
V5017
p4867
sg442
g4714
sVnyx_assassin_mana_burn
p4868
V5463
p4869
sVspecial_bonus_unique_ember_spirit_1
p4870
V6172
p4871
sVriki_smoke_screen
p4872
V5142
p4873
sVspecial_bonus_unique_ember_spirit_3
p4874
V6647
p4875
sVlife_stealer_assimilate
p4876
V5671
p4877
sVspecial_bonus_unique_ember_spirit_5
p4878
V7051
p4879
sVspecial_bonus_unique_ember_spirit_4
p4880
V7050
p4881
sVitem_ring_of_basilius
p4882
V88
p4883
sVwinter_wyvern_splinter_blast
p4884
V5652
p4885
sVspecial_bonus_magic_resistance_50
p4886
V6641
p4887
sVnpc_dota_hero_templar_assassin
p4888
g1548
sVursa_fury_swipes
p4889
V5359
p4890
sVspecial_bonus_mp_125
p4891
V5904
p4892
sVspecial_bonus_unique_silencer
p4893
V6184
p4894
sg626
g3773
sVspecial_bonus_attack_speed_20
p4895
V5906
p4896
sVfaceless_void_time_dilation
p4897
V5691
p4898
sVspecial_bonus_attack_speed_25
p4899
V6016
p4900
sVmorphling_morph
p4901
V5054
p4902
sVnpc_dota_badguys_tower2_bot
p4903
Vtower
p4904
sVitem_recipe_assault
p4905
V111
p4906
sg634
g3913
sVitem_slippers
p4907
V14
p4908
sg4377
g2266
sVnpc_dota_greevil_miniboss_red
p4909
g1170
sVitem_recipe_iron_talon
p4910
V238
p4911
sg1687
g1687
sVobsidian_destroyer_astral_imprisonment
p4912
V5392
p4913
sg741
g3350
sVbeastmaster_inner_beast
p4914
V5172
p4915
sVspecial_bonus_cast_range_100
p4916
V6003
p4917
sVspecial_bonus_night_vision_500
p4918
V7022
p4919
sg301
g300
sVnyx_assassin_impale
p4920
V5462
p4921
sVgyrocopter_call_down
p4922
V5364
p4923
sVitem_tranquil_boots
p4924
V214
p4925
sVnpc_dota_hero_warlock
p4926
g1689
sVwindrunner_shackleshot
p4927
V5130
p4928
sVnpc_dota_shadow_shaman_ward_3
p4929
Vserpent ward
p4930
sVnpc_dota_shadow_shaman_ward_2
p4931
g2173
sVroshan_bash
p4932
V5214
p4933
sVitem_recipe_diffusal_blade
p4934
V173
p4935
sg424
Vnpc_dota_greevil_miniboss_blue
p4936
sValchemist_acid_spray
p4937
V5365
p4938
sVitem_hood_of_defiance
p4939
V131
p4940
sVbristleback_bristleback
p4941
V5550
p4942
sg1100
g2899
sVlone_druid_spirit_bear
p4943
V5412
p4944
sVblack_dragon_fireball
p4945
V5689
p4946
sVoracle_fates_edict
p4947
V5638
p4948
sVspecial_bonus_cooldown_reduction_25
p4949
V6222
p4950
sVitem_recipe_hood_of_defiance
p4951
V130
p4952
sVdragon_knight_dragon_tail
p4953
V5227
p4954
sVnpc_dota_lycan_wolf3
p4955
g2131
sVnpc_dota_lycan_wolf2
p4956
Vlycan wolf
p4957
sVitem_sobi_mask
p4958
V28
p4959
sg4747
Vlycan wolf
p4960
sVspecial_bonus_spell_amplify_12
p4961
V6326
p4962
sVspecial_bonus_spell_amplify_10
p4963
V5989
p4964
sVspecial_bonus_spell_amplify_15
p4965
V6055
p4966
sg119
g118
sVpolar_furbolg_ursa_warrior_thunder_clap
p4967
V5302
p4968
sVphoenix_supernova
p4969
V5630
p4970
sVtechies_remote_mines
p4971
V5602
p4972
sg1404
g4641
sVsven_warcry
p4973
V5096
p4974
sg2049
g4159
sVnpc_dota_badguys_melee_rax_mid
p4975
Vmelee barracks
p4976
sVspecial_bonus_intelligence_13
p4977
V6042
p4978
sVjakiro_dual_breath
p4979
V5297
p4980
sVspecial_bonus_unique_templar_assassin
p4981
V6071
p4982
sVspirit_breaker_greater_bash
p4983
V5355
p4984
sg315
g314
sVbatrider_sticky_napalm
p4985
V5320
p4986
sVspecial_bonus_exp_boost_40
p4987
V6447
p4988
sVitem_blade_mail
p4989
V127
p4990
sVitem_poor_mans_shield
p4991
V71
p4992
sVcourier_morph
p4993
V5642
p4994
sVnpc_dota_neutral_dark_troll_warlord
p4995
g2135
sVmonkey_king_mischief
p4996
V5719
p4997
sg1741
Vnpc_dota_brewmaster_fire_2
p4998
sVnpc_dota_brewmaster_fire_1
p4999
g1741
sg1782
Vnpc_dota_hero_silencer
p5000
sVspecial_bonus_hp_regen_40
p5001
V6022
p5002
sg1821
Vnpc_dota_hero_storm_spirit
p5003
sVgreevil_hook
p5004
V5563
p5005
sg123
g122
sVitem_recipe_mekansm
p5006
V78
p5007
sVitem_recipe_necronomicon
p5008
V105
p5009
sVnpc_dota_greevil_minion_white
p5010
g1116
sVnpc_dota_badguys_range_rax_bot
p5011
Vranged barracks
p5012
sVviper_viper_strike
p5013
V5221
p5014
sVitem_recipe_aeon_disk
p5015
V255
p5016
sVspecial_bonus_mp_800
p5017
V6816
p5018
sg3574
Vnether ward
p5019
sVfiller_ability
p5020
V6226
p5021
sVinvoker_cold_snap
p5022
V5376
p5023
sVogre_magi_bloodlust
p5024
V5440
p5025
sVitem_shivas_guard
p5026
V119
p5027
sg2129
g4644
sVbane_nightmare
p5028
V5014
p5029
sg4609
g2234
sVcourier_go_to_enemy_secretshop
p5030
V6329
p5031
sVinvoker_exort
p5032
V5372
p5033
sVrubick_null_field
p5034
V5451
p5035
sVspecial_bonus_cast_range_50
p5036
V5946
p5037
sVspecial_bonus_hp_175
p5038
V6034
p5039
sg3433
Vwarlock golem
p5040
sVspecial_bonus_unique_underlord_2
p5041
V6967
p5042
sVspecial_bonus_unique_underlord_3
p5043
V6968
p5044
sVspecial_bonus_unique_underlord_4
p5045
V6969
p5046
sVroshan_halloween_candy
p5047
V9990
p5048
sg2386
g2386
sg4834
g2388
sVspecial_bonus_unique_outworld_devourer_2
p5049
V6711
p5050
sVspecial_bonus_unique_outworld_devourer_3
p5051
V6712
p5052
sVharpy_storm_chain_lightning
p5053
V5319
p5054
sVspecial_bonus_attack_damage_120
p5055
V6112
p5056
sVspecial_bonus_hp_200
p5057
V5959
p5058
sVspecial_bonus_unique_antimage
p5059
V6012
p5060
sVbloodseeker_blood_bath
p5061
V5016
p5062
sVitem_oblivion_staff
p5063
V67
p5064
sVspecial_bonus_unique_tiny
p5065
V6153
p5066
sVspecial_bonus_unique_lycan_1
p5067
V6134
p5068
sVenraged_wildkin_toughness_aura
p5069
V5313
p5070
sVspecial_bonus_mp_regen_8
p5071
V6243
p5072
sVspecial_bonus_spell_block_15
p5073
V7034
p5074
sVspecial_bonus_unique_beastmaster
p5075
V6103
p5076
sg3341
g2617
sVbroodmother_spin_web_destroy
p5077
V5643
p5078
sVlone_druid_spirit_bear_return
p5079
V5418
p5080
sg2827
g1805
sVrattletrap_battery_assault
p5081
V5237
p5082
sg2173
g2755
sVspecial_bonus_mp_regen_14
p5083
V6255
p5084
sVnyx_assassin_vendetta
p5085
V5465
p5086
sVspecial_bonus_mp_regen_10
p5087
V6116
p5088
sg3052
g2175
sg480
g2993
sVspecial_bonus_evasion_50
p5089
V6613
p5090
sVsven_storm_bolt
p5091
V5094
p5092
sVbroodmother_insatiable_hunger
p5093
V5282
p5094
sVspecial_bonus_attack_damage_251
p5095
V7039
p5096
sVspecial_bonus_attack_damage_250
p5097
V6556
p5098
sg2525
Vnpc_dota_hero_jakiro
p5099
sVnpc_dota_brewmaster_earth_1
p5100
g853
sg4367
g2139
sVitem_void_stone
p5101
V57
p5102
sg3407
g550
sVitem_quarterstaff
p5103
V10
p5104
sVspecial_bonus_cleave_100
p5105
V6827
p5106
sg4766
g1495
sVantimage_blink
p5107
V5004
p5108
sg640
g4344
sVgreevil_miniboss_black_brain_sap
p5109
V5537
p5110
sVspecial_bonus_unique_enchantress_4
p5111
V6515
p5112
sVspecial_bonus_unique_invoker_1
p5113
V6097
p5114
sVspecial_bonus_unique_invoker_3
p5115
V6099
p5116
sVspecial_bonus_unique_invoker_2
p5117
V6098
p5118
sVspecial_bonus_unique_invoker_5
p5119
V6657
p5120
sVspecial_bonus_unique_invoker_4
p5121
V6656
p5122
sVspecial_bonus_unique_invoker_7
p5123
V7016
p5124
sVspecial_bonus_unique_invoker_6
p5125
V6811
p5126
sVspecial_bonus_unique_invoker_8
p5127
V7017
p5128
sVspecial_bonus_unique_clockwerk_4
p5129
V7028
p5130
sVwisp_relocate
p5131
V5488
p5132
sVspecial_bonus_unique_clockwerk_3
p5133
V6512
p5134
sVinvoker_emp
p5135
V5383
p5136
sVearthshaker_fissure
p5137
V5023
p5138
sVspecial_bonus_magic_resistance_25
p5139
V6091
p5140
sVnpc_dota_neutral_black_drake
p5141
g1887
sVspecial_bonus_unique_techies_4
p5142
V6998
p5143
sVspecial_bonus_unique_techies_2
p5144
V6552
p5145
sVspecial_bonus_unique_techies_3
p5146
V6997
p5147
sVspecial_bonus_mp_150
p5148
V5905
p5149
sg4773
g1583
sg819
g3351
sVwitch_doctor_paralyzing_cask
p5150
V5138
p5151
sVgreevil_miniboss_purple_plague_ward
p5152
V5575
p5153
sVnpc_dota_hero_lone_druid
p5154
g1908
sVnpc_dota_lone_druid_bear4
p5155
g980
sVnpc_dota_lone_druid_bear2
p5156
Vspirit bear
p5157
sVnpc_dota_lone_druid_bear3
p5158
Vspirit bear
p5159
sg4512
Vspirit bear
p5160
sVability_deward
p5161
V5669
p5162
sVskywrath_mage_ancient_seal
p5163
V5583
p5164
sVitem_hand_of_midas
p5165
V65
p5166
sVspecial_bonus_unique_mirana_4
p5167
V6692
p5168
sVspecial_bonus_unique_mirana_2
p5169
V6242
p5170
sVspecial_bonus_unique_mirana_3
p5171
V6397
p5172
sVspecial_bonus_unique_mirana_1
p5173
V6013
p5174
sg1147
g3591
sVvengefulspirit_command_aura
p5175
V5123
p5176
sVnecrolyte_reapers_scythe
p5177
V5161
p5178
sg1177
g3490
sVwinter_wyvern_arctic_burn
p5179
V5651
p5180
sVstorm_spirit_static_remnant
p5181
V5098
p5182
sg3713
g946
sVitem_recipe_lesser_crit
p5183
V148
p5184
sg2772
g2284
sVitem_iron_talon
p5185
V239
p5186
sVitem_recipe_soul_booster
p5187
V128
p5188
sg4283
g1234
sVcourier_take_stash_and_transfer_items
p5189
V5676
p5190
sVgreevil_miniboss_purple_venomous_gale
p5191
V5574
p5192
sVitem_trident
p5193
V275
p5194
sVmorphling_hybrid
p5195
V5674
p5196
sVlife_stealer_open_wounds
p5197
V5251
p5198
sg1564
g1564
sVbrewmaster_drunken_brawler
p5199
V5402
p5200
sVspecial_bonus_unique_gyrocopter_4
p5201
V6653
p5202
sVspecial_bonus_unique_gyrocopter_5
p5203
V6654
p5204
sVspecial_bonus_unique_gyrocopter_2
p5205
V6312
p5206
sVspecial_bonus_unique_gyrocopter_3
p5207
V6652
p5208
sVitem_mjollnir
p5209
V158
p5210
sVspecial_bonus_unique_gyrocopter_1
p5211
V6216
p5212
sg1605
g4289
sVitem_sange
p5213
V162
p5214
sVspecial_bonus_cooldown_reduction_8
p5215
V5950
p5216
sVspecial_bonus_unique_winter_wyvern_1
p5217
V6106
p5218
sVspecial_bonus_unique_furion_4
p5219
V6702
p5220
sVspecial_bonus_unique_furion_3
p5221
V6539
p5222
sVspecial_bonus_unique_furion_2
p5223
V6500
p5224
sg1689
g4926
sVspecial_bonus_agility_100
p5225
V6705
p5226
sVitem_tango
p5227
V44
p5228
sVitem_recipe_dagon_2
p5229
V197
p5230
sVspecial_bonus_unique_winter_wyvern_4
p5231
V6994
p5232
sVogre_magi_unrefined_fireblast
p5233
V5466
p5234
sVitem_recipe_dagon_4
p5235
V199
p5236
sVitem_recipe_dagon_5
p5237
V200
p5238
sg1766
Vnpc_dota_hero_gyrocopter
p5239
sg5099
g2525
sg1871
Vnpc_dota_hero_lina
p5240
sVinvoker_sun_strike
p5241
V5386
p5242
sg711
Vnpc_dota_phantomassassin_gravestone
p5243
sVgranite_golem_bash
p5244
V5680
p5245
sVelder_titan_natural_order
p5246
V5593
p5247
sVvisage_summon_familiars
p5248
V5483
p5249
sVrattletrap_power_cogs
p5250
V5238
p5251
sVspecial_bonus_spell_immunity
p5252
V6646
p5253
sVshredder_chakram_2
p5254
V5645
p5255
sVitem_gem
p5256
V30
p5257
sg636
g4736
sVitem_courier
p5258
V45
p5259
sVitem_dust
p5260
V40
p5261
sVspectre_spectral_dagger
p5262
V5334
p5263
sVphantom_assassin_coup_de_grace
p5264
V5193
p5265
sVitem_recipe_kaya
p5266
V258
p5267
sVitem_river_painter5
p5268
V1025
p5269
sVspecial_bonus_unique_naga_siren_4
p5270
V7029
p5271
sVitem_river_painter7
p5272
V1027
p5273
sVspecial_bonus_cleave_150
p5274
V7124
p5275
sVlion_impale
p5276
V5044
p5277
sVspecial_bonus_unique_naga_siren_3
p5278
V6701
p5279
sVspecial_bonus_unique_naga_siren_2
p5280
V6398
p5281
sVitem_dragon_lance
p5282
V236
p5283
sg2734
g1745
sVitem_soul_booster
p5284
V129
p5285
sVwindrunner_windrun
p5286
V5132
p5287
sVtusk_launch_snowball
p5288
V5641
p5289
sVitem_shadow_amulet
p5290
V215
p5291
sVitem_sheepstick
p5292
V96
p5293
sVspecial_bonus_attack_range_250
p5294
V6040
p5295
sVnpc_dota_creep_badguys_ranged_upgraded
p5296
Vsuper ranged creep
p5297
sg941
g941
sVspecial_bonus_unique_luna_2
p5298
V6127
p5299
sVbig_thunder_lizard_slam
p5300
V5332
p5301
sVspecial_bonus_magic_resistance_8
p5302
V5936
p5303
sVspecial_bonus_magic_resistance_6
p5304
V5994
p5305
sVspecial_bonus_unique_sand_king_4
p5306
V6872
p5307
sVspecial_bonus_magic_resistance_5
p5308
V5935
p5309
sVspecial_bonus_attack_damage_30
p5310
V5939
p5311
sVspecial_bonus_unique_sand_king_3
p5312
V6530
p5313
sVspecial_bonus_unique_sand_king_2
p5314
V6409
p5315
sVpangolier_gyroshell
p5316
V6343
p5317
sVspecial_bonus_attack_range_125
p5318
V5944
p5319
sg366
g3917
sVspecial_bonus_unique_visage_3
p5320
V6522
p5321
sVspecial_bonus_unique_visage_2
p5322
V6320
p5323
sVspecial_bonus_unique_visage_1
p5324
V6031
p5325
sVrubick_fade_bolt
p5326
V5450
p5327
sVspecial_bonus_unique_visage_6
p5328
V6985
p5329
sVspecial_bonus_unique_visage_5
p5330
V6984
p5331
sVspecial_bonus_unique_visage_4
p5332
V6983
p5333
sg3032
g2033
sVrattletrap_hookshot
p5334
V5240
p5335
sg3327
g2013
sVbeastmaster_greater_boar_poison
p5336
V5352
p5337
sVoracle_fortunes_end
p5338
V5637
p5339
sg103
g102
sg3234
g630
sVspecial_bonus_attack_speed_200
p5340
V6622
p5341
sVitem_recipe_phase_boots
p5342
V49
p5343
sg1534
g3979
sVtroll_warlord_fervor
p5344
V5511
p5345
sVspecial_bonus_mana_break_20
p5346
V6987
p5347
sVzuus_cloud
p5348
V6325
p5349
sVspecial_bonus_mana_break_25
p5350
V6830
p5351
sVspecial_bonus_corruption_5
p5352
V6846
p5353
sg4284
g1283
sVitem_recipe_spirit_vessel
p5354
V266
p5355
sVspecial_bonus_unique_zeus
p5356
V6157
p5357
sVitem_cheese
p5358
V33
p5359
sVnpc_dota_necronomicon_archer_3
p5360
Vnecronomicon archer
p5361
sVnpc_dota_unit_tombstone4
p5362
Vtombstone
p5363
sVnpc_dota_unit_tombstone1
p5364
Vtombstone
p5365
sg3085
Vtombstone
p5366
sVnpc_dota_unit_tombstone2
p5367
g2595
sg638
g4059
sVtroll_warlord_whirling_axes_melee
p5368
V5510
p5369
sVphantom_assassin_phantom_strike
p5370
V5191
p5371
sVluna_lucent_beam
p5372
V5222
p5373
sVitem_octarine_core
p5374
V235
p5375
sVfurion_teleportation
p5376
V5246
p5377
sVitem_recipe_aether_lens
p5378
V233
p5379
sg1116
g5010
sVitem_recipe_sange
p5380
V161
p5381
sVnecronomicon_archer_purge
p5382
V8203
p5383
sVspecial_bonus_gold_income_15
p5384
V6007
p5385
sVspecial_bonus_gold_income_10
p5386
V5956
p5387
sVspecial_bonus_unique_ogre_magi_2
p5388
V6707
p5389
sVdrow_ranger_wave_of_silence
p5390
V5632
p5391
sg632
g4347
sVblack_dragon_dragonhide_aura
p5392
V5681
p5393
sVbrewmaster_earth_hurl_boulder
p5394
V5404
p5395
sVleshrac_split_earth
p5396
V5241
p5397
sVitem_point_booster
p5398
V60
p5399
sVitem_ward_observer
p5400
V42
p5401
sVspecial_bonus_intelligence_25
p5402
V6050
p5403
sVnecrolyte_sadist
p5404
V5160
p5405
sVbounty_hunter_wind_walk
p5406
V5287
p5407
sg1064
Vnpc_dota_hero_ursa
p5408
sVitem_recipe_bfury
p5409
V144
p5410
sVitem_pipe
p5411
V90
p5412
sVspecial_bonus_magic_resistance_35
p5413
V6386
p5414
sVspecial_bonus_magic_resistance_30
p5415
V6221
p5416
sVspecial_bonus_unique_antimage_2
p5417
V6353
p5418
sVspecial_bonus_unique_antimage_3
p5419
V6606
p5420
sVspecial_bonus_unique_antimage_4
p5421
V6607
p5422
sVspecial_bonus_unique_antimage_5
p5423
V6800
p5424
sg4386
g1634
sVitem_recipe_tranquil_boots
p5425
V213
p5426
sVoracle_false_promise
p5427
V5640
p5428
sVwindrunner_powershot
p5429
V5131
p5430
sVspecial_bonus_unique_abaddon_2
p5431
V6601
p5432
sVspecial_bonus_unique_abaddon_3
p5433
V6602
p5434
sVroshan_halloween_summon
p5435
V10001
p5436
sVnpc_dota_pugna_nether_ward_3
p5437
g2155
sVshredder_chakram
p5438
V5527
p5439
sVnpc_dota_pugna_nether_ward_1
p5440
Vnether ward
p5441
sVnpc_dota_pugna_nether_ward_4
p5442
Vnether ward
p5443
sVspecial_bonus_cast_range_125
p5444
V6197
p5445
sVsatyr_soulstealer_mana_burn
p5446
V5315
p5447
sVspecial_bonus_attack_damage_400
p5448
V6553
p5449
sVitem_robe
p5450
V19
p5451
sVspecial_bonus_unique_lycan_4
p5452
V6684
p5453
sVspecial_bonus_unique_lycan_5
p5454
V6685
p5455
sVhuskar_berserkers_blood
p5456
V5273
p5457
sVspecial_bonus_unique_lycan_2
p5458
V6140
p5459
sVspecial_bonus_unique_lycan_3
p5460
V6519
p5461
sVshoot_firework
p5462
V5650
p5463
sg2081
g3625
sg1803
g3252
sVspecial_bonus_unique_techies
p5464
V6282
p5465
sg5243
g711
sVdark_troll_warlord_ensnare
p5466
V5305
p5467
sg4187
g2316
sVelder_titan_earth_splitter
p5468
V5594
p5469
sg228
g227
sVmagnataur_shockwave
p5470
V5518
p5471
sVspecial_bonus_unique_ember_spirit_2
p5472
V6176
p5473
sVkunkka_torrent
p5474
V5031
p5475
sVitem_infused_raindrop
p5476
V265
p5477
sg1853
g3918
sVspecial_bonus_unique_abaddon
p5478
V6100
p5479
sVnight_stalker_void
p5480
V5275
p5481
sVitem_recipe_soul_ring
p5482
V177
p5483
sg4728
g2125
sVluna_eclipse
p5484
V5225
p5485
sg3879
g2410
sVtidehunter_gush
p5486
V5118
p5487
sVbristleback_warpath
p5488
V5551
p5489
sVspecial_bonus_spell_lifesteal_70
p5490
V6061
p5491
sVbackdoor_protection_in_base
p5492
V5351
p5493
sg4519
g1216
sg2015
g4847
sVitem_recipe_octarine_core
p5494
V228
p5495
sVspecial_bonus_reincarnation_200
p5496
V6677
p5497
sVnaga_siren_ensnare
p5498
V5468
p5499
sg1354
g2977
sVspecial_bonus_unique_spectre
p5500
V6148
p5501
sg2800
g1869
sVspecial_bonus_cast_range_60
p5502
V6032
p5503
sVspecial_bonus_unique_ursa_5
p5504
V6976
p5505
sVspecial_bonus_unique_ursa_4
p5506
V6975
p5507
sVspecial_bonus_unique_ursa_3
p5508
V6974
p5509
sVspecial_bonus_unique_ursa_2
p5510
V6973
p5511
sVspecial_bonus_unique_juggernaut
p5512
V6105
p5513
sVitem_black_king_bar
p5514
V116
p5515
sg4670
g458
sVthrow_snowball
p5516
V5577
p5517
sVroshan_halloween_apocalypse
p5518
V9998
p5519
sg2461
g4411
sVdragon_knight_frost_breath
p5520
V5232
p5521
sVspecial_bonus_exp_boost_60
p5522
V7125
p5523
sVqueenofpain_shadow_strike
p5524
V5173
p5525
sVphantom_lancer_spirit_lance
p5526
V5065
p5527
sg2429
Vnpc_dota_hero_chaos_knight
p5528
sVnpc_dota_necronomicon_warrior_1
p5529
g1317
sVnpc_dota_necronomicon_warrior_2
p5530
Vnecronomicon warrior
p5531
sg2678
Vnecronomicon warrior
p5532
sVnpc_dota_goodguys_siege
p5533
g480
sVitem_recipe_radiance
p5534
V136
p5535
sg2505
g3306
sVwitch_doctor_voodoo_restoration
p5536
V5139
p5537
sg2541
g3581
sVspecial_bonus_lifesteal_15
p5538
V6289
p5539
sVitem_ultimate_scepter
p5540
V108
p5541
sg3041
g2615
sVspecial_bonus_unique_terrorblade
p5542
V6107
p5543
sg4414
Vbuilding
p5544
sVitem_ring_of_protection
p5545
V12
p5546
sVspecial_bonus_unique_enchantress_1
p5547
V6331
p5548
sVspecial_bonus_unique_enchantress_3
p5549
V6379
p5550
sVspecial_bonus_unique_enchantress_2
p5551
V6086
p5552
sVspecial_bonus_unique_enchantress_5
p5553
V6648
p5554
sVarc_warden_flux
p5555
V5677
p5556
sVspecial_bonus_unique_centaur_1
p5557
V6322
p5558
sVspecial_bonus_unique_centaur_3
p5559
V6616
p5560
sVspecial_bonus_unique_centaur_2
p5561
V5988
p5562
sVspecial_bonus_unique_centaur_4
p5563
V6617
p5564
sVpuck_ethereal_jaunt
p5565
V5070
p5566
sg397
Vnpc_dota_creep_badguys_ranged_upgraded_mega
p5567
sVmud_golem_hurl_boulder
p5568
V5670
p5569
sVdoom_bringer_empty1
p5570
V5343
p5571
sVdoom_bringer_empty2
p5572
V5344
p5573
sVspecial_bonus_unique_chen_3
p5574
V6363
p5575
sVspecial_bonus_hp_350
p5576
V6195
p5577
sg4936
g424
sVsilencer_glaives_of_wisdom
p5578
V5378
p5579
sVspecial_bonus_unique_tusk_5
p5580
V6963
p5581
sVspecial_bonus_unique_tusk_4
p5582
V6962
p5583
sVspecial_bonus_unique_sniper_1
p5584
V6305
p5585
sVspecial_bonus_unique_tusk_3
p5586
V6961
p5587
sVspecial_bonus_unique_tusk_2
p5588
V6411
p5589
sVgreevil_miniboss_blue_ice_vortex
p5590
V5539
p5591
sVspecial_bonus_attack_damage_20
p5592
V5960
p5593
sVancient_golem_rockslide
p5594
V5686
p5595
sVspecial_bonus_attack_damage_25
p5596
V6009
p5597
sVrazor_static_link
p5598
V5083
p5599
sVtreant_natures_guise
p5600
V5434
p5601
sVnpc_dota_tusk_frozen_sigil3
p5602
Vfrozen sigil
p5603
sg566
g4154
sVitem_recipe_travel_boots
p5604
V47
p5605
sVitem_necronomicon
p5606
V106
p5607
sVspecial_bonus_hp_225
p5608
V6405
p5609
sVspecial_bonus_unique_bane_4
p5610
V6826
p5611
sVspecial_bonus_intelligence_15
p5612
V5991
p5613
sVspecial_bonus_unique_bane_2
p5614
V6069
p5615
sVspecial_bonus_unique_bane_3
p5616
V6609
p5617
sVspecial_bonus_unique_bane_1
p5618
V6068
p5619
sVitem_recipe_arcane_boots
p5620
V179
p5621
sg657
g320
sVspecial_bonus_hp_regen_80
p5622
V6660
p5623
sg715
g715
sVspecial_bonus_mana_break_35
p5624
V6825
p5625
sVnpc_dota_goodguys_tower3_mid
p5626
Vtower
p5627
sVmorphling_waveform
p5628
V5052
p5629
sVspecial_bonus_evasion_75
p5630
V6882
p5631
sg4596
g2088
sVspecial_bonus_unique_pugna_2
p5632
V6238
p5633
sVspecial_bonus_unique_huskar
p5634
V6204
p5635
sVspecial_bonus_unique_pugna_1
p5636
V6220
p5637
sVspecial_bonus_unique_pugna_6
p5638
V6859
p5639
sVspecial_bonus_unique_pugna_4
p5640
V6448
p5641
sVspecial_bonus_unique_pugna_5
p5642
V6541
p5643
sVitem_recipe_skadi
p5644
V159
p5645
sVnecronomicon_warrior_last_will
p5646
V5200
p5647
sVspecial_bonus_unique_dark_willow_2
p5648
V6465
p5649
sVspecial_bonus_unique_magnus
p5650
V6199
p5651
sVspecial_bonus_unique_dark_willow_1
p5652
V6464
p5653
sVitem_urn_of_shadows
p5654
V92
p5655
sVpudge_dismember
p5656
V5077
p5657
sVwinter_wyvern_cold_embrace
p5658
V5653
p5659
sg985
g4626
sVnpc_dota_hero_centaur
p5660
g757
sVinvoker_invoke
p5661
V5375
p5662
sVspecial_bonus_unique_nyx_2
p5663
V6399
p5664
sVspecial_bonus_unique_nyx_3
p5665
V6814
p5666
sVbrewmaster_storm_cyclone
p5667
V5409
p5668
sVspecial_bonus_unique_earthshaker_3
p5669
V6511
p5670
sVspecial_bonus_unique_bounty_hunter_3
p5671
V7040
p5672
sVspecial_bonus_unique_bounty_hunter_2
p5673
V6358
p5674
sVspecial_bonus_unique_earthshaker_2
p5675
V6425
p5676
sVnpc_dota_badguys_tower3_top
p5677
Vtower
p5678
sVbristleback_quill_spray
p5679
V5549
p5680
sVspecial_bonus_attack_range_75
p5681
V6027
p5682
sVspecial_bonus_unique_shadow_shaman_4
p5683
V6521
p5684
sVspecial_bonus_unique_shadow_shaman_5
p5685
V6877
p5686
sVspecial_bonus_unique_shadow_shaman_1
p5687
V6052
p5688
sVspecial_bonus_unique_shadow_shaman_2
p5689
V6295
p5690
sVspecial_bonus_unique_shadow_shaman_3
p5691
V6502
p5692
sVspecial_bonus_unique_phoenix_5
p5693
V6915
p5694
sVogre_magi_fireblast
p5695
V5438
p5696
sVspecial_bonus_unique_chaos_knight_2
p5697
V6618
p5698
sVspecial_bonus_unique_chaos_knight_3
p5699
V6619
p5700
sVitem_combo_breaker
p5701
V276
p5702
sVitem_recipe_medallion_of_courage
p5703
V186
p5704
sVvenomancer_poison_sting
p5705
V5179
p5706
sVspecial_bonus_unique_venomancer_4
p5707
V6980
p5708
sVspecial_bonus_unique_venomancer_5
p5709
V6981
p5710
sVspecial_bonus_unique_venomancer_6
p5711
V6999
p5712
sVitem_ultimate_orb
p5713
V24
p5714
sVspecial_bonus_unique_venomancer_2
p5715
V6532
p5716
sVspecial_bonus_unique_venomancer_3
p5717
V6979
p5718
sVabyssal_underlord_firestorm
p5719
V5613
p5720
sVspecial_bonus_mp_175
p5721
V6067
p5722
sg4151
Vundying zombie
p5723
sVmedusa_mystic_snake
p5724
V5505
p5725
sVweaver_shukuchi
p5726
V5290
p5727
sg1572
Vnpc_dota_creep_goodguys_ranged_diretide
p5728
sVitem_travel_boots
p5729
V48
p5730
sVspecial_bonus_unique_pudge_2
p5731
V6245
p5732
sVspecial_bonus_unique_pudge_3
p5733
V6506
p5734
sVspecial_bonus_unique_pudge_1
p5735
V6023
p5736
sVnpc_dota_hero_meepo
p5737
g1118
sVspecial_bonus_unique_tidehunter
p5738
V6151
p5739
sVitem_recipe_bloodthorn
p5740
V245
p5741
sg3027
g815
sVspecial_bonus_cast_range_150
p5742
V6056
p5743
sVviper_poison_attack
p5744
V5218
p5745
sVitem_stout_shield
p5746
V182
p5747
sg2769
g1579
sVlion_mana_drain
p5748
V5046
p5749
sVitem_recipe_armlet
p5750
V150
p5751
sVspecial_bonus_hp_regen_30
p5752
V6351
p5753
sg2951
g1267
sVspecial_bonus_intelligence_6
p5754
V5924
p5755
sVspecial_bonus_intelligence_7
p5756
V6117
p5757
sVbloodseeker_rupture
p5758
V5018
p5759
sVitem_lotus_orb
p5760
V226
p5761
sVspecial_bonus_cooldown_reduction_40
p5762
V6445
p5763
sVmorphling_adaptive_strike_agi
p5764
V5053
p5765
sVshadow_demon_disruption
p5766
V5421
p5767
sg1908
g5154
sg1927
g4413
sg1943
Vnpc_dota_hero_skeleton_king
p5768
sg5003
g1821
sVlycan_feral_impulse
p5769
V5397
p5770
sVitem_recipe_hurricane_pike
p5771
V262
p5772
sg1149
g2999
sVspecial_bonus_unique_enigma
p5773
V6065
p5774
sVspecial_bonus_unique_tidehunter_2
p5775
V6945
p5776
sVspecial_bonus_unique_tidehunter_3
p5777
V6946
p5778
sVspecial_bonus_unique_tidehunter_4
p5779
V6947
p5780
sVfaceless_void_time_walk
p5781
V5182
p5782
sg1668
g4417
sVspecial_bonus_unique_arc_warden_2
p5783
V6354
p5784
sg2192
g3401
sVphantom_lancer_phantom_edge
p5785
V5068
p5786
sVspecial_bonus_unique_timbersaw_3
p5787
V6949
p5788
sVspecial_bonus_unique_timbersaw_2
p5789
V6948
p5790
sVchen_hand_of_god
p5791
V5331
p5792
sVchen_penitence
p5793
V5328
p5794
sVspecial_bonus_spell_lifesteal_60
p5795
V6575
p5796
sg3404
g482
sVbloodseeker_bloodrage
p5797
V5015
p5798
sVshadow_shaman_shackles
p5799
V5080
p5800
sVspecial_bonus_unique_skywrath_5
p5801
V6921
p5802
sVspecial_bonus_unique_skywrath_4
p5803
V6886
p5804
sVspecial_bonus_unique_skywrath_3
p5805
V6885
p5806
sVspecial_bonus_unique_skywrath_2
p5807
V6884
p5808
sg3001
g1708
sVrazor_plasma_field
p5809
V5082
p5810
sg2463
g2683
sVitem_recipe_mask_of_madness
p5811
V171
p5812
sg2633
Vnpc_dota_hero_oracle
p5813
sVgreevil_phantom_strike
p5814
V5554
p5815
sg943
g2871
sVitem_recipe_necronomicon_2
p5816
V191
p5817
sVitem_recipe_necronomicon_3
p5818
V192
p5819
sVitem_recipe_ward_dispenser
p5820
V217
p5821
sVlegion_commander_moment_of_courage
p5822
V5597
p5823
sg364
g64
sVgreevil_natures_attendants
p5824
V5559
p5825
sVlone_druid_spirit_bear_demolish
p5826
V5420
p5827
sVspecial_bonus_hp_regen_14
p5828
V5913
p5829
sVitem_ancient_janggo
p5830
V185
p5831
sVtechies_land_mines
p5832
V5599
p5833
sg5768
g1943
sVmonkey_king_wukongs_command
p5834
V5725
p5835
sVspecial_bonus_day_vision_400
p5836
V6092
p5837
sVitem_staff_of_wizardry
p5838
V23
p5839
sVspecial_bonus_unique_dragon_knight_2
p5840
V6635
p5841
sVspecial_bonus_unique_dragon_knight_3
p5842
V7113
p5843
sVspecial_bonus_20_crit_15
p5844
V7045
p5845
sVspecial_bonus_unique_dragon_knight_4
p5846
V7114
p5847
sg474
g474
sVitem_energy_booster
p5848
V59
p5849
sg5408
g1064
sg4178
g2579
sg159
g158
sg1887
g5141
sg2361
g4437
sVspecial_bonus_unique_witch_doctor_5
p5850
V6996
p5851
sVspecial_bonus_unique_witch_doctor_4
p5852
V6995
p5853
sVspecial_bonus_unique_witch_doctor_3
p5854
V6524
p5855
sVspecial_bonus_unique_witch_doctor_2
p5856
V6298
p5857
sVspecial_bonus_unique_witch_doctor_1
p5858
V5998
p5859
sg590
g590
sVearthshaker_aftershock
p5860
V5025
p5861
sVspecial_bonus_unique_death_prophet
p5862
V6191
p5863
sVshredder_return_chakram
p5864
V5528
p5865
sVitem_aegis
p5866
V117
p5867
sVspecial_bonus_hp_325
p5868
V6423
p5869
sVnpc_dota_goodguys_tower1_mid
p5870
Vtower
p5871
sVenigma_demonic_conversion
p5872
V5147
p5873
sVnpc_dota_badguys_siege_upgraded_mega
p5874
g364
sg3608
g2503
sg1576
g3088
sVsniper_assassinate
p5875
V5157
p5876
sVroshan_halloween_shell
p5877
V9997
p5878
sVitem_recipe_echo_sabre
p5879
V251
p5880
sVspecial_bonus_attack_range_100
p5881
V5943
p5882
sVitem_recipe_orchid
p5883
V97
p5884
sVgreevil_shadow_strike
p5885
V5534
p5886
sVspecial_bonus_agility_16
p5887
V6169
p5888
sVspecial_bonus_agility_15
p5889
V5929
p5890
sVspecial_bonus_agility_14
p5891
V6170
p5892
sVspecial_bonus_agility_13
p5893
V6011
p5894
sVtinker_heat_seeking_missile
p5895
V5151
p5896
sVskeleton_king_reincarnation
p5897
V5089
p5898
sVspecial_bonus_agility_10
p5899
V6029
p5900
sVspecial_bonus_hp_250
p5901
V5903
p5902
sVspecial_bonus_unique_leshrac_4
p5903
V7101
p5904
sVspecial_bonus_unique_leshrac_1
p5905
V6063
p5906
sVspecial_bonus_unique_leshrac_3
p5907
V6672
p5908
sVspecial_bonus_unique_leshrac_2
p5909
V6240
p5910
sVabaddon_frostmourne
p5911
V5587
p5912
sVspecial_bonus_strength_8
p5913
V5982
p5914
sVspecial_bonus_strength_9
p5915
V6250
p5916
sVspecial_bonus_strength_6
p5917
V6048
p5918
sVspecial_bonus_strength_7
p5919
V6115
p5920
sVspecial_bonus_strength_4
p5921
V6005
p5922
sVspecial_bonus_strength_5
p5923
V5927
p5924
sVspecial_bonus_strength_3
p5925
V6002
p5926
sg3822
g1665
sVshadow_shaman_voodoo
p5927
V5079
p5928
sVspecial_bonus_hp_125
p5929
V5901
p5930
sVgreevil_miniboss_white_degen_aura
p5931
V5545
p5932
sVenchantress_untouchable
p5933
V5267
p5934
sg1118
g5737
sVspecial_bonus_unique_drow_ranger_3
p5935
V6280
p5936
sVspecial_bonus_unique_drow_ranger_2
p5937
V6209
p5938
sVspecial_bonus_unique_drow_ranger_1
p5939
V6202
p5940
sVspecial_bonus_spell_block_20
p5941
V7035
p5942
sVspecial_bonus_unique_drow_ranger_4
p5943
V6634
p5944
sVitem_lifesteal
p5945
V26
p5946
sg3583
g2334
sg232
g231
sVspecial_bonus_gold_income_30
p5947
V6026
p5948
sVspecial_bonus_mp_300
p5949
V5990
p5950
sVsatyr_hellcaller_unholy_aura
p5951
V5317
p5952
sVdragon_knight_dragon_blood
p5953
V5228
p5954
sVdark_willow_terrorize
p5955
V8340
p5956
sVnpc_dota_lycan_wolf1
p5957
Vlycan wolf
p5958
sg2978
g2543
sVnpc_dota_hero_luna
p5959
g1516
sg27
g26
sVspecial_bonus_unique_sniper_4
p5960
V6897
p5961
sVitem_armlet
p5962
V151
p5963
sg1548
g4888
sVspecial_bonus_unique_morphling_3
p5964
V6698
p5965
sVspecial_bonus_unique_morphling_2
p5966
V6225
p5967
sVspecial_bonus_unique_morphling_1
p5968
V6062
p5969
sVspecial_bonus_unique_morphling_7
p5970
V7056
p5971
sVspecial_bonus_unique_morphling_6
p5972
V7052
p5973
sVspecial_bonus_unique_morphling_5
p5974
V6927
p5975
sVspecial_bonus_unique_morphling_4
p5976
V6840
p5977
sVnpc_dota_visage_familiar1
p5978
Vfamiliar
p5979
sVspecial_bonus_unique_morphling_8
p5980
V7060
p5981
sVspecial_bonus_lifesteal_100
p5982
V6721
p5983
sVspecial_bonus_unique_sniper_3
p5984
V6896
p5985
sVspecial_bonus_magic_resistance_15
p5986
V6138
p5987
sVspecial_bonus_unique_sniper_2
p5988
V6198
p5989
sVspecial_bonus_magic_resistance_10
p5990
V5937
p5991
sVspecial_bonus_magic_resistance_12
p5992
V6299
p5993
sg3485
g1628
sVphantom_assassin_stifling_dagger
p5994
V5190
p5995
sg386
Vnpc_dota_greevil_miniboss_white
p5996
sVspecial_bonus_unique_vengeful_spirit_6
p5997
V7018
p5998
sVspecial_bonus_unique_vengeful_spirit_5
p5999
V6978
p6000
sVspecial_bonus_unique_vengeful_spirit_4
p6001
V6977
p6002
sVspecial_bonus_unique_vengeful_spirit_3
p6003
V6057
p6004
sVspecial_bonus_unique_vengeful_spirit_2
p6005
V6237
p6006
sVspecial_bonus_unique_vengeful_spirit_1
p6007
V6310
p6008
sg176
g175
sg1890
Vnpc_dota_hero_monkey_king
p6009
sVitem_ring_of_regen
p6010
V27
p6011
sVgyrocopter_rocket_barrage
p6012
V5361
p6013
sVvisage_stone_form_self_cast
p6014
V7116
p6015
sVitem_abyssal_blade
p6016
V208
p6017
sg5996
g386
sVspecial_bonus_cleave_60
p6018
V6631
p6019
sVitem_butterfly
p6020
V139
p6021
sVinvoker_attribute_bonus
p6022
V5690
p6023
sVkeeper_of_the_light_spirit_form
p6024
V5474
p6025
sVitem_dagon_4
p6026
V203
p6027
sVitem_dagon_5
p6028
V204
p6029
sVitem_dagon_2
p6030
V201
p6031
sVitem_dagon_3
p6032
V202
p6033
sVspecial_bonus_unique_lich_2
p6034
V6292
p6035
sVspecial_bonus_unique_lich_3
p6036
V6387
p6037
sVspecial_bonus_unique_lich_1
p6038
V6039
p6039
sg2364
g4424
sVinvoker_forge_spirit
p6040
V5387
p6041
sVtemplar_assassin_meld
p6042
V5195
p6043
sVspecial_bonus_unique_slark
p6044
V6147
p6045
sVnpc_dota_badguys_tower1_mid
p6046
Vtower
p6047
sVspecial_bonus_unique_crystal_maiden_4
p6048
V7042
p6049
sg81
g80
sg5239
g1766
sVomniknight_guardian_angel
p6050
V5266
p6051
sVearth_spirit_boulder_smash
p6052
V5608
p6053
sg5240
g1871
sVenigma_midnight_pulse
p6054
V5148
p6055
sVitem_bracer
p6056
V73
p6057
sg287
g286
sVspecial_bonus_unique_medusa
p6058
V6182
p6059
sg2509
g4122
sVitem_ring_of_aquila
p6060
V212
p6061
sVspecial_bonus_unique_queen_of_pain_2
p6062
V6856
p6063
sVtroll_warlord_battle_trance
p6064
V5512
p6065
sVitem_recipe_maelstrom
p6066
V165
p6067
sg2300
g4412
sg4501
g909
sVsatyr_hellcaller_shockwave
p6068
V5316
p6069
sVember_spirit_flame_guard
p6070
V5605
p6071
sVspecial_bonus_unique_axe
p6072
V6102
p6073
sVitem_recipe_moon_shard
p6074
V246
p6075
sVelder_titan_echo_stomp_spirit
p6076
V5590
p6077
sVpuck_illusory_orb
p6078
V5069
p6079
sVgreevil_miniboss_red_earthshock
p6080
V5540
p6081
sVitem_recipe_yasha
p6082
V169
p6083
sVitem_recipe_urn_of_shadows
p6084
V91
p6085
sVlich_chain_frost
p6086
V5137
p6087
sVnaga_siren_song_of_the_siren
p6088
V5470
p6089
sg2789
g2394
sg3241
g1601
sVspecial_bonus_unique_storm_spirit
p6090
V6167
p6091
sVslardar_slithereen_crush
p6092
V5115
p6093
sVinvoker_quas
p6094
V5370
p6095
sVgreevil_laguna_blade
p6096
V5535
p6097
sVantimage_spell_shield
p6098
V5005
p6099
sVspecial_bonus_attack_range_200
p6100
V5945
p6101
sVnpc_dota_goodguys_tower2_bot
p6102
Vtower
p6103
sg499
g5296
sg107
g106
sVkeeper_of_the_light_empty1
p6104
V5501
p6105
sVkeeper_of_the_light_empty2
p6106
V5502
p6107
sVspecial_bonus_mp_regen_4
p6108
V5916
p6109
sVspecial_bonus_mp_regen_5
p6110
V6410
p6111
sVspecial_bonus_mp_regen_6
p6112
V5980
p6113
sVspecial_bonus_mp_regen_1
p6114
V5915
p6115
sVspecial_bonus_mp_regen_2
p6116
V5961
p6117
sVspecial_bonus_mp_regen_3
p6118
V6160
p6119
sVdark_seer_vacuum
p6120
V5255
p6121
sVmudgolem_cloak_aura
p6122
V5688
p6123
sg6009
g1890
sVitem_blade_of_alacrity
p6124
V22
p6125
sVgreevil_diabolic_edict
p6126
V5532
p6127
sVkobold_taskmaster_speed_aura
p6128
V5293
p6129
sg1170
g4909
sVenigma_black_hole
p6130
V5149
p6131
sg757
g5660
sVundying_soul_rip
p6132
V5443
p6133
sVpuck_waning_rift
p6134
V5071
p6135
sVspecial_bonus_unique_riki_3
p6136
V6865
p6137
sg5567
Vmega ranged creep
p6138
sVnpc_dota_badguys_melee_rax_top
p6139
g1800
sVitem_recipe_bracer
p6140
V72
p6141
sVstorm_spirit_overload
p6142
V5100
p6143
sVdisruptor_static_storm
p6144
V5461
p6145
sVterrorblade_sunder
p6146
V5622
p6147
sVspecial_bonus_corruption_4
p6148
V7011
p6149
sVphoenix_icarus_dive
p6150
V5623
p6151
sVforged_spirit_melting_strike
p6152
V5388
p6153
sg240
g239
sVcourier_go_to_secretshop
p6154
V5492
p6155
sVitem_blink
p6156
V1
sVspecial_bonus_vision_200
p6157
V6228
p6158
sg4731
g1134
sVitem_soul_ring
p6159
V178
p6160
sVarc_warden_magnetic_field
p6161
V5678
p6162
sVgreevil_purification
p6163
V5561
p6164
sVslardar_sprint
p6165
V5114
p6166
sVcrystal_maiden_frostbite
p6167
V5127
p6168
sVitem_recipe_glimmer_cape
p6169
V253
p6170
sVnpc_dota_creep_goodguys_ranged_upgraded
p6171
g499
sVspecial_bonus_attack_speed_140
p6172
V6555
p6173
sVspecial_bonus_unique_chaos_knight
p6174
V6133
p6175
sVsandking_burrowstrike
p6176
V5102
p6177
sVnpc_dota_beastmaster_boar
p6178
Vboar
p6179
sVitem_cyclone
p6180
V100
p6181
sg5000
g1782
sVdrow_ranger_silence
p6182
V5020
p6183
sVnevermore_necromastery
p6184
V5062
p6185
sVspecial_bonus_unique_chen_4
p6186
V6535
p6187
sVspecial_bonus_unique_chen_2
p6188
V6260
p6189
sVtemplar_assassin_psionic_trap
p6190
V5197
p6191
sVvengefulspirit_wave_of_terror
p6192
V5124
p6193
sVspecial_bonus_unique_chen_1
p6194
V6259
p6195
sVspecial_bonus_intelligence_12
p6196
V5926
p6197
sVspecial_bonus_unique_huskar_2
p6198
V6380
p6199
sVspecial_bonus_intelligence_10
p6200
V5965
p6201
sVspecial_bonus_unique_phantom_lancer_4
p6202
V6850
p6203
sVspecial_bonus_intelligence_16
p6204
V6332
p6205
sVspecial_bonus_intelligence_14
p6206
V6567
p6207
sVcourier_return_stash_items
p6208
V5207
p6209
sVsandking_sand_storm
p6210
V5103
p6211
sg1516
g5959
sVspawnlord_master_stomp
p6212
V6270
p6213
sVdark_willow_cursed_crown
p6214
V6342
p6215
sVspecial_bonus_agility_20
p6216
V5962
p6217
sVspecial_bonus_agility_25
p6218
V6150
p6219
sVtechies_focused_detonate
p6220
V5635
p6221
sVspecial_bonus_unique_monkey_king
p6222
V6303
p6223
sVvengefulspirit_nether_swap
p6224
V5125
p6225
sVitem_basher
p6226
V143
p6227
sg4356
g2031
sVspecial_bonus_gold_income_25
p6228
V5957
p6229
sVshadow_demon_demonic_purge
p6230
V5425
p6231
sVspecial_bonus_gold_income_20
p6232
V6008
p6233
sVnpc_dota_brewmaster_fire_3
p6234
Vfire
p6235
sVitem_tpscroll
p6236
V46
p6237
sVogre_magi_ignite
p6238
V5439
p6239
sg1798
g4560
sVspecial_bonus_attack_range_50
p6240
V5992
p6241
sVspecial_bonus_unique_terrorblade_3
p6242
V6943
p6243
sVspecial_bonus_unique_terrorblade_2
p6244
V6942
p6245
sVbane_fiends_grip
p6246
V5013
p6247
sg4998
Vfire
p6248
sVspecial_bonus_unique_pugna_3
p6249
V6403
p6250
sg3428
Vroshling
p6251
sg5813
g2633
sVtusk_walrus_punch
p6252
V5568
p6253
sVitem_refresher_shard
p6254
V260
p6255
sVspecial_bonus_unique_broodmother_1
p6256
V6257
p6257
sVspecial_bonus_unique_broodmother_2
p6258
V6258
p6259
sVspecial_bonus_unique_broodmother_3
p6260
V6361
p6261
sVspecial_bonus_unique_broodmother_4
p6262
V6362
p6263
sg837
g3214
sVspecial_bonus_hp_800
p6264
V6905
p6265
sVitem_smoke_of_deceit
p6266
V188
p6267
sVspecial_bonus_cast_range_175
p6268
V6120
p6269
sVspecial_bonus_mp_200
p6270
V6094
p6271
sg2135
g4995
sVitem_vladmir
p6272
V81
p6273
sg2157
Vnpc_dota_hero_tidehunter
p6274
sVtemplar_assassin_psi_blades
p6275
V5196
p6276
sVgreevil_miniboss_orange_light_strike_array
p6277
V5573
p6278
sVspecial_bonus_unique_bristleback
p6279
V6083
p6280
sg276
g275
sVnpc_dota_beastmaster_hawk_1
p6281
Vhawk
p6282
sVwitch_doctor_death_ward
p6283
V5141
p6284
sVrubick_telekinesis_land
p6285
V5449
p6286
sVchen_test_of_faith
p6287
V5329
p6288
sg3119
g2345
sVvisage_gravekeepers_cloak
p6289
V5482
p6290
sVgreevil_miniboss_white_purification
p6291
V5544
p6292
sVnpc_dota_beastmaster_hawk_4
p6293
Vhawk
p6294
sVnaga_siren_rip_tide
p6295
V5469
p6296
sg5728
g1572
sVspecial_bonus_unique_viper_4
p6297
V6820
p6298
sVgreevil_rot
p6299
V5564
p6300
sVspecial_bonus_unique_viper_1
p6301
V6156
p6302
sg5528
g2429
sVspecial_bonus_unique_viper_3
p6303
V6819
p6304
sVspecial_bonus_unique_viper_2
p6305
V6165
p6306
sg6274
g2157
sg4459
g574
sg3068
g628
sg2662
g775
sVkeeper_of_the_light_spirit_form_illuminate_end
p6307
V5503
p6308
sVmirana_leap
p6309
V5050
p6310
sVdeath_prophet_exorcism
p6311
V5093
p6312
sVspecial_bonus_cooldown_reduction_65
p6313
V7109
p6314
sg2507
g2507
sg1705
g4663
sVviper_nethertoxin
p6315
V5219
p6316
sVitem_kaya
p6317
V259
p6318
sVitem_claymore
p6319
V5
sValpha_wolf_critical_strike
p6320
V5308
p6321
sVspecial_bonus_unique_clockwerk
p6322
V5977
p6323
sg2561
g4826
sVitem_platemail
p6324
V9
sVspecial_bonus_unique_night_stalker_2
p6325
V6704
p6326
sValchemist_chemical_rage
p6327
V5369
p6328
s.