(dp1
Vitem_satanic
p2
V156
p3
sVitem_recipe_helm_of_the_dominator
p4
V163
p5
sVtiny_avalanche
p6
V5106
p7
sVdoom_bringer_devour
p8
V5339
p9
sVspecial_bonus_cast_range_300
p10
V6213
p11
sVitem_eagle
p12
V52
p13
sVtinker_march_of_the_machines
p14
V5152
p15
sVbig_thunder_lizard_frenzy
p16
V5333
p17
sVitem_recipe_null_talisman
p18
V76
p19
sVitem_magic_wand
p20
V36
p21
sVlina_dragon_slave
p22
V5040
p23
sVnpc_dota_hero_abyssal_underlord
p24
Vunderlord
p25
sVnpc_dota_broodmother_spiderling
p26
Vspiderling
p27
sVspecial_bonus_unique_windranger_3
p28
V6562
p29
sVspecial_bonus_unique_windranger_2
p30
V6413
p31
sVspecial_bonus_unique_windranger_5
p32
V6993
p33
sVspecial_bonus_unique_windranger_4
p34
V6992
p35
sVrubick_telekinesis
p36
V5448
p37
sVpuck_dream_coil
p38
V5073
p39
sVspecial_bonus_attack_speed_250
p40
V7020
p41
sVphoenix sun
p42
Vnpc_dota_phoenix_sun
p43
sVitem_gloves
p44
V25
p45
sVspecial_bonus_unique_oracle
p46
V6206
p47
sVtidehunter_anchor_smash
p48
V5120
p49
sVursa_enrage
p50
V5360
p51
sVrazor_unstable_current
p52
V5084
p53
sVspecial_bonus_movement_speed_90
p54
V6706
p55
sVbatrider
p56
Vnpc_dota_hero_batrider
p57
sVelder_titan_natural_order_spirit
p58
V5750
p59
sVnpc_dota_hero_antimage
p60
Vanti-mage
p61
sVnpc_dota_goodguys_siege_upgraded_mega
p62
Vmega siege creep
p63
sVnpc_dota_goodguys_cny_beast
p64
Vradiant year beast
p65
sVspecial_bonus_unique_undying
p66
V6155
p67
sVdazzle_poison_touch
p68
V5233
p69
sVspecial_bonus_unique_dragon_knight
p70
V6090
p71
sVspecial_bonus_mp_regen_175
p72
V6926
p73
sVnpc_dota_hero_tiny
p74
Vtiny
p75
sVspecial_bonus_unique_venomancer
p76
V6058
p77
sVchen
p78
Vnpc_dota_hero_chen
p79
sVitem_talisman_of_evasion
p80
V32
p81
sVtreant protector
p82
Vnpc_dota_hero_treant
p83
sVitem_recipe_force_staff
p84
V101
p85
sVbane_enfeeble
p86
V5012
p87
sValchemist_goblins_greed
p88
V5368
p89
sVnpc_dota_warlock_golem_1
p90
Vwarlock golem
p91
sVnpc_dota_warlock_golem_2
p92
Vwarlock golem
p93
sVnpc_dota_warlock_golem_3
p94
Vwarlock golem
p95
sVinvoker_ghost_walk
p96
V5381
p97
sVspecial_bonus_respawn_reduction_60
p98
V6059
p99
sVnpc_dota_neutral_alpha_wolf
p100
Valpha wolf
p101
sVnpc_dota_juggernaut_healing_ward
p102
Vhealing ward
p103
sVoutworld devourer
p104
Vnpc_dota_hero_obsidian_destroyer
p105
sVmedusa_split_shot
p106
V5504
p107
sVterrorblade_conjure_image
p108
V5620
p109
sVgreevil_time_lock
p110
V5555
p111
sVitem_recipe_vanguard
p112
V124
p113
sVspawnlord_aura
p114
V6125
p115
sVnpc_dota_hero_terrorblade
p116
Vterrorblade
p117
sVnpc_dota_goodguys_tower2_mid
p118
Vtower
p119
sValchemist
p120
Vnpc_dota_hero_alchemist
p121
sVnpc_dota_neutral_centaur_outrunner
p122
Vcentaur courser
p123
sVpangolier_swashbuckle
p124
V6344
p125
sVspecial_bonus_hp_300
p126
V5993
p127
sVdark_seer_surge
p128
V5257
p129
sVnpc_dota_hero_dark_seer
p130
Vdark seer
p131
sVspecial_bonus_unique_warlock_4
p132
V6505
p133
sVspecial_bonus_unique_warlock_5
p134
V6982
p135
sVspecial_bonus_unique_warlock_6
p136
V6986
p137
sVriki_blink_strike
p138
V5143
p139
sVspecial_bonus_unique_warlock_1
p140
V6053
p141
sVspecial_bonus_unique_warlock_2
p142
V6054
p143
sVspecial_bonus_unique_warlock_3
p144
V6412
p145
sVsandking_caustic_finale
p146
V5104
p147
sVspecial_bonus_unique_slark_2
p148
V6892
p149
sVspecial_bonus_unique_slark_3
p150
V6893
p151
sVspecial_bonus_unique_slark_4
p152
V6894
p153
sVpudge_meat_hook
p154
V5075
p155
sVnpc_dota_hero_night_stalker
p156
Vnight stalker
p157
sVmonkey_king_boundless_strike
p158
V5716
p159
sVspecial_bonus_unique_night_stalker
p160
V6129
p161
sVnpc_dota_badguys_melee_rax_bot
p162
Vmelee barracks
p163
sVoracle_purifying_flames
p164
V5639
p165
sVabyssal_underlord_atrophy_aura
p166
V5615
p167
sVnpc_dota_looping_sound
p168
g168
sVitem_recipe_desolator
p169
V167
p170
sVnpc_dota_goodguys_tower2_top
p171
Vtower
p172
sVpudge
p173
Vnpc_dota_hero_pudge
p174
sVnpc_dota_neutral_enraged_wildkin
p175
Vwildwing ripper
p176
sVphantom lancer
p177
Vnpc_dota_hero_phantom_lancer
p178
sVgreevil_cold_snap
p179
V5530
p180
sVmagnataur_reverse_polarity
p181
V5521
p182
sVitem_rod_of_atos
p183
V206
p184
sVspecial_bonus_intelligence_20
p185
V5995
p186
sVitem_vanguard
p187
V125
p188
sVomniknight
p189
Vnpc_dota_hero_omniknight
p190
sVitem_heart
p191
V114
p192
sVaxe_culling_blade
p193
V5010
p194
sVspecial_bonus_unique_weaver_1
p195
V6200
p196
sVspecial_bonus_unique_weaver_2
p197
V6131
p198
sVspecial_bonus_unique_weaver_3
p199
V6988
p200
sVspecial_bonus_unique_weaver_4
p201
V6989
p202
sVspecial_bonus_unique_weaver_5
p203
V6990
p204
sVitem_hyperstone
p205
V55
p206
sVroquelaire
p207
Vnpc_dota_roquelaire
p208
sVitem_cloak
p209
V31
p210
sVspecial_bonus_hp_275
p211
V6311
p212
sVsniper_shrapnel
p213
V5154
p214
sVitem_recipe_mjollnir
p215
V157
p216
sVspecial_bonus_unique_tinker_3
p217
V6953
p218
sVspecial_bonus_unique_tinker_2
p219
V6952
p220
sVspecial_bonus_agility_30
p221
V6406
p222
sVitem_recipe_refresher
p223
V109
p224
sVnpc_dota_neutral_harpy_storm
p225
Vharpy stormcrafter
p226
sVspecial_bonus_unique_phantom_assassin
p227
V6192
p228
sVclockwerk
p229
Vnpc_dota_hero_rattletrap
p230
sVnpc_dota_warlock_golem_scepter_1
p231
Vwarlock golem
p232
sVitem_recipe_vladmir
p233
V80
p234
sVspecial_bonus_gold_income_50
p235
V6318
p236
sVancient stalker
p237
Vnpc_dota_neutral_jungle_stalker
p238
sVforest_troll_high_priest_mana_aura
p239
V5491
p240
sVitem_recipe_heart
p241
V113
p242
sVrubick
p243
Vnpc_dota_hero_rubick
p244
sVenchantress
p245
Vnpc_dota_hero_enchantress
p246
sVitem_recipe_ancient_janggo
p247
V184
p248
sVvenomancer_plague_ward
p249
V5180
p250
sVnpc_dota_broodmother_web
p251
Vspin web
p252
sVelder_titan_echo_stomp
p253
V5589
p254
sVspecial_bonus_attack_range_300
p255
V6051
p256
sVdrow_ranger_trueshot
p257
V5021
p258
sVitem_necronomicon_2
p259
V193
p260
sVitem_necronomicon_3
p261
V194
p262
sVspecial_bonus_unique_underlord
p263
V6019
p264
sVitem_gauntlets
p265
V13
p266
sVspecial_bonus_unique_spirit_breaker_2
p267
V6296
p268
sVspecial_bonus_unique_spirit_breaker_3
p269
V6543
p270
sVspecial_bonus_unique_spirit_breaker_1
p271
V6149
p272
sVcrafty megagreevil
p273
Vnpc_dota_greevil_miniboss_yellow
p274
sVdragon_knight_elder_dragon_form
p275
V5229
p276
sVitem_power_treads
p277
V63
p278
sVitem_javelin
p279
V7
sVspecial_bonus_unique_necrophos_2
p280
V6703
p281
sVpuck
p282
Vnpc_dota_hero_puck
p283
sVlycan_howl
p284
V5396
p285
sVfaceless_void_backtrack
p286
V5183
p287
sVblue_dragonspawn_sorcerer_evasion
p288
V5325
p289
sVnpc_dota_neutral_kobold_tunneler
p290
Vkobold soldier
p291
sVitem_recipe_blade_mail
p292
V126
p293
sVitem_spirit_vessel
p294
V267
p295
sVnpc_dota_hero_lion
p296
Vlion
p297
sVbatrider_flamebreak
p298
V5321
p299
sValpha_wolf_command_aura
p300
V5309
p301
sVitem_recipe_wraith_band
p302
V74
p303
sVnpc_dota_hero_shadow_demon
p304
Vshadow demon
p305
sVmedusa
p306
Vnpc_dota_hero_medusa
p307
sVroshan_spell_block
p308
V5213
p309
sVhill troll priest
p310
Vnpc_dota_neutral_forest_troll_high_priest
p311
sVtiny_toss
p312
V5107
p313
sVnpc_dota_lesser_eidolon
p314
Vlesser eidolon
p315
sVnpc_dota_badguys_siege_upgraded
p316
Vsuper siege creep
p317
sVspecial_bonus_attack_speed_80
p318
V6030
p319
sVviper_corrosive_skin
p320
V5220
p321
sVitem_orb_of_venom
p322
V181
p323
sVitem_recipe_nullifier
p324
V224
p325
sVspecial_bonus_unique_omniknight_1
p326
V5981
p327
sVspecial_bonus_unique_omniknight_2
p328
V6300
p329
sVspecial_bonus_unique_omniknight_3
p330
V6709
p331
sVspecial_bonus_unique_phantom_assassin_3
p332
V6848
p333
sVspecial_bonus_unique_phantom_assassin_2
p334
V6847
p335
sVnpc_dota_neutral_harpy_scout
p336
Vharpy scout
p337
sVgiant_wolf_critical_strike
p338
V5307
p339
sVcourier_transfer_items
p340
V5206
p341
sg337
g336
sVitem_mantle
p342
V15
p343
sVattribute_bonus
p344
V5002
p345
sVbounty_hunter_shuriken_toss
p346
V5285
p347
sVtinker_rearm
p348
V5153
p349
sVancient_apparition_chilling_touch
p350
V5347
p351
sVitem_recipe_sheepstick
p352
V95
p353
sVroshan_halloween_wave_of_force
p354
V9993
p355
sVbatrider_firefly
p356
V5322
p357
sVsatyr_trickster_purge
p358
V5314
p359
sVlone_druid_true_form_battle_cry
p360
V5417
p361
sVlone_druid_rabid
p362
V5413
p363
sVomniknight_repel
p364
V5264
p365
sg307
g306
sVclinkz
p366
Vnpc_dota_hero_clinkz
p367
sVtidehunter_ravage
p368
V5121
p369
sVnpc_dota_goodguys_siege_upgraded
p370
Vsuper siege creep
p371
sVdeath_prophet_carrion_swarm
p372
V5090
p373
sVitem_helm_of_iron_will
p374
V6
sVwisp_spirits_out
p375
V5493
p376
sVenchantress_impetus
p377
V5270
p378
sVitem_mekansm
p379
V79
p380
sVnpc_dota_hero_sniper
p381
Vsniper
p382
sVspecial_bonus_movement_speed_60
p383
V6373
p384
sVnecronomicon warrior
p385
Vnpc_dota_necronomicon_warrior_3
p386
sVitem_recipe_poor_mans_shield
p387
V70
p388
sVspecial_bonus_cast_range_200
p389
V6114
p390
sVnpc_dota_hero_bloodseeker
p391
Vbloodseeker
p392
sVtinker_laser
p393
V5150
p394
sVbroodmother
p395
Vnpc_dota_hero_broodmother
p396
sVbrewmaster_earth_spell_immunity
p397
V5405
p398
sVcrystal_maiden_freezing_field
p399
V5129
p400
sVvenomancer_venomous_gale
p401
V5178
p402
sVcentaur_return
p403
V5516
p404
sVvisage_soul_assumption
p405
V5481
p406
sVnpc_dota_dire_eidolon
p407
Vdire eidolon
p408
sVspecial_bonus_lifesteal_20
p409
V6078
p410
sVspecial_bonus_lifesteal_25
p411
V6111
p412
sVearthshaker_enchant_totem
p413
V5024
p414
sVspecial_bonus_respawn_reduction_50
p415
V6269
p416
sVtechies_stasis_trap
p417
V5600
p418
sVzuus_thundergods_wrath
p419
V5113
p420
sVshredder_timber_chain
p421
V5525
p422
sVnight_stalker_crippling_fear
p423
V5276
p424
sVnpc_dota_creep_goodguys_melee_diretide
p425
Vdiretide ghoul
p426
sVzuus_lightning_bolt
p427
V5111
p428
sVhellbear
p429
Vnpc_dota_neutral_polar_furbolg_champion
p430
sVbroodmother_spawn_spiderite
p431
V5283
p432
sVitem_recipe_travel_boots_2
p433
V219
p434
sVspecial_bonus_unique_axe_3
p435
V6815
p436
sVspecial_bonus_unique_axe_2
p437
V6608
p438
sVitem_recipe_ethereal_blade
p439
V175
p440
sVspawnlord_master_freeze
p441
V6278
p442
sVitem_null_talisman
p443
V77
p444
sVitem_boots
p445
V29
p446
sVkobold foreman
p447
Vnpc_dota_neutral_kobold_taskmaster
p448
sVnpc_dota_hero_spirit_breaker
p449
Vspirit breaker
p450
sVnature's prophet
p451
Vnpc_dota_hero_furion
p452
sVlycan_shapeshift
p453
V5398
p454
sVspecial_bonus_attack_range_175
p455
V6186
p456
sVspecial_bonus_unique_outworld_devourer
p457
V6241
p458
sVspecial_bonus_attack_speed_160
p459
V6605
p460
sVspecial_bonus_unique_razor
p461
V6028
p462
sVitem_boots_of_elves
p463
V18
p464
sVgreevil_miniboss_red_overpower
p465
V5541
p466
sVspecial_bonus_unique_storm_spirit_3
p467
V6907
p468
sVspecial_bonus_unique_storm_spirit_2
p469
V6906
p470
sVnpc_dota_shadow_shaman_ward_1
p471
Vserpent ward
p472
sVspecial_bonus_unique_storm_spirit_5
p473
V6916
p474
sVspecial_bonus_unique_storm_spirit_4
p475
V6908
p476
sVundying_tombstone
p477
V5444
p478
sVspecial_bonus_intelligence_30
p479
V6060
p480
sVspecial_bonus_intelligence_35
p481
V6248
p482
sVitem_mithril_hammer
p483
V8
sVradiant's ancient
p484
Vnpc_dota_goodguys_fort
p485
sVhealing campfire
p486
Vnpc_dota_healing_campfire
p487
sVroshan_devotion
p488
V5217
p489
sVmagnus
p490
Vnpc_dota_hero_magnataur
p491
sVspecial_bonus_spell_amplify_3
p492
V6162
p493
sVspecial_bonus_spell_amplify_6
p494
V5996
p495
sVspecial_bonus_spell_amplify_5
p496
V5948
p497
sVspecial_bonus_spell_amplify_4
p498
V6015
p499
sVspecial_bonus_spell_amplify_8
p500
V5949
p501
sVnpc_dota_creep_badguys_melee_upgraded
p502
Vsuper melee creep
p503
sVspecial_bonus_gold_income_40
p504
V6301
p505
sVitem_demon_edge
p506
V51
p507
sVvenomancer
p508
Vnpc_dota_hero_venomancer
p509
sVbrewmaster_storm_dispel_magic
p510
V5408
p511
sVslardar_bash
p512
V5116
p513
sVcourier_take_stash_items
p514
V5208
p515
sVinvoker_empty2
p516
V5374
p517
sVitem_sange_and_yasha
p518
V154
p519
sVgreevil
p520
Vnpc_dota_greevil
p521
sVinvoker_empty1
p522
V5373
p523
sVspecial_bonus_mp_350
p524
V6254
p525
sVriki_permanent_invisibility
p526
V5144
p527
sVitem_enchanted_mango
p528
V216
p529
sVroshan_halloween_angry
p530
V9991
p531
sVspecial_bonus_unique_disruptor_3
p532
V6536
p533
sVspecial_bonus_unique_disruptor_2
p534
V6368
p535
sVspecial_bonus_unique_disruptor_5
p536
V6812
p537
sVspecial_bonus_unique_disruptor_4
p538
V6630
p539
sVwisp_spirits
p540
V5486
p541
sVlich_dark_ritual
p542
V5136
p543
sVshredder_return_chakram_2
p544
V5646
p545
sVspecial_bonus_undefined
p546
V6285
p547
sVenigma
p548
Vnpc_dota_hero_enigma
p549
sVitem_veil_of_discord
p550
V190
p551
sValchemist_unstable_concoction_throw
p552
V5367
p553
sVobsidian_destroyer_arcane_orb
p554
V5391
p555
sVlegion commander
p556
Vnpc_dota_hero_legion_commander
p557
sVphantom_assassin_blur
p558
V5192
p559
sVspecial_bonus_mp_225
p560
V6504
p561
sVspecial_bonus_intelligence_8
p562
V5925
p563
sVsatyr tormenter
p564
Vnpc_dota_neutral_satyr_hellcaller
p565
sVearth
p566
Vnpc_dota_brewmaster_earth_3
p567
sVspecial_bonus_exp_boost_5
p568
V5983
p569
sVbackdoor_protection
p570
V5350
p571
sVnpc_dota_goodguys_tower3_top
p572
Vtower
p573
sVitem_vitality_booster
p574
V61
p575
sVdire year beast
p576
Vnpc_dota_badguys_cny_beast
p577
sVspecial_bonus_unique_bristleback_3
p578
V6615
p579
sVspecial_bonus_unique_bristleback_2
p580
V6360
p581
sVspecial_bonus_attack_range_400
p582
V6307
p583
sVshadow_shaman_mass_serpent_ward
p584
V5081
p585
sVclinkz_wind_walk
p586
V5261
p587
sVitem_river_painter
p588
V1021
p589
sVspecial_bonus_unique_razor_3
p590
V6860
p591
sVspecial_bonus_unique_razor_2
p592
V6408
p593
sVspecial_bonus_unique_razor_4
p594
V6861
p595
sVnpc_dota_hero_earth_spirit
p596
Vearth spirit
p597
sVnpc_dota_neutral_ogre_magi
p598
Vogre frostmage
p599
sVnpc_dota_hero_lycan
p600
Vlycan
p601
sVmud_golem_hurl_boulder
p602
V5670
p603
sVitem_recipe_manta
p604
V146
p605
sVlone_druid_true_form_druid
p606
V5416
p607
sVitem_recipe_satanic
p608
V155
p609
sVspecial_bonus_unique_phoenix_4
p610
V6852
p611
sVspecial_bonus_unique_sven
p612
V6045
p613
sVspecial_bonus_unique_phoenix_2
p614
V6085
p615
sVspecial_bonus_unique_phoenix_3
p616
V6401
p617
sVspecial_bonus_unique_phoenix_1
p618
V6227
p619
sVearthshaker
p620
Vnpc_dota_hero_earthshaker
p621
sVthrow_coal
p622
V5578
p623
sVpugna_nether_blast
p624
V5186
p625
sVnpc_dota_hero_ancient_apparition
p626
Vancient apparition
p627
sVspecial_bonus_attack_speed_50
p628
V6020
p629
sVnpc_dota_hero_shadow_shaman
p630
Vshadow shaman
p631
sVelder_titan_return_spirit
p632
V5592
p633
sVbrittle greevil minion
p634
Vnpc_dota_greevil_minion_blue
p635
sVslardar_amplify_damage
p636
V5117
p637
sVspecial_bonus_unique_lone_druid_9
p638
V7036
p639
sVspecial_bonus_unique_lone_druid_8
p640
V6806
p641
sVspecial_bonus_unique_lone_druid_5
p642
V6508
p643
sVspecial_bonus_unique_lone_druid_4
p644
V6268
p645
sVspecial_bonus_unique_lone_druid_7
p646
V6680
p647
sVspecial_bonus_unique_lone_druid_6
p648
V6679
p649
sVspecial_bonus_unique_lone_druid_1
p650
V6261
p651
sVluna_moon_glaive
p652
V5223
p653
sVspecial_bonus_unique_lone_druid_3
p654
V6263
p655
sVspecial_bonus_unique_lone_druid_2
p656
V6262
p657
sVnpc_dota_halloween_chaos_unit
p658
g658
sVshadow_demon_shadow_poison_release
p659
V5424
p660
sVkeeper of the light
p661
Vnpc_dota_hero_keeper_of_the_light
p662
sVforged spirit
p663
Vnpc_dota_invoker_forged_spirit
p664
sVspecial_bonus_unique_legion_commander
p665
V6218
p666
sVspecial_bonus_unique_phantom_lancer
p667
V6146
p668
sVfell spirit
p669
Vnpc_dota_neutral_fel_beast
p670
sVgreevil_blade_fury
p671
V5553
p672
sVitem_silver_edge
p673
V249
p674
sg246
g245
sVspecial_bonus_unique_earth_spirit
p675
V6203
p676
sVhellbear smasher
p677
Vnpc_dota_neutral_polar_furbolg_ursa_warrior
p678
sVitem_monkey_king_bar
p679
V135
p680
sVspecial_bonus_unique_meepo_2
p681
V6689
p682
sVspecial_bonus_unique_clinkz_3
p683
V6620
p684
sVspecial_bonus_unique_clinkz_2
p685
V6231
p686
sVspecial_bonus_unique_clinkz_1
p687
V6104
p688
sVtechies
p689
Vnpc_dota_hero_techies
p690
sVspecial_bonus_movement_speed_75
p691
V6355
p692
sg178
g177
sVabaddon_borrowed_time
p693
V5588
p694
sVhill troll
p695
Vnpc_dota_neutral_dark_troll
p696
sVmedusa_mana_shield
p697
V5506
p698
sVnpc_dota_hero_lich
p699
Vlich
p700
sVitem_arcane_boots
p701
V180
p702
sVitem_recipe_sange_and_yasha
p703
V153
p704
sVnpc_dota_hero_invoker
p705
Vinvoker
p706
sVgreevil_flesh_golem
p707
V5562
p708
sVwarlock_golem_flaming_fists
p709
V5166
p710
sVneutral_spell_immunity
p711
V5303
p712
sVgreater boar
p713
Vnpc_dota_beastmaster_greater_boar
p714
sVitem_relic
p715
V54
p716
sVsniper_headshot
p717
V5155
p718
sVremote mine
p719
Vnpc_dota_techies_remote_mine
p720
sVnpc_dota_hero_nyx_assassin
p721
Vnyx assassin
p722
sVviper
p723
Vnpc_dota_hero_viper
p724
sVnpc_dota_broodmother_spiderite
p725
Vspiderite
p726
sVitem_solar_crest
p727
V229
p728
sVspecial_bonus_lifesteal_30
p729
V6121
p730
sVforest_troll_high_priest_heal
p731
V5318
p732
sVspecial_bonus_unique_huskar_3
p733
V6655
p734
sg75
g74
sVitem_ghost
p735
V37
p736
sVpugna_life_drain
p737
V5189
p738
sVnpc_dota_greevil_miniboss_purple
p739
Vnoxious megagreevil
p740
sVnpc_dota_badguys_siege
p741
Vsiege creep
p742
sVspecial_bonus_respawn_reduction_40
p743
V6066
p744
sg565
g564
sVspecial_bonus_respawn_reduction_45
p745
V6375
p746
sVnpc_dota_neutral_mud_golem_split
p747
Vshard golem
p748
sVnpc_dota_hero_juggernaut
p749
Vjuggernaut
p750
sVsand king
p751
Vnpc_dota_hero_sand_king
p752
sVmorphling_adaptive_strike_str
p753
V7000
p754
sVcentaur_double_edge
p755
V5515
p756
sVspecial_bonus_attack_damage_90
p757
V5968
p758
sVbrewmaster_primal_split
p759
V5403
p760
sVmelee barracks
p761
Vnpc_dota_goodguys_melee_rax_mid
p762
sVfaceless void
p763
Vnpc_dota_hero_faceless_void
p764
sVnpc_dota_greevil_miniboss_black
p765
Vnefarious megagreevil
p766
sVitem_bloodthorn
p767
V250
p768
sVdisruptor_glimpse
p769
V5459
p770
sVhuskar_life_break
p771
V5274
p772
sVspecial_bonus_unique_dazzle_1
p773
V6049
p774
sVitem_recipe_greater_crit
p775
V140
p776
sVpudge_flesh_heap
p777
V5074
p778
sVclever greevil minion
p779
Vnpc_dota_greevil_minion_yellow
p780
sg720
g719
sVweaver_the_swarm
p781
V5289
p782
sVcourier_burst
p783
V5210
p784
sVvengeful spirit
p785
Vnpc_dota_hero_vengefulspirit
p786
sVcourier_go_to_sideshop2
p787
V6334
p788
sVspecial_bonus_unique_troll_warlord_2
p789
V6958
p790
sVspecial_bonus_unique_troll_warlord_3
p791
V6959
p792
sVspecial_bonus_hp_regen_35
p793
V8351
p794
sVhoming missile
p795
Vnpc_dota_gyrocopter_homing_missile
p796
sVspecial_bonus_unique_troll_warlord_4
p797
V6960
p798
sVwarlock_golem_permanent_immolation
p799
V5167
p800
sVnpc_dota_hero_slardar
p801
Vslardar
p802
sVriki_tricks_of_the_trade
p803
V5145
p804
sVspecial_bonus_unique_ogre_magi
p805
V6183
p806
sVnpc_dota_hero_zuus
p807
Vzeus
p808
sVio
p809
Vnpc_dota_hero_wisp
p810
sVjuggernaut_blade_fury
p811
V5028
p812
sVspecial_bonus_hp_100
p813
V5900
p814
sVleshrac_lightning_storm
p815
V5243
p816
sVitem_branches
p817
V16
p818
sVwarlock_shadow_word
p819
V5163
p820
sVgreevil_leech_seed
p821
V5557
p822
sVnpc_dota_badguys_tower1_bot
p823
Vtower
p824
sVnpc_dota_creep_badguys_ranged_diretide
p825
Vdiretide crawler
p826
sVancient rumblehide
p827
Vnpc_dota_neutral_small_thunder_lizard
p828
sVnpc_dota_goodguys_healers
p829
Vshrine
p830
sVqueen of pain
p831
Vnpc_dota_hero_queenofpain
p832
sVspecial_bonus_unique_bounty_hunter
p833
V6018
p834
sVaxe_battle_hunger
p835
V5008
p836
sVbrewmaster_fire_permanent_immolation
p837
V5411
p838
sVdeath_prophet_spirit_siphon
p839
V5685
p840
sVearth_spirit_geomagnetic_grip
p841
V5610
p842
sg426
g425
sVnpc_dota_brewmaster_earth_2
p843
Vearth
p844
sg567
Vearth
p845
sVtombstone
p846
Vnpc_dota_unit_tombstone3
p847
sVtiny_toss_tree
p848
V6937
p849
sVnpc_dota_neutral_satyr_trickster
p850
Vsatyr banisher
p851
sVnpc_dota_greater_eidolon
p852
Vgreater eidolon
p853
sVhealing_campfire
p854
V5579
p855
sVitem_blades_of_attack
p856
V2
sVitem_broadsword
p857
V3
sVnpc_dota_goodguys_range_rax_mid
p858
Vranged barracks
p859
sVgreevil_miniboss_black_nightmare
p860
V5536
p861
sVitem_rapier
p862
V133
p863
sVnpc_dota_neutral_satyr_soulstealer
p864
Vsatyr mindstealer
p865
sVbrewmaster_drunken_haze
p866
V5401
p867
sVspecial_bonus_gold_income_70
p868
V6446
p869
sVspecial_bonus_unique_meepo_3
p870
V7027
p871
sVspecial_bonus_mp_500
p872
V6185
p873
sVitem_recipe_rod_of_atos
p874
V205
p875
sVbeastmaster_boar_poison
p876
V5171
p877
sVrubick_empty1
p878
V5453
p879
sVrubick_empty2
p880
V5454
p881
sVnpc_dota_badguys_fillers
p882
Vbuilding
p883
sVphantom assassin
p884
Vnpc_dota_hero_phantom_assassin
p885
sg865
g864
sVpudge_rot
p886
V5076
p887
sVwinter_wyvern_winters_curse
p888
V5654
p889
sVwindranger
p890
Vnpc_dota_hero_windrunner
p891
sVskywrath_mage_arcane_bolt
p892
V5581
p893
sVspecial_bonus_unique_elder_titan
p894
V6171
p895
sVitem_skadi
p896
V160
p897
sVgreevil_ice_wall
p898
V5547
p899
sVspecial_bonus_unique_death_prophet_2
p900
V6367
p901
sVspecial_bonus_unique_death_prophet_3
p902
V6628
p903
sVspecial_bonus_unique_death_prophet_4
p904
V6805
p905
sVgreevil_echo_slam
p906
V5558
p907
sg208
g207
sVspecial_bonus_cooldown_reduction_15
p908
V5951
p909
sVroshan_inherent_buffs
p910
V5216
p911
sVspecial_bonus_cooldown_reduction_10
p912
V6021
p913
sVspecial_bonus_cooldown_reduction_12
p914
V6190
p915
sVdazzle_shadow_wave
p916
V5235
p917
sVlegion_commander_press_the_attack
p918
V5596
p919
sVitem_river_painter4
p920
V1024
p921
sVfaceless_void_time_lock
p922
V5184
p923
sVvengefulspirit_magic_missile
p924
V5122
p925
sVlife_stealer_empty_1
p926
V5657
p927
sVlife_stealer_empty_2
p928
V5658
p929
sVlife_stealer_empty_3
p930
V5659
p931
sVlife_stealer_empty_4
p932
V5660
p933
sVnpc_dota_goodguys_tower3_bot
p934
Vtower
p935
sVwindrunner_focusfire
p936
V5133
p937
sVzuus_static_field
p938
V5112
p939
sVspirit_breaker_charge_of_darkness
p940
V5353
p941
sVspecial_bonus_unique_faceless_void
p942
V6128
p943
sVitem_recipe_dragon_lance
p944
V234
p945
sVkunkka
p946
Vnpc_dota_hero_kunkka
p947
sVitem_recipe_power_treads
p948
V62
p949
sg123
g122
sVtechies_minefield_sign
p950
V5644
p951
sVspecial_bonus_strength_40
p952
V6633
p953
sVshadow_demon_shadow_poison
p954
V5423
p955
sVspecial_bonus_unique_nevermore_1
p956
V6670
p957
sVspecial_bonus_unique_nevermore_2
p958
V6070
p959
sVspecial_bonus_unique_nevermore_3
p960
V6875
p961
sVspecial_bonus_unique_nevermore_4
p962
V6876
p963
sVspecial_bonus_unique_nevermore_5
p964
V6912
p965
sVspecial_bonus_cast_range_350
p966
V6930
p967
sVphoenix_sun_ray_toggle_move
p968
V5628
p969
sVspecial_bonus_attack_speed_45
p970
V6224
p971
sVspecial_bonus_attack_speed_40
p972
V6210
p973
sVroshan_halloween_fireball
p974
V10002
p975
sVjakiro_ice_path
p976
V5298
p977
sVnpc_dota_hero_necrolyte
p978
Vnecrophos
p979
sVspecial_bonus_unique_bloodseeker_4
p980
V6809
p981
sVnpc_dota_rattletrap_cog
p982
Vpower cog
p983
sVscout hawk
p984
Vnpc_dota_scout_hawk
p985
sVspecial_bonus_unique_bloodseeker_2
p986
V6356
p987
sVitem_orchid
p988
V98
p989
sVspecial_bonus_unique_bloodseeker_3
p990
V6357
p991
sVnpc_dota_greevil_minion_red
p992
Vvicious greevil minion
p993
sVtemplar_assassin_trap
p994
V5198
p995
sVitem_pers
p996
V69
p997
sVlycan_summon_wolves_invisibility
p998
V5500
p999
sVspecial_bonus_unique_meepo
p1000
V6288
p1001
sVhill troll berserker
p1002
Vnpc_dota_neutral_forest_troll_berserker
p1003
sVspecial_bonus_magic_resistance_20
p1004
V6000
p1005
sVspecial_bonus_movement_speed_40
p1006
V6093
p1007
sVspecial_bonus_movement_speed_45
p1008
V6249
p1009
sVmud golem
p1010
Vnpc_dota_neutral_mud_golem
p1011
sVspecial_bonus_unique_templar_assassin_6
p1012
V7058
p1013
sVspecial_bonus_unique_templar_assassin_5
p1014
V6940
p1015
sVmeepo_earthbind
p1016
V5430
p1017
sVspecial_bonus_unique_templar_assassin_3
p1018
V6938
p1019
sVspecial_bonus_unique_templar_assassin_2
p1020
V6545
p1021
sVnpc_dota_techies_stasis_trap
p1022
Vstasis trap
p1023
sVbroodmother_poison_sting
p1024
V5284
p1025
sVnpc_dota_weaver_swarm
p1026
Vbeetle
p1027
sg627
g626
sVmeepo_divided_we_stand
p1028
V5433
p1029
sVkunkka_tidebringer
p1030
V5032
p1031
sVshredder_reactive_armor
p1032
V5526
p1033
sVitem_river_painter2
p1034
V1022
p1035
sVgranite_golem_hp_aura
p1036
V5656
p1037
sVdisruptor_kinetic_field
p1038
V5460
p1039
sVmagnataur_empower
p1040
V5519
p1041
sVvisage_grave_chill
p1042
V5480
p1043
sVchaos_knight_chaos_bolt
p1044
V5426
p1045
sVitem_medallion_of_courage
p1046
V187
p1047
sVspecial_bonus_unique_ancient_apparition_1
p1048
V6214
p1049
sVspecial_bonus_unique_ancient_apparition_2
p1050
V6291
p1051
sVspecial_bonus_unique_ancient_apparition_3
p1052
V6352
p1053
sVspecial_bonus_unique_ancient_apparition_4
p1054
V6534
p1055
sVspecial_bonus_unique_windranger
p1056
V6144
p1057
sVspecial_bonus_unique_sand_king
p1058
V6207
p1059
sVcny2015_black_hole
p1060
V5663
p1061
sVmonkey_king_primal_spring_early
p1062
V5726
p1063
sVspecial_bonus_respawn_reduction_35
p1064
V6038
p1065
sVstorm_spirit_electric_vortex
p1066
V5099
p1067
sVspecial_bonus_respawn_reduction_30
p1068
V5964
p1069
sVinvoker_chaos_meteor
p1070
V5385
p1071
sVdeath_prophet_witchcraft
p1072
V5092
p1073
sVitem_tome_of_knowledge
p1074
V257
p1075
sVluna_lunar_blessing
p1076
V5224
p1077
sVnpc_dota_beastmaster_hawk
p1078
Vhawk
p1079
sVspecial_bonus_unique_wisp
p1080
V6265
p1081
sVnpc_dota_creep_badguys_melee_diretide
p1082
Vdiretide zombie
p1083
sVspecial_bonus_unique_wraith_king_2
p1084
V6088
p1085
sVspecial_bonus_unique_wraith_king_3
p1086
V6414
p1087
sVspecial_bonus_unique_wraith_king_1
p1088
V6201
p1089
sVspecial_bonus_unique_wraith_king_6
p1090
V6822
p1091
sVspecial_bonus_unique_wraith_king_4
p1092
V6566
p1093
sVspecial_bonus_unique_wraith_king_5
p1094
V6821
p1095
sVgiant wolf
p1096
Vnpc_dota_neutral_giant_wolf
p1097
sVskywrath_mage_mystic_flare
p1098
V5584
p1099
sVitem_buckler
p1100
V86
p1101
sVspecial_bonus_unique_arc_warden
p1102
V6287
p1103
sVabyssal_underlord_pit_of_malice
p1104
V5614
p1105
sVspecial_bonus_hp_regen_20
p1106
V6079
p1107
sVphoenix
p1108
Vnpc_dota_hero_phoenix
p1109
sVspecial_bonus_hp_regen_25
p1110
V6308
p1111
sVaxe
p1112
Vnpc_dota_hero_axe
p1113
sVitem_wind_lace
p1114
V244
p1115
sVspecial_bonus_spell_lifesteal_10
p1116
V6564
p1117
sVtemplar_assassin_refraction
p1118
V5194
p1119
sVspecial_bonus_attack_range_150
p1120
V5963
p1121
sVnpc_dota_hero_weaver
p1122
Vweaver
p1123
sVnpc_dota_neutral_mud_golem_split_doom
p1124
Vdoom shard
p1125
sVdisruptor_thunder_strike
p1126
V5458
p1127
sVtiny_craggy_exterior
p1128
V5108
p1129
sVwarlock_rain_of_chaos
p1130
V5165
p1131
sVitem_recipe_invis_sword
p1132
V183
p1133
sVcourier_return_to_base
p1134
V5205
p1135
sVtreant_living_armor
p1136
V5436
p1137
sVjuggernaut_omni_slash
p1138
V5030
p1139
sVlife_stealer_control
p1140
V5655
p1141
sVmirana_arrow
p1142
V5048
p1143
sVnight_stalker_darkness
p1144
V5278
p1145
sVspecial_bonus_attack_speed_100
p1146
V6037
p1147
sVgnoll_assassin_envenomed_weapon
p1148
V5296
p1149
sVnpc_dota_hero_winter_wyvern
p1150
Vwinter wyvern
p1151
sVitem_heavens_halberd
p1152
V210
p1153
sVnpc_dota_beastmaster_boar_4
p1154
Vboar
p1155
sVspecial_bonus_all_stats_5
p1156
V5921
p1157
sVkeeper_of_the_light_mana_leak
p1158
V5472
p1159
sVancient_apparition_ice_vortex
p1160
V5346
p1161
sVspectre_desolate
p1162
V5335
p1163
sVbear_empty2
p1164
V83
p1165
sVbear_empty1
p1166
V82
p1167
sVspecial_bonus_all_stats_7
p1168
V6074
p1169
sVspecial_bonus_attack_damage_100
p1170
V5979
p1171
sVgreevil_decrepify
p1172
V5531
p1173
sVspecial_bonus_unique_earthshaker
p1174
V6035
p1175
sVnpc_dota_greevil_miniboss_green
p1176
Vverdant megagreevil
p1177
sVroshan_halloween_burn
p1178
V9999
p1179
sVtusk
p1180
Vnpc_dota_hero_tusk
p1181
sVgreevil_poison_nova
p1182
V5546
p1183
sg131
g130
sVpugna
p1184
Vnpc_dota_hero_pugna
p1185
sVspecial_bonus_armor_10
p1186
V6004
p1187
sVspecial_bonus_unique_tinker
p1188
V6152
p1189
sVspecial_bonus_armor_12
p1190
V6286
p1191
sVspecial_bonus_armor_15
p1192
V6175
p1193
sg826
g825
sVnpc_dota_hero_mirana
p1194
Vmirana
p1195
sVdoom_bringer_scorched_earth
p1196
V5340
p1197
sVspecial_bonus_mp_400
p1198
V6321
p1199
sVastral spirit
p1200
Vnpc_dota_elder_titan_ancestral_spirit
p1201
sVearth_spirit_magnetize
p1202
V5612
p1203
sg597
g596
sVbane_brain_sap
p1204
V5011
p1205
sVitem_phase_boots
p1206
V50
p1207
sVroshling
p1208
Vnpc_dota_badguys_siege_diretide
p1209
sVgreevil_miniboss_green_living_armor
p1210
V5570
p1211
sVbroodmother_spin_web
p1212
V5280
p1213
sVwarlock golem
p1214
Vnpc_dota_warlock_golem_scepter_2
p1215
sVmud_golem_rock_destroy
p1216
V5667
p1217
sVvile greevil minion
p1218
Vnpc_dota_greevil_minion_black
p1219
sVogre_magi_multicast
p1220
V5441
p1221
sVeidolon
p1222
Vnpc_dota_eidolon
p1223
sVspecial_bonus_cleave_20
p1224
V6603
p1225
sVdrow_ranger_marksmanship
p1226
V5022
p1227
sVdoom_bringer_doom
p1228
V5342
p1229
sVspecial_bonus_cleave_25
p1230
V6801
p1231
sVpuck_phase_shift
p1232
V5072
p1233
sVitem_guardian_greaves
p1234
V231
p1235
sVitem_mask_of_madness
p1236
V172
p1237
sVitem_faerie_fire
p1238
V237
p1239
sVcentaur_khan_endurance_aura
p1240
V5294
p1241
sVtemplar_assassin_self_trap
p1242
V5199
p1243
sVnpc_dota_badguys_tower3_mid
p1244
Vtower
p1245
sVancient_apparition_ice_blast_release
p1246
V5349
p1247
sVnyx_assassin_burrow
p1248
V5666
p1249
sVspecial_bonus_cooldown_reduction_20
p1250
V5952
p1251
sVlich_frost_armor
p1252
V5135
p1253
sVearth_spirit_rolling_boulder
p1254
V5609
p1255
sVnecronomicon_archer_aoe
p1256
V5204
p1257
sVlegion_commander_duel
p1258
V5598
p1259
sVspecial_bonus_all_stats_20
p1260
V6309
p1261
sVnpc_dota_unit_undying_zombie
p1262
Vundying zombie
p1263
sVpugna_decrepify
p1264
V5187
p1265
sVspecial_bonus_unique_disruptor
p1266
V6215
p1267
sVitem_sphere
p1268
V123
p1269
sVobserver ward
p1270
Vnpc_dota_observer_wards
p1271
sVgyrocopter_flak_cannon
p1272
V5363
p1273
sVcny_beast_teleport
p1274
V5665
p1275
sg557
g556
sVnpc_dota_hero_tinker
p1276
Vtinker
p1277
sVitem_yasha
p1278
V170
p1279
sVsniper_take_aim
p1280
V5156
p1281
sVspecial_bonus_unique_wisp_5
p1282
V6924
p1283
sVspecial_bonus_unique_wisp_4
p1284
V6808
p1285
sVspecial_bonus_unique_wisp_3
p1286
V6659
p1287
sVspecial_bonus_unique_wisp_2
p1288
V6537
p1289
sVdark_willow_bedlam
p1290
V6340
p1291
sVitem_recipe_bloodstone
p1292
V120
p1293
sVnpc_dota_creep_goodguys_melee
p1294
Vmelee creep
p1295
sVspecial_bonus_attack_speed_70
p1296
V6444
p1297
sVspecial_bonus_magic_resistance_80
p1298
V6965
p1299
sVlone_druid_savage_roar_bear
p1300
V5687
p1301
sVgreevil_miniboss_yellow_ion_shell
p1302
V5542
p1303
sVitem_recipe_silver_edge
p1304
V248
p1305
sVspecial_bonus_unique_shadow_demon_4
p1306
V6873
p1307
sVspecial_bonus_unique_shadow_demon_5
p1308
V7002
p1309
sVspecial_bonus_unique_shadow_demon_2
p1310
V6293
p1311
sVspecial_bonus_unique_shadow_demon_3
p1312
V6542
p1313
sVspecial_bonus_unique_shadow_demon_1
p1314
V6208
p1315
sVnpc_dota_neutral_prowler_acolyte
p1316
Vancient prowler acolyte
p1317
sVsilencer_global_silence
p1318
V5380
p1319
sg853
g852
sVbroodmother_spawn_spiderlings
p1320
V5279
p1321
sVitem_clarity
p1322
V38
p1323
sVspecial_bonus_unique_luna_1
p1324
V6180
p1325
sVspecial_bonus_unique_puck
p1326
V6219
p1327
sVspecial_bonus_unique_luna_3
p1328
V6682
p1329
sVspecial_bonus_unique_luna_4
p1330
V7047
p1331
sVspecial_bonus_unique_luna_5
p1332
V7055
p1333
sVenchantress_natures_attendants
p1334
V5269
p1335
sVmonkey_king_primal_spring
p1336
V5724
p1337
sVitem_recipe_magic_wand
p1338
V35
p1339
sVitem_recipe_shivas_guard
p1340
V118
p1341
sVitem_force_staff
p1342
V102
p1343
sVtechies_suicide
p1344
V5601
p1345
sVspecial_bonus_unique_oracle_4
p1346
V6970
p1347
sVspecial_bonus_unique_oracle_2
p1348
V6540
p1349
sVspecial_bonus_unique_oracle_3
p1350
V6710
p1351
sVspecial_bonus_movement_speed_50
p1352
V6306
p1353
sVcny2015_sonic_wave
p1354
V5662
p1355
sVspecial_bonus_unique_treant
p1356
V6024
p1357
sVnecronomicon archer
p1358
Vnpc_dota_necronomicon_archer_1
p1359
sVclinkz_death_pact
p1360
V5262
p1361
sVnether ward
p1362
Vnpc_dota_pugna_nether_ward_2
p1363
sVitem_travel_boots_2
p1364
V220
p1365
sVspecial_bonus_lifesteal_10
p1366
V6158
p1367
sVundying_decay
p1368
V5442
p1369
sVnpc_dota_hero_target_dummy
p1370
Vtarget dummy
p1371
sVnpc_dota_hero_dragon_knight
p1372
Vdragon knight
p1373
sVancient black dragon
p1374
Vnpc_dota_neutral_black_dragon
p1375
sVnpc_dota_tusk_frozen_sigil4
p1376
Vfrozen sigil
p1377
sVearth_spirit_petrify
p1378
V5648
p1379
sVnpc_dota_tusk_frozen_sigil1
p1380
Vfrozen sigil
p1381
sVspecial_bonus_unique_timbersaw
p1382
V6223
p1383
sVnpc_dota_tusk_frozen_sigil2
p1384
Vfrozen sigil
p1385
sVspecial_bonus_respawn_reduction_25
p1386
V5954
p1387
sVwarlock_upheaval
p1388
V5164
p1389
sVspecial_bonus_respawn_reduction_20
p1390
V5953
p1391
sVlone_druid_spirit_bear_entangle
p1392
V5419
p1393
sVbounty_hunter_jinada
p1394
V5286
p1395
sVspecial_bonus_agility_8
p1396
V6014
p1397
sVnpc_dota_dark_willow_creature
p1398
g1398
sVtusk_frozen_sigil
p1399
V5567
p1400
sVancient primal stalker
p1401
Vnpc_dota_neutral_elder_jungle_stalker
p1402
sVgreater treant
p1403
Vnpc_dota_furion_treant_large
p1404
sg396
g395
sVspecial_bonus_spell_lifesteal_6
p1405
V6817
p1406
sVitem_flask
p1407
V39
p1408
sg766
g765
sVspecial_bonus_spell_lifesteal_8
p1409
V6565
p1410
sVnyx_assassin_unburrow
p1411
V5673
p1412
sVgeneric_hidden
p1413
V6251
p1414
sVslark_essence_shift
p1415
V5496
p1416
sVnpc_dota_creep_goodguys_melee_upgraded_mega
p1417
Vmega melee creep
p1418
sVitem_recipe_ring_of_aquila
p1419
V211
p1420
sVspecial_bonus_hp_regen_15
p1421
V5914
p1422
sVjuggernaut_healing_ward
p1423
V5029
p1424
sVspecial_bonus_hp_regen_12
p1425
V6730
p1426
sVleshrac_diabolic_edict
p1427
V5242
p1428
sVspecial_bonus_hp_regen_10
p1429
V5912
p1430
sVnecrolyte_sadist_stop
p1431
V6316
p1432
sVspecial_bonus_unique_undying_3
p1433
V6546
p1434
sVspecial_bonus_unique_undying_2
p1435
V6420
p1436
sVbrewmaster_thunder_clap
p1437
V5400
p1438
sVspecial_bonus_unique_undying_5
p1439
V6972
p1440
sVspecial_bonus_unique_undying_4
p1441
V6971
p1442
sVspecial_bonus_unique_doom_1
p1443
V6073
p1444
sVspecial_bonus_unique_doom_3
p1445
V6369
p1446
sVspecial_bonus_unique_doom_2
p1447
V6314
p1448
sVspecial_bonus_mp_1000
p1449
V6686
p1450
sVspecial_bonus_unique_doom_4
p1451
V6370
p1452
sVspecial_bonus_hp_125
p1453
V5901
p1454
sg726
g725
sg83
g82
sVstorm_spirit_ball_lightning
p1455
V5101
p1456
sVitem_recipe_crimson_guard
p1457
V243
p1458
sVitem_ward_sentry
p1459
V43
p1460
sVgreevil_maledict
p1461
V5533
p1462
sVlion_voodoo
p1463
V5045
p1464
sVhuskar_inner_vitality
p1465
V5271
p1466
sg859
Vnpc_dota_badguys_range_rax_mid
p1467
sVspecial_bonus_unique_puck_3
p1468
V6855
p1469
sVspecial_bonus_unique_puck_2
p1470
V6402
p1471
sVspecial_bonus_unique_puck_4
p1472
V7057
p1473
sVchaos_knight_phantasm
p1474
V5429
p1475
sVghost_frost_attack
p1476
V5301
p1477
sVitem_bottle
p1478
V41
p1479
sVspecial_bonus_unique_riki_5
p1480
V6867
p1481
sVspecial_bonus_unique_riki_4
p1482
V6866
p1483
sVspecial_bonus_attack_damage_55
p1484
V6396
p1485
sVspecial_bonus_unique_riki_1
p1486
V6330
p1487
sVspecial_bonus_attack_damage_50
p1488
V5941
p1489
sVspecial_bonus_unique_riki_2
p1490
V6193
p1491
sVbeastmaster
p1492
Vnpc_dota_hero_beastmaster
p1493
sVspecial_bonus_unique_tiny_4
p1494
V6934
p1495
sVspecial_bonus_unique_tiny_5
p1496
V7005
p1497
sVspecial_bonus_attack_damage_150
p1498
V6247
p1499
sVspecial_bonus_unique_tiny_2
p1500
V6932
p1501
sVspecial_bonus_unique_tiny_3
p1502
V6933
p1503
sg678
g677
sVkeeper_of_the_light_illuminate_end
p1504
V5477
p1505
sVvhoul assassin
p1506
Vnpc_dota_neutral_gnoll_assassin
p1507
sVspecial_bonus_night_vision_1000
p1508
V6888
p1509
sVspecial_bonus_armor_20
p1510
V6503
p1511
sg1027
g1026
sVnpc_dota_beastmaster_hawk_2
p1512
Vhawk
p1513
sVnpc_dota_beastmaster_hawk_3
p1514
Vhawk
p1515
sVtroll warlord
p1516
Vnpc_dota_hero_troll_warlord
p1517
sVspecial_bonus_unique_doom_5
p1518
V6371
p1519
sVlegion_commander_overwhelming_odds
p1520
V5595
p1521
sVspecial_bonus_mana_break_40
p1522
V6695
p1523
sVspecial_bonus_attack_speed_120
p1524
V6650
p1525
sVtiny_grow
p1526
V5109
p1527
sVitem_ward_dispenser
p1528
V218
p1529
sVbrewmaster_earth_pulverize
p1530
V5406
p1531
sVnpc_dota_badguys_tower2_mid
p1532
Vtower
p1533
sg1201
g1200
sVspectre_haunt
p1534
V5337
p1535
sVnpc_dota_creep_goodguys_melee_upgraded
p1536
Vsuper melee creep
p1537
sVspecial_bonus_mp_250
p1538
V6006
p1539
sVtreant_eyes_in_the_forest
p1540
V5649
p1541
sVphoenix_sun_ray_stop
p1542
V5627
p1543
sVlife_stealer_feast
p1544
V5250
p1545
sVspecial_bonus_unique_slardar_2
p1546
V6889
p1547
sVspecial_bonus_unique_slardar_3
p1548
V6890
p1549
sVspecial_bonus_unique_kunkka_3
p1550
V6666
p1551
sVspecial_bonus_unique_kunkka_2
p1552
V6385
p1553
sVspecial_bonus_unique_kunkka_4
p1554
V6667
p1555
sVpangolier_shield_crash
p1556
V6461
p1557
sVnpc_dota_target_dummy
p1558
g1558
sVspecial_bonus_gold_income_5
p1559
V5955
p1560
sVlifestealer
p1561
Vnpc_dota_hero_life_stealer
p1562
sVspecial_bonus_unique_templar_assassin_4
p1563
V6939
p1564
sVroshan_halloween_spell_block
p1565
V5618
p1566
sVspecial_bonus_cleave_15
p1567
V6845
p1568
sVnpc_dota_courier
p1569
Vcourier
p1570
sg43
g42
sVtusk_ice_shards
p1571
V5565
p1572
sVnpc_dota_neutral_rock_golem
p1573
Vancient rock golem
p1574
sg947
g946
sVspecial_bonus_cooldown_reduction_30
p1575
V6561
p1576
sVspecial_bonus_unique_dark_seer_3
p1577
V6624
p1578
sVspecial_bonus_unique_dark_seer_2
p1579
V6365
p1580
sVspecial_bonus_unique_dark_seer_4
p1581
V7046
p1582
sVgreevil_miniboss_blue_cold_feet
p1583
V5538
p1584
sVspecial_bonus_strength_25
p1585
V5984
p1586
sVnaga_siren_mirror_image
p1587
V5467
p1588
sVspecial_bonus_strength_20
p1589
V6080
p1590
sVnpc_dota_goodguys_range_rax_top
p1591
Vranged barracks
p1592
sVarc_warden_tempest_double
p1593
V5683
p1594
sVdazzle_shallow_grave
p1595
V5234
p1596
sVspecial_bonus_attack_speed_60
p1597
V5908
p1598
sVspecial_bonus_night_vision_400
p1599
V6920
p1600
sg1570
g1569
sVspecial_bonus_unique_pangolier_4
p1601
V9061
p1602
sVspecial_bonus_unique_pangolier_5
p1603
V9062
p1604
sVspecial_bonus_unique_pangolier_2
p1605
V6463
p1606
sVspecial_bonus_unique_pangolier_3
p1607
V9060
p1608
sVspecial_bonus_unique_enigma_3
p1609
V6649
p1610
sVspecial_bonus_unique_enigma_2
p1611
V6510
p1612
sVbatrider_flaming_lasso
p1613
V5323
p1614
sVnpc_dota_necronomicon_archer_2
p1615
g1358
sVearthshaker_echo_slam
p1616
V5026
p1617
sg1359
Vnecronomicon archer
p1618
sVspecial_bonus_unique_treant_2
p1619
V6531
p1620
sVspecial_bonus_unique_treant_3
p1621
V6955
p1622
sVcentaur conqueror
p1623
Vnpc_dota_neutral_centaur_khan
p1624
sVphoenix_sun_ray
p1625
V5626
p1626
sVspecial_bonus_unique_treant_4
p1627
V6956
p1628
sVspecial_bonus_unique_treant_5
p1629
V6957
p1630
sg176
g175
sVtidehunter_kraken_shell
p1631
V5119
p1632
sVkunkka_ghostship
p1633
V5035
p1634
sVitem_mystic_staff
p1635
V58
p1636
sg700
g699
sVmonkey_king_jingu_mastery
p1637
V5723
p1638
sVnpc_dota_ember_spirit_remnant
p1639
g1639
sVspecial_bonus_unique_batrider_1
p1640
V6087
p1641
sVspecial_bonus_unique_batrider_3
p1642
V6610
p1643
sVspecial_bonus_unique_batrider_2
p1644
V6229
p1645
sg832
g831
sVabyssal_underlord_dark_rift
p1646
V5616
p1647
sVspecial_bonus_unique_dazzle_2
p1648
V6232
p1649
sVspecial_bonus_unique_dazzle_3
p1650
V6528
p1651
sVspecial_bonus_unique_dazzle_4
p1652
V6626
p1653
sVqueenofpain_sonic_wave
p1654
V5176
p1655
sVitem_tango_single
p1656
V241
p1657
sVitem_maelstrom
p1658
V166
p1659
sVwildwing
p1660
Vnpc_dota_neutral_wildkin
p1661
sg315
g314
sVbig_thunder_lizard_wardrums_aura
p1662
V5682
p1663
sVwarlock_fatal_bonds
p1664
V5162
p1665
sVnpc_dota_roshan
p1666
Vroshan
p1667
sVkeeper_of_the_light_blinding_light
p1668
V5476
p1669
sVspecial_bonus_30_crit_2
p1670
V6851
p1671
sVitem_recipe_dagon_3
p1672
V198
p1673
sVdragon_knight_breathe_fire
p1674
V5226
p1675
sVspecial_bonus_movement_speed_20
p1676
V5918
p1677
sVspecial_bonus_movement_speed_25
p1678
V5919
p1679
sVarc_warden_spark_wraith
p1680
V5679
p1681
sVtornado
p1682
Vnpc_dota_enraged_wildkin_tornado
p1683
sVleshrac
p1684
Vnpc_dota_hero_leshrac
p1685
sVskywrath_mage_concussive_shot
p1686
V5582
p1687
sVitem_headdress
p1688
V94
p1689
sVsven_gods_strength
p1690
V5097
p1691
sVspecial_bonus_respawn_reduction_15
p1692
V5975
p1693
sVnecrolyte_death_pulse
p1694
V5158
p1695
sVspecial_bonus_unique_furion
p1696
V6084
p1697
sVsven_great_cleave
p1698
V5095
p1699
sVtreant_overgrowth
p1700
V5437
p1701
sVundying_tombstone_zombie_aura
p1702
V5445
p1703
sVitem_aether_lens
p1704
V232
p1705
sVspecial_bonus_spell_lifesteal_13
p1706
V6560
p1707
sVspecial_bonus_spell_lifesteal_15
p1708
V6550
p1709
sVnpc_dota_badguys_tower3_bot
p1710
Vtower
p1711
sVnight_stalker_hunter_in_the_night
p1712
V5277
p1713
sVshadow_shaman_ether_shock
p1714
V5078
p1715
sVphoenix_icarus_dive_stop
p1716
V5624
p1717
sVnpc_dota_wraith_king_skeleton_warrior
p1718
Vwraith king skeleton
p1719
sVnpc_dota_badguys_tower2_top
p1720
Vtower
p1721
sVfurion_wrath_of_nature
p1722
V5248
p1723
sVnpc_dota_hero_naga_siren
p1724
Vnaga siren
p1725
sVnpc_dota_hero_doom_bringer
p1726
Vdoom
p1727
sVnpc_dota_plasma_field
p1728
g1728
sVfurion_force_of_nature
p1729
V5247
p1730
sVitem_recipe_headdress
p1731
V93
p1732
sVmirana_invis
p1733
V5049
p1734
sVspecial_bonus_hp_600
p1735
V6377
p1736
sVitem_recipe_sphere
p1737
V122
p1738
sVrubick_hidden1
p1739
V5455
p1740
sVspecial_bonus_unique_rubick
p1741
V6041
p1742
sVrubick_hidden3
p1743
V5457
p1744
sVrubick_hidden2
p1745
V5456
p1746
sVlina_laguna_blade
p1747
V5043
p1748
sVinvoker_tornado
p1749
V5382
p1750
sVsilencer_last_word
p1751
V5379
p1752
sVnpc_dota_goodguys_siege_diretide
p1753
g1208
sVitem_recipe_pipe
p1754
V89
p1755
sg1562
g1561
sVspecial_bonus_unique_monkey_king_2
p1756
V6421
p1757
sVspecial_bonus_unique_monkey_king_3
p1758
V6696
p1759
sVspecial_bonus_unique_monkey_king_4
p1760
V6697
p1761
sVspecial_bonus_unique_monkey_king_5
p1762
V7024
p1763
sVspecial_bonus_unique_monkey_king_6
p1764
V7025
p1765
sVspecial_bonus_unique_monkey_king_7
p1766
V7038
p1767
sg601
g600
sVspecial_bonus_armor_3
p1768
V5930
p1769
sVspecial_bonus_armor_2
p1770
V6110
p1771
sVspecial_bonus_armor_5
p1772
V5932
p1773
sVspecial_bonus_armor_4
p1774
V5931
p1775
sVspecial_bonus_armor_7
p1776
V5970
p1777
sVspecial_bonus_armor_6
p1778
V5933
p1779
sVspecial_bonus_armor_9
p1780
V6136
p1781
sVspecial_bonus_armor_8
p1782
V5934
p1783
sVnpc_dota_creep_goodguys_ranged_upgraded_mega
p1784
Vmega ranged creep
p1785
sg1537
g502
sVitem_recipe_dagon
p1786
V103
p1787
sVnpc_dota_roshan_halloween
p1788
Vroshan
p1789
sg430
g429
sVnecronomicon_archer_mana_burn
p1790
V5203
p1791
sVspecial_bonus_unique_ancient_apparition_5
p1792
V6810
p1793
sVroshan_halloween_toss
p1794
V9995
p1795
sg696
g695
sVnpc_dota_hero_warlock
p1796
Vwarlock
p1797
sVabaddon_aphotic_shield
p1798
V5586
p1799
sVspecial_bonus_movement_speed_100
p1800
V6422
p1801
sVspecial_bonus_unique_spectre_5
p1802
V6903
p1803
sVspecial_bonus_unique_spectre_4
p1804
V6902
p1805
sVspecial_bonus_unique_spectre_3
p1806
V6901
p1807
sVspecial_bonus_unique_spectre_2
p1808
V6900
p1809
sVspecial_bonus_unique_jakiro_3
p1810
V6538
p1811
sVogre_magi_frost_armor
p1812
V5304
p1813
sVitem_recipe_lotus_orb
p1814
V221
p1815
sVspecial_bonus_attack_damage_45
p1816
V6253
p1817
sVitem_recipe_meteor_hammer
p1818
V222
p1819
sVspecial_bonus_attack_damage_40
p1820
V5940
p1821
sVnevermore_dark_lord
p1822
V5063
p1823
sVenraged_wildkin_tornado
p1824
V5312
p1825
sVnpc_dota_brewmaster_fire_3
p1826
Vfire
p1827
sVnpc_dota_zeus_cloud
p1828
Vnimbus
p1829
sg706
g705
sVtusk_walrus_kick
p1830
V5672
p1831
sVmedusa_stone_gaze
p1832
V5507
p1833
sVspecial_bonus_attack_speed_30
p1834
V5907
p1835
sVpugna_nether_ward
p1836
V5188
p1837
sVnpc_dota_creep_badguys_melee
p1838
Vmelee creep
p1839
sVspecial_bonus_cast_range_400
p1840
V6384
p1841
sVspecial_bonus_unique_jakiro_2
p1842
V6381
p1843
sVjakiro_macropyre
p1844
V5300
p1845
sVspecial_bonus_unique_beastmaster_4
p1846
V6612
p1847
sVspecial_bonus_unique_beastmaster_2
p1848
V6517
p1849
sVspecial_bonus_unique_beastmaster_3
p1850
V6611
p1851
sVdark_willow_shadow_realm
p1852
V6341
p1853
sVspecial_bonus_armor_30
p1854
V6645
p1855
sVmorphling_replicate
p1856
V5057
p1857
sVbrewmaster_storm_wind_walk
p1858
V5410
p1859
sVenigma_malefice
p1860
V5146
p1861
sVnpc_dota_venomancer_plague_ward_3
p1862
Vplague ward
p1863
sVnpc_dota_venomancer_plague_ward_2
p1864
Vplague ward
p1865
sVnpc_dota_venomancer_plague_ward_1
p1866
Vplague ward
p1867
sVblue_dragonspawn_overseer_evasion
p1868
V5326
p1869
sVnpc_dota_venomancer_plague_ward_4
p1870
Vplague ward
p1871
sVlina_fiery_soul
p1872
V5042
p1873
sVshadow_demon_soul_catcher
p1874
V5422
p1875
sVrazor_eye_of_the_storm
p1876
V5085
p1877
sVterrorblade_reflection
p1878
V5619
p1879
sVitem_desolator
p1880
V168
p1881
sVitem_manta
p1882
V147
p1883
sVkeeper_of_the_light_chakra_magic
p1884
V5473
p1885
sVnpc_dota_neutral_ogre_mauler
p1886
Vogre bruiser
p1887
sVkunkka_return
p1888
V5034
p1889
sVnpc_dota_troll_warlord_axe
p1890
g1890
sVboar
p1891
Vnpc_dota_beastmaster_boar_3
p1892
sVspecial_bonus_unique_tusk
p1893
V6194
p1894
sVspecial_bonus_hp_regen_7
p1895
V5966
p1896
sVspecial_bonus_hp_regen_6
p1897
V5969
p1898
sVspecial_bonus_hp_regen_5
p1899
V5910
p1900
sVspecial_bonus_hp_regen_4
p1901
V5909
p1902
sVspecial_bonus_unique_jakiro_4
p1903
V6661
p1904
sVspecial_bonus_hp_regen_8
p1905
V5911
p1906
sVinvoker_ice_wall
p1907
V5389
p1908
sVspecial_bonus_unique_alchemist
p1909
V6101
p1910
sVaxe_berserkers_call
p1911
V5007
p1912
sVspecial_bonus_unique_omniknight_4
p1913
V7010
p1914
sVspecial_bonus_evasion_10
p1915
V5971
p1916
sVshredder_whirling_death
p1917
V5524
p1918
sVspecial_bonus_unique_clockwerk_2
p1919
V6364
p1920
sVspecial_bonus_unique_alchemist_3
p1921
V6604
p1922
sVspecial_bonus_unique_silencer_4
p1923
V6880
p1924
sVspecial_bonus_unique_silencer_3
p1925
V6879
p1926
sVspecial_bonus_unique_alchemist_4
p1927
V7054
p1928
sg1892
Vboar
p1929
sVnpc_dota_beastmaster_boar_2
p1930
Vboar
p1931
sVdrow_ranger_frost_arrows
p1932
V5019
p1933
sVwisp_tether
p1934
V5485
p1935
sVnpc_dota_hero_skywrath_mage
p1936
Vskywrath mage
p1937
sVnevermore_shadowraze1
p1938
V5059
p1939
sVnevermore_shadowraze3
p1940
V5061
p1941
sVnevermore_shadowraze2
p1942
V5060
p1943
sVspecial_bonus_unique_queen_of_pain
p1944
V6407
p1945
sVkunkka_x_marks_the_spot
p1946
V5033
p1947
sVspecial_bonus_unique_lion
p1948
V6174
p1949
sVgreevil_shadow_wave
p1950
V5556
p1951
sVspecial_bonus_strength_30
p1952
V6708
p1953
sVdark_willow_bramble_maze
p1954
V6339
p1955
sVspecial_bonus_attack_speed_10
p1956
V6118
p1957
sVspecial_bonus_attack_speed_15
p1958
V6119
p1959
sVdeath_prophet_silence
p1960
V5091
p1961
sVspecial_bonus_magic_resistance_100
p1962
V6874
p1963
sVpangolier_gyroshell_stop
p1964
V6459
p1965
sg1263
Vnpc_dota_unit_undying_zombie_torso
p1966
sVitem_hurricane_pike
p1967
V263
p1968
sVnpc_dota_earth_spirit_stone
p1969
Vstone remnant
p1970
sVskeleton_king_hellfire_blast
p1971
V5086
p1972
sVember_spirit_fire_remnant
p1973
V5606
p1974
sVnpc_dota_hero_bristleback
p1975
Vbristleback
p1976
sVspirit_breaker_nether_strike
p1977
V5356
p1978
sVancient_apparition_ice_blast
p1979
V5348
p1980
sVsilencer_curse_of_the_silent
p1981
V5377
p1982
sVspecial_bonus_cast_range_250
p1983
V6161
p1984
sVnpc_dota_hero_drow_ranger
p1985
Vdrow ranger
p1986
sg1109
g1108
sVchaos_knight_chaos_strike
p1987
V5428
p1988
sVmorphling_morph_replicate
p1989
V5058
p1990
sVgreevil_magic_missile
p1991
V5529
p1992
sg1223
g1222
sVbane
p1993
Vnpc_dota_hero_bane
p1994
sVantimage_mana_void
p1995
V5006
p1996
sVbounty hunter
p1997
Vnpc_dota_hero_bounty_hunter
p1998
sVspecial_bonus_unique_lion_2
p1999
V6389
p2000
sVspecial_bonus_unique_lion_3
p2001
V6600
p2002
sVspecial_bonus_unique_lion_4
p2003
V6678
p2004
sVspirit_breaker_empowering_haste
p2005
V5354
p2006
sVarc warden
p2007
Vnpc_dota_hero_arc_warden
p2008
sVspecial_bonus_movement_speed_30
p2009
V6141
p2010
sVspecial_bonus_movement_speed_35
p2011
V6077
p2012
sVspecial_bonus_unique_sven_2
p2013
V6910
p2014
sVspecial_bonus_unique_sven_3
p2015
V6911
p2016
sVclinkz_searing_arrows
p2017
V5260
p2018
sVitem_river_painter3
p2019
V1023
p2020
sVgreevil_miniboss_yellow_surge
p2021
V5543
p2022
sVnpc_dota_badguys_range_rax_top
p2023
Vranged barracks
p2024
sVtornado_tempest
p2025
V5310
p2026
sVnecronomicon_warrior_sight
p2027
V5201
p2028
sVspecial_bonus_20_bash_2
p2029
V6025
p2030
sVitem_recipe_monkey_king_bar
p2031
V134
p2032
sVspecial_bonus_spell_amplify_20
p2033
V6236
p2034
sVpangolier_heartpiercer
p2035
V6346
p2036
sVspecial_bonus_spell_amplify_25
p2037
V6327
p2038
sVshrine
p2039
g829
sg485
g484
sVspecial_bonus_unique_juggernaut_2
p2040
V6662
p2041
sVspecial_bonus_unique_juggernaut_3
p2042
V7021
p2043
sVspecial_bonus_unique_bloodseeker
p2044
V6230
p2045
sVlone_druid_savage_roar
p2046
V5414
p2047
sVitem_bloodstone
p2048
V121
p2049
sVtroll_warlord_berserkers_rage
p2050
V5508
p2051
sVspecial_bonus_exp_boost_10
p2052
V5985
p2053
sVsandking_epicenter
p2054
V5105
p2055
sVspecial_bonus_exp_boost_15
p2056
V5986
p2057
sVember_spirit_searing_chains
p2058
V5603
p2059
sVspectre_reality
p2060
V5338
p2061
sVfurion_sprout
p2062
V5245
p2063
sg61
g60
sVobsidian_destroyer_essence_aura
p2064
V5393
p2065
sVgreevil_miniboss_sight
p2066
V5576
p2067
sVscorching megagreevil
p2068
Vnpc_dota_greevil_miniboss_orange
p2069
sg1721
g1710
sVnpc_dota_loot_greevil
p2070
Vthyg the giftsnatch
p2071
sVbeastmaster_primal_roar
p2072
V5177
p2073
sVtusk_ice_shards_stop
p2074
V5668
p2075
sVspecial_bonus_unique_winter_wyvern_2
p2076
V6297
p2077
sVspecial_bonus_unique_winter_wyvern_3
p2078
V6523
p2079
sVnecrolyte_heartstopper_aura
p2080
V5159
p2081
sVnpc_dota_stormspirit_remnant
p2082
g2082
sVgreevil_bloodlust
p2083
V5560
p2084
sVitem_ring_of_health
p2085
V56
p2086
sg1994
g1993
sVitem_recipe_hand_of_midas
p2087
V64
p2088
sg103
g102
sg450
g449
sVskeleton_king_vampiric_aura
p2089
V5087
p2090
sVspecial_bonus_hp_700
p2091
V6415
p2092
sVspecial_bonus_unique_silencer_2
p2093
V6878
p2094
sVitem_recipe_cyclone
p2095
V99
p2096
sg750
g749
sVomniknight_degen_aura
p2097
V5265
p2098
sVtechies_remote_mines_self_detonate
p2099
V5636
p2100
sVnecronomicon_warrior_mana_burn
p2101
V5202
p2102
sg408
g407
sVbane_nightmare_end
p2103
V5523
p2104
sVspecial_bonus_unique_skywrath
p2105
V6181
p2106
sVtoasty greevil minion
p2107
Vnpc_dota_greevil_minion_orange
p2108
sVpangolier
p2109
Vnpc_dota_hero_pangolier
p2110
sVelder titan
p2111
Vnpc_dota_hero_elder_titan
p2112
sg1402
g1401
sVroshan_halloween_levels
p2113
V10000
p2114
sVspecial_bonus_attack_damage_75
p2115
V5942
p2116
sVnpc_dota_templar_assassin_psionic_trap
p2117
Vpsionic trap
p2118
sVlycan_summon_wolves
p2119
V5395
p2120
sVlife_stealer_assimilate_eject
p2121
V5675
p2122
sVwitch_doctor_maledict
p2123
V5140
p2124
sVitem_recipe_abyssal_blade
p2125
V207
p2126
sg1373
g1372
sVspawnlord_master_bash
p2127
V6126
p2128
sVbristleback_viscous_nasal_goo
p2129
V5548
p2130
sVmorphling_morph_str
p2131
V5056
p2132
sVitem_aeon_disk
p2133
V256
p2134
sVancient_apparition_cold_feet
p2135
V5345
p2136
sVitem_reaver
p2137
V53
p2138
sg983
g982
sVspecial_bonus_evasion_12
p2139
V6239
p2140
sg664
g663
sVspecial_bonus_all_stats_15
p2141
V6135
p2142
sVspecial_bonus_all_stats_14
p2143
V6252
p2144
sVspecial_bonus_all_stats_10
p2145
V6168
p2146
sVspecial_bonus_all_stats_12
p2147
V6139
p2148
sVitem_echo_sabre
p2149
V252
p2150
sg65
g64
sVinvoker_alacrity
p2151
V5384
p2152
sVitem_helm_of_the_dominator
p2153
V164
p2154
sVhuskar_burning_spear
p2155
V5272
p2156
sg25
g24
sg621
g620
sVspecial_bonus_unique_lina_4
p2157
V6509
p2158
sVitem_recipe_basher
p2159
V142
p2160
sVspecial_bonus_unique_lina_1
p2161
V6212
p2162
sVspecial_bonus_unique_lina_2
p2163
V6313
p2164
sVspecial_bonus_unique_lina_3
p2165
V6388
p2166
sVundying_tombstone_zombie_deathstrike
p2167
V5446
p2168
sVnpc_dota_hero_abaddon
p2169
Vabaddon
p2170
sVtreant_leech_seed
p2171
V5435
p2172
sVnpc_dota_hero_ember_spirit
p2173
Vember spirit
p2174
sVabyssal_underlord_cancel_dark_rift
p2175
V5617
p2176
sVnpc_dota_neutral_kobold
p2177
Vkobold
p2178
sVitem_refresher
p2179
V110
p2180
sg670
g669
sVphoenix_launch_fire_spirit
p2181
V5631
p2182
sg1517
g1516
sVspecial_bonus_evasion_15
p2183
V5972
p2184
sVcourier_shield
p2185
V5209
p2186
sVsentry ward
p2187
Vnpc_dota_sentry_wards
p2188
sVspecial_bonus_evasion_25
p2189
V5974
p2190
sVitem_blight_stone
p2191
V240
p2192
sVspecial_bonus_evasion_20
p2193
V5973
p2194
sg291
g290
sVitem_crimson_guard
p2195
V242
p2196
sg802
g801
sVspecial_bonus_unique_silencer_5
p2197
V7048
p2198
sVshadow fiend
p2199
Vnpc_dota_hero_nevermore
p2200
sVspecial_bonus_unique_alchemist_2
p2201
V6350
p2202
sVnpc_dota_goodguys_tower4
p2203
Vtower
p2204
sVnpc_dota_beastmaster_boar_1
p2205
g1891
sVvengefulspirit_wave_of_terror
p2206
V5124
p2207
sVomniknight_purification
p2208
V5263
p2209
sVtimbersaw
p2210
Vnpc_dota_hero_shredder
p2211
sg985
g984
sVcny2015_chronosphere
p2212
V5664
p2213
sVspecial_bonus_mp_600
p2214
V6382
p2215
sVitem_recipe_heavens_halberd
p2216
V209
p2217
sVjakiro_liquid_fire
p2218
V5299
p2219
sVancient thunderhide
p2220
Vnpc_dota_neutral_big_thunder_lizard
p2221
sVqueenofpain_blink
p2222
V5174
p2223
sVterrorblade_metamorphosis
p2224
V5621
p2225
sVelder_titan_ancestral_spirit
p2226
V5591
p2227
sVogre magi
p2228
Vnpc_dota_hero_ogre_magi
p2229
sVgreevil_black_hole
p2230
V5569
p2231
sVspecial_bonus_mp_100
p2232
V6096
p2233
sg1467
Vranged barracks
p2234
sVspecial_bonus_unique_legion_commander_4
p2235
V6671
p2236
sVspecial_bonus_unique_legion_commander_3
p2237
V6526
p2238
sVspecial_bonus_unique_legion_commander_2
p2239
V6449
p2240
sVspecial_bonus_unique_phantom_lancer_3
p2241
V6849
p2242
sVspecial_bonus_unique_phantom_lancer_2
p2243
V6400
p2244
sVspecial_bonus_attack_damage_35
p2245
V6164
p2246
sVnpc_dota_dark_troll_warlord_skeleton_warrior
p2247
Vskeleton warrior
p2248
sVnpc_dota_hero_crystal_maiden
p2249
Vcrystal maiden
p2250
sVnpc_dota_hero_brewmaster
p2251
Vbrewmaster
p2252
sg883
Vnpc_dota_goodguys_fillers
p2253
sVinvoker_deafening_blast
p2254
V5390
p2255
sg2071
g2070
sVnpc_dota_badguys_fort
p2256
Vdire's ancient
p2257
sg1295
g1838
sVember_spirit_sleight_of_fist
p2258
V5604
p2259
sVspecial_bonus_unique_keeper_of_the_light_2
p2260
V6527
p2261
sVspecial_bonus_unique_keeper_of_the_light_3
p2262
V6665
p2263
sVnpc_dota_greevil_minion_green
p2264
Vbudding greevil minion
p2265
sVwisp_overcharge
p2266
V5487
p2267
sVnpc_dota_wisp_spirit
p2268
g2268
sVnpc_dota_goodguys_melee_rax_bot
p2269
Vmelee barracks
p2270
sVitem_meteor_hammer
p2271
V223
p2272
sVdark_seer_ion_shell
p2273
V5256
p2274
sVspecial_bonus_unique_troll_warlord
p2275
V6154
p2276
sVnaga_siren_song_of_the_siren_cancel
p2277
V5478
p2278
sVnpc_dota_visage_familiar3
p2279
Vfamiliar
p2280
sg57
g56
sVspecial_bonus_unique_faceless_void_4
p2281
V7001
p2282
sVaxe_counter_helix
p2283
V5009
p2284
sVclinkz_strafe
p2285
V5259
p2286
sVnpc_dota_visage_familiar2
p2287
Vfamiliar
p2288
sVnpc_dota_warlock_golem_scepter_3
p2289
g1214
sVursa_earthshock
p2290
V5357
p2291
sVspecial_bonus_unique_faceless_void_2
p2292
V6651
p2293
sVspecial_bonus_unique_faceless_void_3
p2294
V6807
p2295
sVdark_seer_wall_of_replica
p2296
V5258
p2297
sVobsidian_destroyer_mind_over_matter
p2298
V5684
p2299
sVslark_shadow_dance
p2300
V5497
p2301
sVwitch doctor
p2302
Vnpc_dota_hero_witch_doctor
p2303
sVundying_flesh_golem
p2304
V5447
p2305
sVitem_recipe_solar_crest
p2306
V227
p2307
sVphantom_lancer_doppelwalk
p2308
V5066
p2309
sVcentaur_stampede
p2310
V5517
p2311
sVabaddon_death_coil
p2312
V5585
p2313
sVspecial_bonus_unique_kunkka
p2314
V6089
p2315
sVspecial_bonus_unique_slardar
p2316
V6211
p2317
sVitem_lesser_crit
p2318
V149
p2319
sg2170
g2169
sVlife_stealer_consume
p2320
V5253
p2321
sVitem_dagon
p2322
V104
p2323
sVnpc_dota_greater_hawk
p2324
Vgreater hawk
p2325
sVspecial_bonus_spell_lifesteal_30
p2326
V6513
p2327
sg993
g992
sVitem_recipe_ring_of_basilius
p2328
V87
p2329
sVfaceless_void_chronosphere
p2330
V5185
p2331
sVbeastmaster_call_of_the_wild
p2332
V5169
p2333
sVcrystal_maiden_crystal_nova
p2334
V5126
p2335
sVlone_druid_true_form
p2336
V5415
p2337
sVember_spirit_activate_fire_remnant
p2338
V5607
p2339
sVspecial_bonus_unique_ursa
p2340
V6132
p2341
sg1661
g1660
sVspecial_bonus_unique_dark_seer
p2342
V6047
p2343
sVkeeper_of_the_light_recall
p2344
V5475
p2345
sVdisruptor
p2346
Vnpc_dota_hero_disruptor
p2347
sVspecial_bonus_exp_boost_25
p2348
V5987
p2349
sVslark_dark_pact
p2350
V5494
p2351
sVspecial_bonus_exp_boost_20
p2352
V6017
p2353
sVobsidian_destroyer_sanity_eclipse
p2354
V5394
p2355
sVdoom_bringer_infernal_blade
p2356
V5341
p2357
sVspirit bear
p2358
Vnpc_dota_lone_druid_bear1
p2359
sVitem_diffusal_blade
p2360
V174
p2361
sg1083
g1082
sg1986
g1985
sVskeleton_king_mortal_strike
p2362
V5088
p2363
sg662
g661
sVslark_pounce
p2364
V5495
p2365
sVnpc_dota_wraith_ghost
p2366
g2366
sg244
g243
sVhuskar
p2367
Vnpc_dota_hero_huskar
p2368
sVnpc_dota_beastmaster_axe
p2369
g2369
sVspecial_bonus_unique_elder_titan_2
p2370
V6378
p2371
sVspecial_bonus_unique_elder_titan_3
p2372
V6720
p2373
sVursa_overpower
p2374
V5358
p2375
sVitem_recipe_veil_of_discord
p2376
V189
p2377
sVnpc_dota_companion
p2378
g2378
sg305
g304
sVnpc_dota_badguys_tower1_top
p2379
Vtower
p2380
sg1195
g1194
sVitem_recipe_rapier
p2381
V132
p2382
sg577
g576
sVbroodmother_incapacitating_bite
p2383
V5281
p2384
sVspecial_bonus_unique_keeper_of_the_light
p2385
V6217
p2386
sVspecial_bonus_unique_zeus_3
p2387
V6518
p2388
sVspecial_bonus_unique_zeus_2
p2389
V6501
p2390
sVitem_ethereal_blade
p2391
V176
p2392
sVspecial_bonus_hp_400
p2393
V5976
p2394
sVspecial_bonus_attack_damage_65
p2395
V6142
p2396
sVspecial_bonus_hp_150
p2397
V5902
p2398
sVspecial_bonus_attack_damage_60
p2399
V6366
p2400
sVspecial_bonus_cast_range_75
p2401
V5947
p2402
sVcentaur_hoof_stomp
p2403
V5514
p2404
sVnpc_dota_techies_minefield_sign
p2405
g2405
sVmonkey_king_tree_dance
p2406
V5721
p2407
sVnpc_dota_goodguys_tower1_top
p2408
Vtower
p2409
sVcny_beast_force_attack
p2410
V5661
p2411
sVnpc_dota_witch_doctor_death_ward
p2412
Vdeath ward
p2413
sVnpc_dota_techies_land_mine
p2414
Vproximity mine
p2415
sg452
g451
sg1829
g1828
sVspecial_bonus_all_stats_8
p2416
V5923
p2417
sVspecial_bonus_unique_necrophos
p2418
V6010
p2419
sVspecial_bonus_agility_40
p2420
V6430
p2421
sVspecial_bonus_all_stats_4
p2422
V5920
p2423
sVlycan_summon_wolves_critical_strike
p2424
V5399
p2425
sVspecial_bonus_all_stats_6
p2426
V5922
p2427
sVkeeper_of_the_light_illuminate
p2428
V5471
p2429
sVweaver_geminate_attack
p2430
V5291
p2431
sVwisp_tether_break
p2432
V5489
p2433
sVnpc_dota_loadout_generic
p2434
g2434
sVitem_invis_sword
p2435
V152
p2436
sVgyrocopter_homing_missile
p2437
V5362
p2438
sVspecial_bonus_unique_brewmaster_2
p2439
V6359
p2440
sVspecial_bonus_unique_brewmaster_3
p2441
V6516
p2442
sg382
g381
sVnpc_dota_goodguys_melee_rax_top
p2443
Vmelee barracks
p2444
sVnyx_assassin_spiked_carapace
p2445
V5464
p2446
sVspecial_bonus_unique_brewmaster_4
p2447
V6614
p2448
sVnevermore_requiem
p2449
V5064
p2450
sVvisage
p2451
Vnpc_dota_hero_visage
p2452
sg2325
g2324
sVitem_magic_stick
p2453
V34
p2454
sVitem_glimmer_cape
p2455
V254
p2456
sVspecial_bonus_cooldown_reduction_50
p2457
V6804
p2458
sVtusk_snowball
p2459
V5566
p2460
sVitem_ogre_axe
p2461
V21
p2462
sVmonkey_king_untransform
p2463
V5722
p2464
sVdazzle
p2465
Vnpc_dota_hero_dazzle
p2466
sg1151
g1150
sVwisp_spirits_in
p2467
V5490
p2468
sVnpc_dota_badguys_tower4
p2469
Vtower
p2470
sValchemist_unstable_concoction
p2471
V5366
p2472
sVspecial_bonus_evasion_30
p2473
V6700
p2474
sVnpc_dota_brewmaster_storm_3
p2475
Vstorm
p2476
sVnpc_dota_brewmaster_storm_2
p2477
Vstorm
p2478
sVnpc_dota_brewmaster_storm_1
p2479
Vstorm
p2480
sVnpc_dota_hero_spectre
p2481
Vspectre
p2482
sVbeastmaster_wild_axes
p2483
V5168
p2484
sVnpc_dota_hero_death_prophet
p2485
Vdeath prophet
p2486
sVlife_stealer_infest
p2487
V5252
p2488
sVnpc_dota_goodguys_tower1_bot
p2489
Vtower
p2490
sVspecial_bonus_strength_14
p2491
V6281
p2492
sVspecial_bonus_strength_15
p2493
V6145
p2494
sg762
Vmelee barracks
p2495
sVspecial_bonus_strength_10
p2496
V6137
p2497
sVspecial_bonus_strength_12
p2498
V5928
p2499
sVsven
p2500
Vnpc_dota_hero_sven
p2501
sVnpc_dota_hero_slark
p2502
Vslark
p2503
sVitem_recipe_pers
p2504
V68
p2505
sVnpc_dota_furion_treant
p2506
Vtreant
p2507
sVitem_assault
p2508
V112
p2509
sg2482
g2481
sg2229
g2228
sVspectre_dispersion
p2510
V5336
p2511
sVspecial_bonus_night_vision_600
p2512
V7019
p2513
sVphantom_lancer_juxtapose
p2514
V5067
p2515
sVspecial_bonus_unique_lifestealer_3
p2516
V7012
p2517
sVspecial_bonus_unique_lifestealer_2
p2518
V6676
p2519
sg2501
g2500
sVitem_recipe_ultimate_scepter
p2520
V107
p2521
sVqueenofpain_scream_of_pain
p2522
V5175
p2523
sg2069
g2068
sVspecial_bonus_attack_speed_35
p2524
V6196
p2525
sVnpc_dota_neutral_ghost
p2526
Vghost
p2527
sVspecial_bonus_magic_resistance_40
p2528
V6663
p2529
sVnpc_dota_treant_eyes
p2530
g2530
sVmorphling_morph_agi
p2531
V5055
p2532
sVlife_stealer_rage
p2533
V5249
p2534
sg2415
g2414
sVriki
p2535
Vnpc_dota_hero_riki
p2536
sg2108
g2107
sg1219
g1218
sVvisage_summon_familiars_stone_form
p2537
V5484
p2538
sVkeeper_of_the_light_spirit_form_illuminate
p2539
V5479
p2540
sVitem_radiance
p2541
V137
p2542
sVnpc_dota_creep_goodguys_ranged
p2543
Vranged creep
p2544
sVjuggernaut_blade_dance
p2545
V5027
p2546
sVroshan_halloween_greater_bash
p2547
V9994
p2548
sVspecial_bonus_unique_earth_spirit_2
p2549
V6514
p2550
sVspecial_bonus_unique_earth_spirit_3
p2551
V6640
p2552
sVblue_dragonspawn_overseer_devotion_aura
p2553
V5327
p2554
sVspecial_bonus_unique_rubick_2
p2555
V6862
p2556
sVspecial_bonus_unique_rubick_3
p2557
V6863
p2558
sVspecial_bonus_unique_rubick_4
p2559
V6864
p2560
sVspecial_bonus_unique_rubick_5
p2561
V6870
p2562
sVspecial_bonus_movement_speed_10
p2563
V5958
p2564
sg1887
g1886
sVitem_recipe_oblivion_staff
p2565
V66
p2566
sVspecial_bonus_movement_speed_15
p2567
V5917
p2568
sVgreevil_fatal_bonds
p2569
V5552
p2570
sVspecial_bonus_unique_nyx
p2571
V6130
p2572
sg714
g713
sVcourier_go_to_sideshop
p2573
V6333
p2574
sVgreevil_miniboss_green_overgrowth
p2575
V5571
p2576
sVcentaur_khan_war_stomp
p2577
V5295
p2578
sVnpc_dota_hero_undying
p2579
Vundying
p2580
sg1685
g1684
sVnpc_dota_badguys_healers
p2581
g2039
sVspecial_bonus_spell_lifesteal_20
p2582
V6166
p2583
sVlion_finger_of_death
p2584
V5047
p2585
sVspecial_bonus_unique_medusa_4
p2586
V6803
p2587
sVspecial_bonus_unique_medusa_3
p2588
V6687
p2589
sVspecial_bonus_unique_medusa_2
p2590
V6392
p2591
sVspecial_bonus_unique_jakiro
p2592
V6064
p2593
sVancient prowler shaman
p2594
Vnpc_dota_neutral_prowler_shaman
p2595
sVearth_spirit_stone_caller
p2596
V5611
p2597
sVflying courier
p2598
Vnpc_dota_flying_courier
p2599
sVitem_moon_shard
p2600
V247
p2601
sVspecial_bonus_haste
p2602
V6629
p2603
sVnpc_dota_greevil_minion_purple
p2604
Vrotten greevil minion
p2605
sVitem_recipe_black_king_bar
p2606
V115
p2607
sVbounty_hunter_track
p2608
V5288
p2609
sVspecial_bonus_exp_boost_30
p2610
V6317
p2611
sVspecial_bonus_exp_boost_35
p2612
V6372
p2613
sVenchantress_enchant
p2614
V5268
p2615
sVlycan wolf
p2616
Vnpc_dota_lycan_wolf4
p2617
sg252
g251
sVcourier_transfer_items_to_other_player
p2618
V6328
p2619
sVchen_holy_persuasion
p2620
V5330
p2621
sVlich_frost_nova
p2622
V5134
p2623
sVspecial_bonus_unique_crystal_maiden_1
p2624
V6072
p2625
sVspecial_bonus_unique_crystal_maiden_3
p2626
V6520
p2627
sVspecial_bonus_unique_crystal_maiden_2
p2628
V6234
p2629
sg635
g634
sVitem_recipe_buckler
p2630
V85
p2631
sVitem_circlet
p2632
V20
p2633
sVitem_wraith_band
p2634
V75
p2635
sVmorphling
p2636
Vnpc_dota_hero_morphling
p2637
sVbeastmaster_hawk_invisibility
p2638
V5170
p2639
sVitem_belt_of_strength
p2640
V17
p2641
sVspecial_bonus_hp_regen_50
p2642
V6302
p2643
sVrazor
p2644
Vnpc_dota_hero_razor
p2645
sVspecial_bonus_unique_lifestealer
p2646
V6173
p2647
sVtroll_warlord_whirling_axes_ranged
p2648
V5509
p2649
sg1317
g1316
sg2480
g2477
sVspecial_bonus_unique_brewmaster
p2650
V6082
p2651
sVphoenix_fire_spirits
p2652
V5625
p2653
sVleshrac_pulse_nova
p2654
V5244
p2655
sVspecial_bonus_unique_ogre_magi_3
p2656
V7030
p2657
sg808
g807
sVblack_dragon_splash_attack
p2658
V5324
p2659
sVinvoker_wex
p2660
V5371
p2661
sVnpc_dota_goodguys_range_rax_bot
p2662
Vranged barracks
p2663
sg1493
g1492
sg740
g739
sVspecial_bonus_hp_500
p2664
V6235
p2665
sVspecial_bonus_attack_damage_12
p2666
V6159
p2667
sVspecial_bonus_attack_damage_10
p2668
V6095
p2669
sVspecial_bonus_attack_damage_15
p2670
V5938
p2671
sVnpc_dota_creep_badguys_melee_upgraded_mega
p2672
Vmega melee creep
p2673
sVitem_quelling_blade
p2674
V11
p2675
sVmeepo_poof
p2676
V5431
p2677
sVantimage_mana_break
p2678
V5003
p2679
sVitem_recipe_guardian_greaves
p2680
V230
p2681
sVroshan_slam
p2682
V5215
p2683
sVvenomancer_poison_nova
p2684
V5181
p2685
sVitem_chainmail
p2686
V4
sVchaos_knight_reality_rift
p2687
V5427
p2688
sVspecial_bonus_unique_magnus_5
p2689
V6691
p2690
sVspecial_bonus_unique_magnus_4
p2691
V6690
p2692
sVspecial_bonus_unique_magnus_3
p2693
V6507
p2694
sVspecial_bonus_unique_magnus_2
p2695
V6390
p2696
sg891
g890
sVdefault_attack
p2697
V5001
p2698
sVnpc_dota_creep_badguys_ranged
p2699
Vranged creep
p2700
sVitem_greater_crit
p2701
V141
p2702
sVchen_test_of_faith_teleport
p2703
V5522
p2704
sVgreevil_miniboss_orange_dragon_slave
p2705
V5572
p2706
sVancient granite golem
p2707
Vnpc_dota_neutral_granite_golem
p2708
sg764
g763
sVspecial_bonus_unique_naga_siren
p2709
V6205
p2710
sVmirana_starfall
p2711
V5051
p2712
sVmeepo_geostrike
p2713
V5432
p2714
sVcrystal_maiden_brilliance_aura
p2715
V5128
p2716
sVrubick_spell_steal
p2717
V5452
p2718
sVitem_nullifier
p2719
V225
p2720
sVnpc_dota_hero_dark_willow
p2721
Vdark willow
p2722
sVitem_recipe_butterfly
p2723
V138
p2724
sVitem_bfury
p2725
V145
p2726
sVrattletrap_rocket_flare
p2727
V5239
p2728
sVdazzle_weave
p2729
V5236
p2730
sVlina_light_strike_array
p2731
V5041
p2732
sVspecial_bonus_truestrike
p2733
V6922
p2734
sg190
g189
sVweaver_time_lapse
p2735
V5292
p2736
sVzuus_arc_lightning
p2737
V5110
p2738
sVdark_troll_warlord_raise_dead
p2739
V5306
p2740
sVbloodseeker_thirst
p2741
V5017
p2742
sg2580
g2579
sVnyx_assassin_mana_burn
p2743
V5463
p2744
sVspecial_bonus_unique_ember_spirit_1
p2745
V6172
p2746
sVriki_smoke_screen
p2747
V5142
p2748
sVspecial_bonus_unique_ember_spirit_3
p2749
V6647
p2750
sVlife_stealer_assimilate
p2751
V5671
p2752
sVspecial_bonus_unique_ember_spirit_5
p2753
V7051
p2754
sVspecial_bonus_unique_ember_spirit_4
p2755
V7050
p2756
sVitem_ring_of_basilius
p2757
V88
p2758
sVwinter_wyvern_splinter_blast
p2759
V5652
p2760
sVspecial_bonus_magic_resistance_50
p2761
V6641
p2762
sVnpc_dota_hero_templar_assassin
p2763
Vtemplar assassin
p2764
sVursa_fury_swipes
p2765
V5359
p2766
sVspecial_bonus_mp_125
p2767
V5904
p2768
sVspecial_bonus_unique_silencer
p2769
V6184
p2770
sg1574
g1573
sVspecial_bonus_attack_speed_20
p2771
V5906
p2772
sVfaceless_void_time_dilation
p2773
V5691
p2774
sVspecial_bonus_attack_speed_25
p2775
V6016
p2776
sVmorphling_morph
p2777
V5054
p2778
sVnpc_dota_badguys_tower2_bot
p2779
Vtower
p2780
sVitem_recipe_assault
p2781
V111
p2782
sg1719
g1718
sVitem_slippers
p2783
V14
p2784
sg2211
g2210
sVnpc_dota_greevil_miniboss_red
p2785
Vruthless megagreevil
p2786
sVitem_recipe_iron_talon
p2787
V238
p2788
sVnpc_dota_units_base
p2789
g2789
sVobsidian_destroyer_astral_imprisonment
p2790
V5392
p2791
sg1123
g1122
sVbeastmaster_inner_beast
p2792
V5172
p2793
sVspecial_bonus_cast_range_100
p2794
V6003
p2795
sVspecial_bonus_night_vision_500
p2796
V7022
p2797
sg297
g296
sVnyx_assassin_impale
p2798
V5462
p2799
sVgyrocopter_call_down
p2800
V5364
p2801
sVitem_tranquil_boots
p2802
V214
p2803
sVwindrunner_shackleshot
p2804
V5130
p2805
sVnpc_dota_shadow_shaman_ward_3
p2806
Vserpent ward
p2807
sVnpc_dota_shadow_shaman_ward_2
p2808
Vserpent ward
p2809
sVroshan_bash
p2810
V5214
p2811
sVitem_recipe_diffusal_blade
p2812
V173
p2813
sVfrozen megagreevil
p2814
Vnpc_dota_greevil_miniboss_blue
p2815
sValchemist_acid_spray
p2816
V5365
p2817
sVitem_hood_of_defiance
p2818
V131
p2819
sVbristleback_bristleback
p2820
V5550
p2821
sg631
g630
sVlone_druid_spirit_bear
p2822
V5412
p2823
sVblack_dragon_fireball
p2824
V5689
p2825
sVoracle_fates_edict
p2826
V5638
p2827
sVspecial_bonus_cooldown_reduction_25
p2828
V6222
p2829
sVitem_recipe_hood_of_defiance
p2830
V130
p2831
sVdragon_knight_dragon_tail
p2832
V5227
p2833
sVnpc_dota_lycan_wolf3
p2834
g2616
sVnpc_dota_lycan_wolf2
p2835
Vlycan wolf
p2836
sVitem_sobi_mask
p2837
V28
p2838
sg2617
Vlycan wolf
p2839
sVspecial_bonus_spell_amplify_12
p2840
V6326
p2841
sVspecial_bonus_spell_amplify_10
p2842
V5989
p2843
sVspecial_bonus_spell_amplify_15
p2844
V6055
p2845
sg117
g116
sVpolar_furbolg_ursa_warrior_thunder_clap
p2846
V5302
p2847
sVphoenix_supernova
p2848
V5630
p2849
sVtechies_remote_mines
p2850
V5602
p2851
sg2503
g2502
sVsven_warcry
p2852
V5096
p2853
sg1976
g1975
sVnpc_dota_badguys_melee_rax_mid
p2854
Vmelee barracks
p2855
sVspecial_bonus_intelligence_13
p2856
V6042
p2857
sVjakiro_dual_breath
p2858
V5297
p2859
sVspecial_bonus_unique_templar_assassin
p2860
V6071
p2861
sVspirit_breaker_greater_bash
p2862
V5355
p2863
sg311
g310
sVbatrider_sticky_napalm
p2864
V5320
p2865
sVspecial_bonus_exp_boost_40
p2866
V6447
p2867
sVitem_blade_mail
p2868
V127
p2869
sVitem_poor_mans_shield
p2870
V71
p2871
sVcourier_morph
p2872
V5642
p2873
sVnpc_dota_neutral_dark_troll_warlord
p2874
Vdark troll summoner
p2875
sVmonkey_king_mischief
p2876
V5719
p2877
sVfire
p2878
Vnpc_dota_brewmaster_fire_2
p2879
sVnpc_dota_brewmaster_fire_1
p2880
g2878
sVsilencer
p2881
Vnpc_dota_hero_silencer
p2882
sVspecial_bonus_hp_regen_40
p2883
V6022
p2884
sVstorm spirit
p2885
Vnpc_dota_hero_storm_spirit
p2886
sVgreevil_hook
p2887
V5563
p2888
sg121
g120
sVitem_recipe_mekansm
p2889
V78
p2890
sVitem_recipe_necronomicon
p2891
V105
p2892
sVnpc_dota_greevil_minion_white
p2893
Vblessed greevil minion
p2894
sVnpc_dota_badguys_range_rax_bot
p2895
Vranged barracks
p2896
sVviper_viper_strike
p2897
V5221
p2898
sVitem_recipe_aeon_disk
p2899
V255
p2900
sVspecial_bonus_mp_800
p2901
V6816
p2902
sg1363
Vnether ward
p2903
sVfiller_ability
p2904
V6226
p2905
sVinvoker_cold_snap
p2906
V5376
p2907
sVogre_magi_bloodlust
p2908
V5440
p2909
sVitem_shivas_guard
p2910
V119
p2911
sg2507
g2506
sVbane_nightmare
p2912
V5014
p2913
sg2466
g2465
sVcourier_go_to_enemy_secretshop
p2914
V6329
p2915
sVinvoker_exort
p2916
V5372
p2917
sVrubick_null_field
p2918
V5451
p2919
sVspecial_bonus_cast_range_50
p2920
V5946
p2921
sVspecial_bonus_hp_175
p2922
V6034
p2923
sg1215
Vwarlock golem
p2924
sVspecial_bonus_unique_underlord_2
p2925
V6967
p2926
sVspecial_bonus_unique_underlord_3
p2927
V6968
p2928
sVspecial_bonus_unique_underlord_4
p2929
V6969
p2930
sVroshan_halloween_candy
p2931
V9990
p2932
sVnpc_dota_hero_base
p2933
g2933
sg2708
g2707
sVspecial_bonus_unique_outworld_devourer_2
p2934
V6711
p2935
sVspecial_bonus_unique_outworld_devourer_3
p2936
V6712
p2937
sVharpy_storm_chain_lightning
p2938
V5319
p2939
sVspecial_bonus_attack_damage_120
p2940
V6112
p2941
sVspecial_bonus_hp_200
p2942
V5959
p2943
sVspecial_bonus_unique_antimage
p2944
V6012
p2945
sVbloodseeker_blood_bath
p2946
V5016
p2947
sVitem_oblivion_staff
p2948
V67
p2949
sVspecial_bonus_unique_tiny
p2950
V6153
p2951
sVspecial_bonus_unique_lycan_1
p2952
V6134
p2953
sVenraged_wildkin_toughness_aura
p2954
V5313
p2955
sVspecial_bonus_mp_regen_8
p2956
V6243
p2957
sVspecial_bonus_spell_block_15
p2958
V7034
p2959
sVspecial_bonus_unique_beastmaster
p2960
V6103
p2961
sg1113
g1112
sVbroodmother_spin_web_destroy
p2962
V5643
p2963
sVlone_druid_spirit_bear_return
p2964
V5418
p2965
sg549
g548
sVrattletrap_battery_assault
p2966
V5237
p2967
sg2809
g471
sVspecial_bonus_mp_regen_14
p2968
V6255
p2969
sVnyx_assassin_vendetta
p2970
V5465
p2971
sVspecial_bonus_mp_regen_10
p2972
V6116
p2973
sg810
g809
sVsiege creep
p2974
g741
sVspecial_bonus_evasion_50
p2975
V6613
p2976
sVsven_storm_bolt
p2977
V5094
p2978
sVbroodmother_insatiable_hunger
p2979
V5282
p2980
sVspecial_bonus_attack_damage_251
p2981
V7039
p2982
sVspecial_bonus_attack_damage_250
p2983
V6556
p2984
sVjakiro
p2985
Vnpc_dota_hero_jakiro
p2986
sVnpc_dota_brewmaster_earth_1
p2987
g566
sg2200
g2199
sVitem_void_stone
p2988
V57
p2989
sg1185
g1184
sVitem_quarterstaff
p2990
V10
p2991
sVspecial_bonus_cleave_100
p2992
V6827
p2993
sg2637
g2636
sVantimage_blink
p2994
V5004
p2995
sg2174
g2173
sVgreevil_miniboss_black_brain_sap
p2996
V5537
p2997
sVspecial_bonus_unique_enchantress_4
p2998
V6515
p2999
sVspecial_bonus_unique_invoker_1
p3000
V6097
p3001
sVspecial_bonus_unique_invoker_3
p3002
V6099
p3003
sVspecial_bonus_unique_invoker_2
p3004
V6098
p3005
sVspecial_bonus_unique_invoker_5
p3006
V6657
p3007
sVspecial_bonus_unique_invoker_4
p3008
V6656
p3009
sVspecial_bonus_unique_invoker_7
p3010
V7016
p3011
sVspecial_bonus_unique_invoker_6
p3012
V6811
p3013
sVspecial_bonus_unique_invoker_8
p3014
V7017
p3015
sVspecial_bonus_unique_clockwerk_4
p3016
V7028
p3017
sVwisp_relocate
p3018
V5488
p3019
sVspecial_bonus_unique_clockwerk_3
p3020
V6512
p3021
sVinvoker_emp
p3022
V5383
p3023
sVearthshaker_fissure
p3024
V5023
p3025
sVspecial_bonus_magic_resistance_25
p3026
V6091
p3027
sVnpc_dota_neutral_black_drake
p3028
Vancient black drake
p3029
sVspecial_bonus_unique_techies_4
p3030
V6998
p3031
sVspecial_bonus_unique_techies_2
p3032
V6552
p3033
sVspecial_bonus_unique_techies_3
p3034
V6997
p3035
sVspecial_bonus_mp_150
p3036
V5905
p3037
sg2645
g2644
sg1125
g1124
sVwitch_doctor_paralyzing_cask
p3038
V5138
p3039
sVgreevil_miniboss_purple_plague_ward
p3040
V5575
p3041
sVnpc_dota_hero_lone_druid
p3042
Vlone druid
p3043
sVnpc_dota_lone_druid_bear4
p3044
g2358
sVnpc_dota_lone_druid_bear2
p3045
Vspirit bear
p3046
sVnpc_dota_lone_druid_bear3
p3047
Vspirit bear
p3048
sg2359
Vspirit bear
p3049
sVability_deward
p3050
V5669
p3051
sVskywrath_mage_ancient_seal
p3052
V5583
p3053
sVitem_hand_of_midas
p3054
V65
p3055
sVspecial_bonus_unique_mirana_4
p3056
V6692
p3057
sVspecial_bonus_unique_mirana_2
p3058
V6242
p3059
sVspecial_bonus_unique_mirana_3
p3060
V6397
p3061
sVspecial_bonus_unique_mirana_1
p3062
V6013
p3063
sg1377
g1384
sVvengefulspirit_command_aura
p3064
V5123
p3065
sVnecrolyte_reapers_scythe
p3066
V5161
p3067
sg1277
g1276
sVwinter_wyvern_arctic_burn
p3068
V5651
p3069
sVstorm_spirit_static_remnant
p3070
V5098
p3071
sg1507
g1506
sVitem_recipe_lesser_crit
p3072
V148
p3073
sg491
g490
sVitem_iron_talon
p3074
V239
p3075
sVitem_recipe_soul_booster
p3076
V128
p3077
sg2110
g2109
sVcourier_take_stash_and_transfer_items
p3078
V5676
p3079
sVgreevil_miniboss_purple_venomous_gale
p3080
V5574
p3081
sVitem_trident
p3082
V275
p3083
sVmorphling_hybrid
p3084
V5674
p3085
sVlife_stealer_open_wounds
p3086
V5251
p3087
sVnpc_dota_thinker
p3088
g3088
sVbrewmaster_drunken_brawler
p3089
V5402
p3090
sVspecial_bonus_unique_gyrocopter_4
p3091
V6653
p3092
sVspecial_bonus_unique_gyrocopter_5
p3093
V6654
p3094
sVspecial_bonus_unique_gyrocopter_2
p3095
V6312
p3096
sVspecial_bonus_unique_gyrocopter_3
p3097
V6652
p3098
sVitem_mjollnir
p3099
V158
p3100
sVspecial_bonus_unique_gyrocopter_1
p3101
V6216
p3102
sg2118
g2117
sVitem_sange
p3103
V162
p3104
sVspecial_bonus_cooldown_reduction_8
p3105
V5950
p3106
sVspecial_bonus_unique_winter_wyvern_1
p3107
V6106
p3108
sVspecial_bonus_unique_furion_4
p3109
V6702
p3110
sVspecial_bonus_unique_furion_3
p3111
V6539
p3112
sVspecial_bonus_unique_furion_2
p3113
V6500
p3114
sg1797
g1796
sVspecial_bonus_agility_100
p3115
V6705
p3116
sVitem_tango
p3117
V44
p3118
sVitem_recipe_dagon_2
p3119
V197
p3120
sVspecial_bonus_unique_winter_wyvern_4
p3121
V6994
p3122
sVogre_magi_unrefined_fireblast
p3123
V5466
p3124
sVitem_recipe_dagon_4
p3125
V199
p3126
sVitem_recipe_dagon_5
p3127
V200
p3128
sVgyrocopter
p3129
Vnpc_dota_hero_gyrocopter
p3130
sg2986
g2985
sVlina
p3131
Vnpc_dota_hero_lina
p3132
sVinvoker_sun_strike
p3133
V5386
p3134
sVparadox memorial
p3135
Vnpc_dota_phantomassassin_gravestone
p3136
sVgranite_golem_bash
p3137
V5680
p3138
sVelder_titan_natural_order
p3139
V5593
p3140
sVvisage_summon_familiars
p3141
V5483
p3142
sVrattletrap_power_cogs
p3143
V5238
p3144
sVspecial_bonus_spell_immunity
p3145
V6646
p3146
sVshredder_chakram_2
p3147
V5645
p3148
sVitem_gem
p3149
V30
p3150
sg2605
g2604
sVitem_courier
p3151
V45
p3152
sVitem_dust
p3153
V40
p3154
sVspectre_spectral_dagger
p3155
V5334
p3156
sVphantom_assassin_coup_de_grace
p3157
V5193
p3158
sVitem_recipe_kaya
p3159
V258
p3160
sVitem_river_painter5
p3161
V1025
p3162
sVspecial_bonus_unique_naga_siren_4
p3163
V7029
p3164
sVitem_river_painter7
p3165
V1027
p3166
sVitem_river_painter6
p3167
V1026
p3168
sVlion_impale
p3169
V5044
p3170
sVspecial_bonus_unique_naga_siren_3
p3171
V6701
p3172
sVspecial_bonus_unique_naga_siren_2
p3173
V6398
p3174
sVitem_dragon_lance
p3175
V236
p3176
sg448
g447
sVitem_soul_booster
p3177
V129
p3178
sVwindrunner_windrun
p3179
V5132
p3180
sVtusk_launch_snowball
p3181
V5641
p3182
sVitem_shadow_amulet
p3183
V215
p3184
sVitem_sheepstick
p3185
V96
p3186
sVspecial_bonus_attack_range_250
p3187
V6040
p3188
sVnpc_dota_creep_badguys_ranged_upgraded
p3189
Vsuper ranged creep
p3190
sVnpc_dota_death_prophet_torment
p3191
g3191
sVspecial_bonus_unique_luna_2
p3192
V6127
p3193
sVbig_thunder_lizard_slam
p3194
V5332
p3195
sVspecial_bonus_magic_resistance_8
p3196
V5936
p3197
sVspecial_bonus_magic_resistance_6
p3198
V5994
p3199
sVspecial_bonus_unique_sand_king_4
p3200
V6872
p3201
sVspecial_bonus_magic_resistance_5
p3202
V5935
p3203
sVspecial_bonus_attack_damage_30
p3204
V5939
p3205
sVspecial_bonus_unique_sand_king_3
p3206
V6530
p3207
sVspecial_bonus_unique_sand_king_2
p3208
V6409
p3209
sVpangolier_gyroshell
p3210
V6343
p3211
sVspecial_bonus_attack_range_125
p3212
V5944
p3213
sg1725
g1724
sVspecial_bonus_unique_visage_3
p3214
V6522
p3215
sVspecial_bonus_unique_visage_2
p3216
V6320
p3217
sVspecial_bonus_unique_visage_1
p3218
V6031
p3219
sVrubick_fade_bolt
p3220
V5450
p3221
sVspecial_bonus_unique_visage_6
p3222
V6985
p3223
sVspecial_bonus_unique_visage_5
p3224
V6984
p3225
sVspecial_bonus_unique_visage_4
p3226
V6983
p3227
sg786
g785
sVrattletrap_hookshot
p3228
V5240
p3229
sg1097
g1096
sVbeastmaster_greater_boar_poison
p3230
V5352
p3231
sVoracle_fortunes_end
p3232
V5637
p3233
sg101
g100
sg1003
g1002
sVspecial_bonus_attack_speed_200
p3234
V6622
p3235
sVitem_recipe_phase_boots
p3236
V49
p3237
sg1667
g1788
sVtroll_warlord_fervor
p3238
V5511
p3239
sVspecial_bonus_mana_break_20
p3240
V6987
p3241
sVzuus_cloud
p3242
V6325
p3243
sVspecial_bonus_mana_break_25
p3244
V6830
p3245
sVspecial_bonus_corruption_5
p3246
V6846
p3247
sg2112
g2111
sVitem_recipe_spirit_vessel
p3248
V266
p3249
sVspecial_bonus_unique_zeus
p3250
V6157
p3251
sVitem_cheese
p3252
V33
p3253
sVnpc_dota_necronomicon_archer_3
p3254
Vnecronomicon archer
p3255
sVnpc_dota_unit_tombstone4
p3256
Vtombstone
p3257
sVnpc_dota_unit_tombstone1
p3258
Vtombstone
p3259
sg847
Vtombstone
p3260
sVnpc_dota_unit_tombstone2
p3261
g846
sg1863
g1870
sVtroll_warlord_whirling_axes_melee
p3262
V5510
p3263
sVphantom_assassin_phantom_strike
p3264
V5191
p3265
sVluna_lucent_beam
p3266
V5222
p3267
sVitem_octarine_core
p3268
V235
p3269
sVfurion_teleportation
p3270
V5246
p3271
sVitem_recipe_aether_lens
p3272
V233
p3273
sg2894
g2893
sVitem_recipe_sange
p3274
V161
p3275
sVnecronomicon_archer_purge
p3276
V8203
p3277
sVspecial_bonus_gold_income_15
p3278
V6007
p3279
sVspecial_bonus_gold_income_10
p3280
V5956
p3281
sVspecial_bonus_unique_ogre_magi_2
p3282
V6707
p3283
sVdrow_ranger_wave_of_silence
p3284
V5632
p3285
sg2178
g2177
sVblack_dragon_dragonhide_aura
p3286
V5681
p3287
sVbrewmaster_earth_hurl_boulder
p3288
V5404
p3289
sVleshrac_split_earth
p3290
V5241
p3291
sVitem_point_booster
p3292
V60
p3293
sVitem_ward_observer
p3294
V42
p3295
sVspecial_bonus_intelligence_25
p3296
V6050
p3297
sVnecrolyte_sadist
p3298
V5160
p3299
sVbounty_hunter_wind_walk
p3300
V5287
p3301
sVursa
p3302
Vnpc_dota_hero_ursa
p3303
sVitem_recipe_bfury
p3304
V144
p3305
sVitem_pipe
p3306
V90
p3307
sVspecial_bonus_magic_resistance_35
p3308
V6386
p3309
sVspecial_bonus_magic_resistance_30
p3310
V6221
p3311
sVspecial_bonus_unique_antimage_2
p3312
V6353
p3313
sVspecial_bonus_unique_antimage_3
p3314
V6606
p3315
sVspecial_bonus_unique_antimage_4
p3316
V6607
p3317
sVspecial_bonus_unique_antimage_5
p3318
V6800
p3319
sg2221
g2220
sVitem_recipe_tranquil_boots
p3320
V213
p3321
sVoracle_false_promise
p3322
V5640
p3323
sVwindrunner_powershot
p3324
V5131
p3325
sVspecial_bonus_unique_abaddon_2
p3326
V6601
p3327
sVspecial_bonus_unique_abaddon_3
p3328
V6602
p3329
sVroshan_halloween_summon
p3330
V10001
p3331
sVnpc_dota_pugna_nether_ward_3
p3332
g1362
sVshredder_chakram
p3333
V5527
p3334
sVnpc_dota_pugna_nether_ward_1
p3335
Vnether ward
p3336
sVnpc_dota_pugna_nether_ward_4
p3337
Vnether ward
p3338
sVspecial_bonus_cast_range_125
p3339
V6197
p3340
sVsatyr_soulstealer_mana_burn
p3341
V5315
p3342
sVspecial_bonus_attack_damage_400
p3343
V6553
p3344
sVitem_robe
p3345
V19
p3346
sVspecial_bonus_unique_lycan_4
p3347
V6684
p3348
sVspecial_bonus_unique_lycan_5
p3349
V6685
p3350
sVhuskar_berserkers_blood
p3351
V5273
p3352
sVspecial_bonus_unique_lycan_2
p3353
V6140
p3354
sVspecial_bonus_unique_lycan_3
p3355
V6519
p3356
sVshoot_firework
p3357
V5650
p3358
sg2673
g1417
sg1023
g1022
sVspecial_bonus_unique_techies
p3359
V6282
p3360
sg3136
g3135
sVdark_troll_warlord_ensnare
p3361
V5305
p3362
sg2008
g2007
sVelder_titan_earth_splitter
p3363
V5594
p3364
sg226
g225
sVmagnataur_shockwave
p3365
V5518
p3366
sVspecial_bonus_unique_ember_spirit_2
p3367
V6176
p3368
sVkunkka_torrent
p3369
V5031
p3370
sVitem_infused_raindrop
p3371
V265
p3372
sg1727
g1726
sVspecial_bonus_unique_abaddon
p3373
V6100
p3374
sVnight_stalker_void
p3375
V5275
p3376
sVitem_recipe_soul_ring
p3377
V177
p3378
sg2595
g2594
sVluna_eclipse
p3379
V5225
p3380
sg1683
g1682
sVtidehunter_gush
p3381
V5118
p3382
sVbristleback_warpath
p3383
V5551
p3384
sVspecial_bonus_spell_lifesteal_70
p3385
V6061
p3386
sVbackdoor_protection_in_base
p3387
V5351
p3388
sg2368
g2367
sg2722
g2721
sVitem_recipe_octarine_core
p3389
V228
p3390
sVspecial_bonus_reincarnation_200
p3391
V6677
p3392
sVnaga_siren_ensnare
p3393
V5468
p3394
sg722
g721
sVspecial_bonus_unique_spectre
p3395
V6148
p3396
sg521
g520
sVspecial_bonus_cast_range_60
p3397
V6032
p3398
sVspecial_bonus_unique_ursa_5
p3399
V6976
p3400
sVspecial_bonus_unique_ursa_4
p3401
V6975
p3402
sVspecial_bonus_unique_ursa_3
p3403
V6974
p3404
sVspecial_bonus_unique_ursa_2
p3405
V6973
p3406
sVspecial_bonus_unique_juggernaut
p3407
V6105
p3408
sVitem_black_king_bar
p3409
V116
p3410
sg2536
g2535
sVthrow_snowball
p3411
V5577
p3412
sVroshan_halloween_apocalypse
p3413
V9998
p3414
sg2248
g2247
sVdragon_knight_frost_breath
p3415
V5232
p3416
sVqueenofpain_shadow_strike
p3417
V5173
p3418
sVphantom_lancer_spirit_lance
p3419
V5065
p3420
sVchaos knight
p3421
Vnpc_dota_hero_chaos_knight
p3422
sVnpc_dota_necronomicon_warrior_1
p3423
g385
sVnpc_dota_necronomicon_warrior_2
p3424
Vnecronomicon warrior
p3425
sg386
Vnecronomicon warrior
p3426
sVnpc_dota_goodguys_siege
p3427
g2974
sVitem_recipe_radiance
p3428
V136
p3429
sg1513
g1078
sVwitch_doctor_voodoo_restoration
p3430
V5139
p3431
sg1371
g1370
sVspecial_bonus_lifesteal_15
p3432
V6289
p3433
sVitem_ultimate_scepter
p3434
V108
p3435
sg796
g795
sVspecial_bonus_unique_terrorblade
p3436
V6107
p3437
sg2253
Vbuilding
p3438
sVitem_ring_of_protection
p3439
V12
p3440
sVspecial_bonus_unique_enchantress_1
p3441
V6331
p3442
sVspecial_bonus_unique_enchantress_3
p3443
V6379
p3444
sVspecial_bonus_unique_enchantress_2
p3445
V6086
p3446
sVspecial_bonus_unique_enchantress_5
p3447
V6648
p3448
sVarc_warden_flux
p3449
V5677
p3450
sVspecial_bonus_unique_centaur_1
p3451
V6322
p3452
sVspecial_bonus_unique_centaur_3
p3453
V6616
p3454
sVspecial_bonus_unique_centaur_2
p3455
V5988
p3456
sVspecial_bonus_unique_centaur_4
p3457
V6617
p3458
sVpuck_ethereal_jaunt
p3459
V5070
p3460
sg1785
Vnpc_dota_creep_badguys_ranged_upgraded_mega
p3461
sVdoom_bringer_empty1
p3462
V5343
p3463
sVdoom_bringer_empty2
p3464
V5344
p3465
sVspecial_bonus_unique_chen_3
p3466
V6363
p3467
sVspecial_bonus_hp_350
p3468
V6195
p3469
sg2815
g2814
sVsilencer_glaives_of_wisdom
p3470
V5378
p3471
sVspecial_bonus_unique_tusk_5
p3472
V6963
p3473
sVspecial_bonus_unique_tusk_4
p3474
V6962
p3475
sVspecial_bonus_unique_sniper_1
p3476
V6305
p3477
sVspecial_bonus_unique_tusk_3
p3478
V6961
p3479
sVspecial_bonus_unique_tusk_2
p3480
V6411
p3481
sVgreevil_miniboss_blue_ice_vortex
p3482
V5539
p3483
sVspecial_bonus_attack_damage_20
p3484
V5960
p3485
sVancient_golem_rockslide
p3486
V5686
p3487
sVspecial_bonus_attack_damage_25
p3488
V6009
p3489
sVrazor_static_link
p3490
V5083
p3491
sVtreant_natures_guise
p3492
V5434
p3493
sVnpc_dota_tusk_frozen_sigil3
p3494
Vfrozen sigil
p3495
sg1970
g1969
sVitem_recipe_travel_boots
p3496
V47
p3497
sVitem_necronomicon
p3498
V106
p3499
sVspecial_bonus_hp_225
p3500
V6405
p3501
sVspecial_bonus_unique_bane_4
p3502
V6826
p3503
sVspecial_bonus_intelligence_15
p3504
V5991
p3505
sVspecial_bonus_unique_bane_2
p3506
V6069
p3507
sVspecial_bonus_unique_bane_3
p3508
V6609
p3509
sVspecial_bonus_unique_bane_1
p3510
V6068
p3511
sVitem_recipe_arcane_boots
p3512
V179
p3513
sg371
g316
sVspecial_bonus_hp_regen_80
p3514
V6660
p3515
sVnpc_dota_invisible_vision_source
p3516
g3516
sVspecial_bonus_mana_break_35
p3517
V6825
p3518
sVnpc_dota_goodguys_tower3_mid
p3519
Vtower
p3520
sVmorphling_waveform
p3521
V5052
p3522
sVspecial_bonus_evasion_75
p3523
V6882
p3524
sg2452
g2451
sVspecial_bonus_unique_pugna_2
p3525
V6238
p3526
sVspecial_bonus_unique_huskar
p3527
V6204
p3528
sVspecial_bonus_unique_pugna_1
p3529
V6220
p3530
sVspecial_bonus_unique_pugna_6
p3531
V6859
p3532
sVspecial_bonus_unique_pugna_4
p3533
V6448
p3534
sVspecial_bonus_unique_pugna_5
p3535
V6541
p3536
sVitem_recipe_skadi
p3537
V159
p3538
sVnecronomicon_warrior_last_will
p3539
V5200
p3540
sVspecial_bonus_unique_dark_willow_2
p3541
V6465
p3542
sVspecial_bonus_unique_magnus
p3543
V6199
p3544
sVspecial_bonus_unique_dark_willow_1
p3545
V6464
p3546
sVitem_urn_of_shadows
p3547
V92
p3548
sVpudge_dismember
p3549
V5077
p3550
sVwinter_wyvern_cold_embrace
p3551
V5653
p3552
sg2486
g2485
sVnpc_dota_hero_centaur
p3553
Vcentaur warrunner
p3554
sVinvoker_invoke
p3555
V5375
p3556
sVspecial_bonus_unique_nyx_2
p3557
V6399
p3558
sVspecial_bonus_unique_nyx_3
p3559
V6814
p3560
sVbrewmaster_storm_cyclone
p3561
V5409
p3562
sVspecial_bonus_unique_earthshaker_3
p3563
V6511
p3564
sVspecial_bonus_unique_bounty_hunter_3
p3565
V7040
p3566
sVspecial_bonus_unique_bounty_hunter_2
p3567
V6358
p3568
sVspecial_bonus_unique_earthshaker_2
p3569
V6425
p3570
sVnpc_dota_badguys_tower3_top
p3571
Vtower
p3572
sVbristleback_quill_spray
p3573
V5549
p3574
sVspecial_bonus_attack_range_75
p3575
V6027
p3576
sVspecial_bonus_unique_shadow_shaman_4
p3577
V6521
p3578
sVspecial_bonus_unique_shadow_shaman_5
p3579
V6877
p3580
sVspecial_bonus_unique_shadow_shaman_1
p3581
V6052
p3582
sVspecial_bonus_unique_shadow_shaman_2
p3583
V6295
p3584
sVspecial_bonus_unique_shadow_shaman_3
p3585
V6502
p3586
sVspecial_bonus_unique_phoenix_5
p3587
V6915
p3588
sVogre_magi_fireblast
p3589
V5438
p3590
sVspecial_bonus_unique_chaos_knight_2
p3591
V6618
p3592
sVspecial_bonus_unique_chaos_knight_3
p3593
V6619
p3594
sVitem_combo_breaker
p3595
V276
p3596
sVitem_recipe_medallion_of_courage
p3597
V186
p3598
sVvenomancer_poison_sting
p3599
V5179
p3600
sVspecial_bonus_unique_venomancer_4
p3601
V6980
p3602
sVspecial_bonus_unique_venomancer_5
p3603
V6981
p3604
sVspecial_bonus_unique_venomancer_6
p3605
V6999
p3606
sVitem_ultimate_orb
p3607
V24
p3608
sVspecial_bonus_unique_venomancer_2
p3609
V6532
p3610
sVspecial_bonus_unique_venomancer_3
p3611
V6979
p3612
sVabyssal_underlord_firestorm
p3613
V5613
p3614
sVspecial_bonus_mp_175
p3615
V6067
p3616
sg1966
Vundying zombie
p3617
sVmedusa_mystic_snake
p3618
V5505
p3619
sVweaver_shukuchi
p3620
V5290
p3621
sVdiretide witch
p3622
Vnpc_dota_creep_goodguys_ranged_diretide
p3623
sVitem_travel_boots
p3624
V48
p3625
sVspecial_bonus_unique_pudge_2
p3626
V6245
p3627
sVspecial_bonus_unique_pudge_3
p3628
V6506
p3629
sVspecial_bonus_unique_pudge_1
p3630
V6023
p3631
sVnpc_dota_hero_meepo
p3632
Vmeepo
p3633
sVspecial_bonus_unique_tidehunter
p3634
V6151
p3635
sVitem_recipe_bloodthorn
p3636
V245
p3637
sg780
g779
sVspecial_bonus_cast_range_150
p3638
V6056
p3639
sVviper_poison_attack
p3640
V5218
p3641
sVitem_stout_shield
p3642
V182
p3643
sg487
g486
sVlion_mana_drain
p3644
V5046
p3645
sVitem_recipe_armlet
p3646
V150
p3647
sVspecial_bonus_hp_regen_30
p3648
V6351
p3649
sg690
g689
sVspecial_bonus_intelligence_6
p3650
V5924
p3651
sVspecial_bonus_intelligence_7
p3652
V6117
p3653
sVbloodseeker_rupture
p3654
V5018
p3655
sVitem_lotus_orb
p3656
V226
p3657
sVspecial_bonus_cooldown_reduction_40
p3658
V6445
p3659
sVmorphling_adaptive_strike_agi
p3660
V5053
p3661
sVshadow_demon_disruption
p3662
V5421
p3663
sg3043
g3042
sg2252
g2251
sVwraith king
p3664
Vnpc_dota_hero_skeleton_king
p3665
sg2886
g2885
sVlycan_feral_impulse
p3666
V5397
p3667
sVitem_recipe_hurricane_pike
p3668
V262
p3669
sg748
g747
sVspecial_bonus_unique_enigma
p3670
V6065
p3671
sVspecial_bonus_unique_tidehunter_2
p3672
V6945
p3673
sVspecial_bonus_unique_tidehunter_3
p3674
V6946
p3675
sVspecial_bonus_unique_tidehunter_4
p3676
V6947
p3677
sVfaceless_void_time_walk
p3678
V5182
p3679
sg2257
g2256
sVspecial_bonus_unique_arc_warden_2
p3680
V6354
p3681
sg1177
g1176
sVphantom_lancer_phantom_edge
p3682
V5068
p3683
sVspecial_bonus_unique_timbersaw_3
p3684
V6949
p3685
sVspecial_bonus_unique_timbersaw_2
p3686
V6948
p3687
sVchen_hand_of_god
p3688
V5331
p3689
sVchen_penitence
p3690
V5328
p3691
sVspecial_bonus_spell_lifesteal_60
p3692
V6575
p3693
sg1181
g1180
sVbloodseeker_bloodrage
p3694
V5015
p3695
sVshadow_shaman_shackles
p3696
V5080
p3697
sVspecial_bonus_unique_skywrath_5
p3698
V6921
p3699
sVspecial_bonus_unique_skywrath_4
p3700
V6886
p3701
sVspecial_bonus_unique_skywrath_3
p3702
V6885
p3703
sVspecial_bonus_unique_skywrath_2
p3704
V6884
p3705
sg752
g751
sVrazor_plasma_field
p3706
V5082
p3707
sg392
g391
sVitem_recipe_mask_of_madness
p3708
V171
p3709
sVoracle
p3710
Vnpc_dota_hero_oracle
p3711
sVgreevil_phantom_strike
p3712
V5554
p3713
sg599
g598
sVitem_recipe_necronomicon_2
p3714
V191
p3715
sVitem_recipe_necronomicon_3
p3716
V192
p3717
sVitem_recipe_ward_dispenser
p3718
V217
p3719
sVlegion_commander_moment_of_courage
p3720
V5597
p3721
sVmega siege creep
p3722
g62
sVgreevil_natures_attendants
p3723
V5559
p3724
sVlone_druid_spirit_bear_demolish
p3725
V5420
p3726
sVspecial_bonus_hp_regen_14
p3727
V5913
p3728
sVitem_ancient_janggo
p3729
V185
p3730
sVtechies_land_mines
p3731
V5599
p3732
sg3665
g3664
sVmonkey_king_wukongs_command
p3733
V5725
p3734
sVspecial_bonus_day_vision_400
p3735
V6092
p3736
sVitem_staff_of_wizardry
p3737
V23
p3738
sVspecial_bonus_unique_dragon_knight_2
p3739
V6635
p3740
sVspecial_bonus_20_crit_15
p3741
V7045
p3742
sVnpc_dota_roshan_halloween_minion
p3743
g3743
sVitem_energy_booster
p3744
V59
p3745
sg3303
g3302
sg1998
g1997
sg157
g156
sg3029
g3028
sg2288
g2279
sVspecial_bonus_unique_witch_doctor_5
p3746
V6996
p3747
sVspecial_bonus_unique_witch_doctor_4
p3748
V6995
p3749
sVspecial_bonus_unique_witch_doctor_3
p3750
V6524
p3751
sVspecial_bonus_unique_witch_doctor_2
p3752
V6298
p3753
sVspecial_bonus_unique_witch_doctor_1
p3754
V5998
p3755
sVnpc_dota_rattletrap_rocket
p3756
g3756
sVearthshaker_aftershock
p3757
V5025
p3758
sVspecial_bonus_unique_death_prophet
p3759
V6191
p3760
sVshredder_return_chakram
p3761
V5528
p3762
sVitem_aegis
p3763
V117
p3764
sVspecial_bonus_hp_325
p3765
V6423
p3766
sVnpc_dota_goodguys_tower1_mid
p3767
Vtower
p3768
sVenigma_demonic_conversion
p3769
V5147
p3770
sVnpc_dota_badguys_siege_upgraded_mega
p3771
g3722
sg1404
g1403
sg851
g850
sVsniper_assassinate
p3772
V5157
p3773
sVroshan_halloween_shell
p3774
V9997
p3775
sVitem_recipe_echo_sabre
p3776
V251
p3777
sVspecial_bonus_attack_range_100
p3778
V5943
p3779
sVitem_recipe_orchid
p3780
V97
p3781
sVgreevil_shadow_strike
p3782
V5534
p3783
sVspecial_bonus_agility_16
p3784
V6169
p3785
sVspecial_bonus_agility_15
p3786
V5929
p3787
sVspecial_bonus_agility_14
p3788
V6170
p3789
sVspecial_bonus_agility_13
p3790
V6011
p3791
sVtinker_heat_seeking_missile
p3792
V5151
p3793
sVskeleton_king_reincarnation
p3794
V5089
p3795
sVspecial_bonus_agility_10
p3796
V6029
p3797
sVspecial_bonus_hp_250
p3798
V5903
p3799
sVspecial_bonus_unique_leshrac_1
p3800
V6063
p3801
sVspecial_bonus_unique_leshrac_3
p3802
V6672
p3803
sVspecial_bonus_unique_leshrac_2
p3804
V6240
p3805
sVabaddon_frostmourne
p3806
V5587
p3807
sVspecial_bonus_strength_8
p3808
V5982
p3809
sVspecial_bonus_strength_9
p3810
V6250
p3811
sVspecial_bonus_strength_6
p3812
V6048
p3813
sVspecial_bonus_strength_7
p3814
V6115
p3815
sVspecial_bonus_strength_4
p3816
V6005
p3817
sVspecial_bonus_strength_5
p3818
V5927
p3819
sVspecial_bonus_strength_3
p3820
V6002
p3821
sg1624
g1623
sVshadow_shaman_voodoo
p3822
V5079
p3823
sVgreevil_miniboss_white_degen_aura
p3824
V5545
p3825
sVenchantress_untouchable
p3826
V5267
p3827
sg3633
g3632
sVspecial_bonus_unique_drow_ranger_3
p3828
V6280
p3829
sVspecial_bonus_unique_drow_ranger_2
p3830
V6209
p3831
sVspecial_bonus_unique_drow_ranger_1
p3832
V6202
p3833
sVspecial_bonus_spell_block_20
p3834
V7035
p3835
sVspecial_bonus_unique_drow_ranger_4
p3836
V6634
p3837
sVitem_lifesteal
p3838
V26
p3839
sg1375
g1374
sg230
g229
sVspecial_bonus_gold_income_30
p3840
V6026
p3841
sVspecial_bonus_mp_300
p3842
V5990
p3843
sVsatyr_hellcaller_unholy_aura
p3844
V5317
p3845
sVdragon_knight_dragon_blood
p3846
V5228
p3847
sVdark_willow_terrorize
p3848
V8340
p3849
sVnpc_dota_lycan_wolf1
p3850
Vlycan wolf
p3851
sg724
g723
sVnpc_dota_hero_luna
p3852
Vluna
p3853
sg27
g26
sVspecial_bonus_unique_sniper_4
p3854
V6897
p3855
sVitem_armlet
p3856
V151
p3857
sg2764
g2763
sVspecial_bonus_unique_morphling_3
p3858
V6698
p3859
sVspecial_bonus_unique_morphling_2
p3860
V6225
p3861
sVspecial_bonus_unique_morphling_1
p3862
V6062
p3863
sVspecial_bonus_unique_morphling_7
p3864
V7056
p3865
sVspecial_bonus_unique_morphling_6
p3866
V7052
p3867
sVspecial_bonus_unique_morphling_5
p3868
V6927
p3869
sVspecial_bonus_unique_morphling_4
p3870
V6840
p3871
sVnpc_dota_visage_familiar1
p3872
Vfamiliar
p3873
sVspecial_bonus_unique_morphling_8
p3874
V7060
p3875
sVspecial_bonus_lifesteal_100
p3876
V6721
p3877
sVspecial_bonus_unique_sniper_3
p3878
V6896
p3879
sVspecial_bonus_magic_resistance_15
p3880
V6138
p3881
sVspecial_bonus_unique_sniper_2
p3882
V6198
p3883
sVspecial_bonus_magic_resistance_10
p3884
V5937
p3885
sVspecial_bonus_magic_resistance_12
p3886
V6299
p3887
sg1271
g1270
sVphantom_assassin_stifling_dagger
p3888
V5190
p3889
sVdivine megagreevil
p3890
Vnpc_dota_greevil_miniboss_white
p3891
sVspecial_bonus_unique_vengeful_spirit_6
p3892
V7018
p3893
sVspecial_bonus_unique_vengeful_spirit_5
p3894
V6978
p3895
sVspecial_bonus_unique_vengeful_spirit_4
p3896
V6977
p3897
sVspecial_bonus_unique_vengeful_spirit_3
p3898
V6057
p3899
sVspecial_bonus_unique_vengeful_spirit_2
p3900
V6237
p3901
sVspecial_bonus_unique_vengeful_spirit_1
p3902
V6310
p3903
sg174
g173
sVmonkey king
p3904
Vnpc_dota_hero_monkey_king
p3905
sVitem_ring_of_regen
p3906
V27
p3907
sVgyrocopter_rocket_barrage
p3908
V5361
p3909
sVitem_abyssal_blade
p3910
V208
p3911
sg3891
g3890
sVspecial_bonus_cleave_60
p3912
V6631
p3913
sVitem_butterfly
p3914
V139
p3915
sVinvoker_attribute_bonus
p3916
V5690
p3917
sVkeeper_of_the_light_spirit_form
p3918
V5474
p3919
sVitem_dagon_4
p3920
V203
p3921
sVitem_dagon_5
p3922
V204
p3923
sVitem_dagon_2
p3924
V201
p3925
sVitem_dagon_3
p3926
V202
p3927
sVspecial_bonus_unique_lich_2
p3928
V6292
p3929
sVspecial_bonus_unique_lich_3
p3930
V6387
p3931
sVspecial_bonus_unique_lich_1
p3932
V6039
p3933
sg2265
g2264
sVinvoker_forge_spirit
p3934
V5387
p3935
sVtemplar_assassin_meld
p3936
V5195
p3937
sVspecial_bonus_unique_slark
p3938
V6147
p3939
sVnpc_dota_badguys_tower1_mid
p3940
Vtower
p3941
sVspecial_bonus_unique_crystal_maiden_4
p3942
V7042
p3943
sg79
g78
sg3130
g3129
sVomniknight_guardian_angel
p3944
V5266
p3945
sVearth_spirit_boulder_smash
p3946
V5608
p3947
sg3132
g3131
sVenigma_midnight_pulse
p3948
V5148
p3949
sVitem_bracer
p3950
V73
p3951
sg283
g282
sVspecial_bonus_unique_medusa
p3952
V6182
p3953
sg1937
g1936
sVitem_ring_of_aquila
p3954
V212
p3955
sVspecial_bonus_unique_queen_of_pain_2
p3956
V6856
p3957
sVtroll_warlord_battle_trance
p3958
V5512
p3959
sVitem_recipe_maelstrom
p3960
V165
p3961
sg2250
g2249
sg2347
g2346
sVsatyr_hellcaller_shockwave
p3962
V5316
p3963
sVember_spirit_flame_guard
p3964
V5605
p3965
sVspecial_bonus_unique_axe
p3966
V6102
p3967
sVitem_recipe_moon_shard
p3968
V246
p3969
sVelder_titan_echo_stomp_spirit
p3970
V5590
p3971
sVpuck_illusory_orb
p3972
V5069
p3973
sVgreevil_miniboss_red_earthshock
p3974
V5540
p3975
sVitem_recipe_yasha
p3976
V169
p3977
sVitem_recipe_urn_of_shadows
p3978
V91
p3979
sVlich_chain_frost
p3980
V5137
p3981
sVnaga_siren_song_of_the_siren
p3982
V5470
p3983
sg509
g508
sg1011
g1010
sVspecial_bonus_unique_storm_spirit
p3984
V6167
p3985
sVslardar_slithereen_crush
p3986
V5115
p3987
sVinvoker_quas
p3988
V5370
p3989
sVgreevil_laguna_blade
p3990
V5535
p3991
sVantimage_spell_shield
p3992
V5005
p3993
sVspecial_bonus_attack_range_200
p3994
V5945
p3995
sVnpc_dota_goodguys_tower2_bot
p3996
Vtower
p3997
sVsuper ranged creep
p3998
g3189
sg105
g104
sVkeeper_of_the_light_empty1
p3999
V5501
p4000
sVkeeper_of_the_light_empty2
p4001
V5502
p4002
sVspecial_bonus_mp_regen_4
p4003
V5916
p4004
sVspecial_bonus_mp_regen_5
p4005
V6410
p4006
sVspecial_bonus_mp_regen_6
p4007
V5980
p4008
sVspecial_bonus_mp_regen_1
p4009
V5915
p4010
sVspecial_bonus_mp_regen_2
p4011
V5961
p4012
sVspecial_bonus_mp_regen_3
p4013
V6160
p4014
sVdark_seer_vacuum
p4015
V5255
p4016
sVmudgolem_cloak_aura
p4017
V5688
p4018
sg3905
g3904
sVitem_blade_of_alacrity
p4019
V22
p4020
sVgreevil_diabolic_edict
p4021
V5532
p4022
sVkobold_taskmaster_speed_aura
p4023
V5293
p4024
sg2786
g2785
sVenigma_black_hole
p4025
V5149
p4026
sg3554
g3553
sVundying_soul_rip
p4027
V5443
p4028
sVpuck_waning_rift
p4029
V5071
p4030
sVspecial_bonus_unique_riki_3
p4031
V6865
p4032
sg3461
Vmega ranged creep
p4033
sVnpc_dota_badguys_melee_rax_top
p4034
g761
sVitem_recipe_bracer
p4035
V72
p4036
sVstorm_spirit_overload
p4037
V5100
p4038
sVdisruptor_static_storm
p4039
V5461
p4040
sVterrorblade_sunder
p4041
V5622
p4042
sVspecial_bonus_corruption_4
p4043
V7011
p4044
sVphoenix_icarus_dive
p4045
V5623
p4046
sVforged_spirit_melting_strike
p4047
V5388
p4048
sg238
g237
sVcourier_go_to_secretshop
p4049
V5492
p4050
sVitem_blink
p4051
V1
sVspecial_bonus_vision_200
p4052
V6228
p4053
sg2599
g2598
sVitem_soul_ring
p4054
V178
p4055
sVarc_warden_magnetic_field
p4056
V5678
p4057
sVgreevil_purification
p4058
V5561
p4059
sVslardar_sprint
p4060
V5114
p4061
sVcrystal_maiden_frostbite
p4062
V5127
p4063
sVitem_recipe_glimmer_cape
p4064
V253
p4065
sVnpc_dota_creep_goodguys_ranged_upgraded
p4066
g3998
sVspecial_bonus_attack_speed_140
p4067
V6555
p4068
sVspecial_bonus_unique_chaos_knight
p4069
V6133
p4070
sVsandking_burrowstrike
p4071
V5102
p4072
sVnpc_dota_beastmaster_boar
p4073
Vboar
p4074
sVitem_cyclone
p4075
V100
p4076
sg2882
g2881
sVdrow_ranger_silence
p4077
V5020
p4078
sVnevermore_necromastery
p4079
V5062
p4080
sVspecial_bonus_unique_chen_4
p4081
V6535
p4082
sVspecial_bonus_unique_chen_2
p4083
V6260
p4084
sVtemplar_assassin_psionic_trap
p4085
V5197
p4086
sVmagnataur_skewer
p4087
V5520
p4088
sVspecial_bonus_unique_chen_1
p4089
V6259
p4090
sVspecial_bonus_intelligence_12
p4091
V5926
p4092
sVspecial_bonus_unique_huskar_2
p4093
V6380
p4094
sVspecial_bonus_intelligence_10
p4095
V5965
p4096
sVspecial_bonus_unique_phantom_lancer_4
p4097
V6850
p4098
sVspecial_bonus_intelligence_16
p4099
V6332
p4100
sVspecial_bonus_intelligence_14
p4101
V6567
p4102
sVcourier_return_stash_items
p4103
V5207
p4104
sVsandking_sand_storm
p4105
V5103
p4106
sg3853
g3852
sVspawnlord_master_stomp
p4107
V6270
p4108
sVdark_willow_cursed_crown
p4109
V6342
p4110
sVspecial_bonus_agility_20
p4111
V5962
p4112
sVspecial_bonus_agility_25
p4113
V6150
p4114
sVtechies_focused_detonate
p4115
V5635
p4116
sVspecial_bonus_unique_monkey_king
p4117
V6303
p4118
sVvengefulspirit_nether_swap
p4119
V5125
p4120
sVitem_basher
p4121
V143
p4122
sg2188
g2187
sVspecial_bonus_gold_income_25
p4123
V5957
p4124
sVshadow_demon_demonic_purge
p4125
V5425
p4126
sVspecial_bonus_gold_income_20
p4127
V6008
p4128
sVitem_tpscroll
p4129
V46
p4130
sVogre_magi_ignite
p4131
V5439
p4132
sg2413
g2412
sVspecial_bonus_attack_range_50
p4133
V5992
p4134
sVspecial_bonus_unique_terrorblade_3
p4135
V6943
p4136
sVspecial_bonus_unique_terrorblade_2
p4137
V6942
p4138
sVbane_fiends_grip
p4139
V5013
p4140
sg2879
Vfire
p4141
sVspecial_bonus_unique_pugna_3
p4142
V6403
p4143
sg1209
Vroshling
p4144
sg3711
g3710
sVtusk_walrus_punch
p4145
V5568
p4146
sVitem_refresher_shard
p4147
V260
p4148
sVspecial_bonus_unique_broodmother_1
p4149
V6257
p4150
sVspecial_bonus_unique_broodmother_2
p4151
V6258
p4152
sVspecial_bonus_unique_broodmother_3
p4153
V6361
p4154
sVspecial_bonus_unique_broodmother_4
p4155
V6362
p4156
sg979
g978
sVspecial_bonus_hp_800
p4157
V6905
p4158
sVitem_smoke_of_deceit
p4159
V188
p4160
sVspecial_bonus_cast_range_175
p4161
V6120
p4162
sVspecial_bonus_mp_200
p4163
V6094
p4164
sg2875
g2874
sVitem_vladmir
p4165
V81
p4166
sVtidehunter
p4167
Vnpc_dota_hero_tidehunter
p4168
sVtemplar_assassin_psi_blades
p4169
V5196
p4170
sVgreevil_miniboss_orange_light_strike_array
p4171
V5573
p4172
sVspecial_bonus_unique_bristleback
p4173
V6083
p4174
sg274
g273
sVnpc_dota_beastmaster_hawk_1
p4175
Vhawk
p4176
sVwitch_doctor_death_ward
p4177
V5141
p4178
sVrubick_telekinesis_land
p4179
V5449
p4180
sVchen_test_of_faith
p4181
V5329
p4182
sg885
g884
sVvisage_gravekeepers_cloak
p4183
V5482
p4184
sVgreevil_miniboss_white_purification
p4185
V5544
p4186
sVnpc_dota_beastmaster_hawk_4
p4187
Vhawk
p4188
sVnaga_siren_rip_tide
p4189
V5469
p4190
sg3623
g3622
sVspecial_bonus_unique_viper_4
p4191
V6820
p4192
sVgreevil_rot
p4193
V5564
p4194
sVspecial_bonus_unique_viper_1
p4195
V6156
p4196
sg3422
g3421
sVspecial_bonus_unique_viper_3
p4197
V6819
p4198
sVspecial_bonus_unique_viper_2
p4199
V6165
p4200
sg4168
g4167
sg2303
g2302
sg828
g827
sg367
g366
sVkeeper_of_the_light_spirit_form_illuminate_end
p4201
V5503
p4202
sVmirana_leap
p4203
V5050
p4204
sVdeath_prophet_exorcism
p4205
V5093
p4206
sVnpc_dota_slark_visual
p4207
g4207
sg2527
g2526
sVviper_nethertoxin
p4208
V5219
p4209
sVitem_kaya
p4210
V259
p4211
sVitem_claymore
p4212
V5
sValpha_wolf_critical_strike
p4213
V5308
p4214
sVspecial_bonus_unique_clockwerk
p4215
V5977
p4216
sg2544
g2699
sVitem_platemail
p4217
V9
sVspecial_bonus_unique_night_stalker_2
p4218
V6704
p4219
sValchemist_chemical_rage
p4220
V5369
p4221
s.