(dp1
Vitem_satanic
p2
V156
p3
sVitem_recipe_helm_of_the_dominator
p4
V163
p5
sVtiny_avalanche
p6
V5106
p7
sVdoom_bringer_devour
p8
V5339
p9
sVspecial_bonus_cast_range_300
p10
V6213
p11
sVitem_eagle
p12
V52
p13
sVtinker_march_of_the_machines
p14
V5152
p15
sVbig_thunder_lizard_frenzy
p16
V5333
p17
sVitem_recipe_null_talisman
p18
V76
p19
sVitem_magic_wand
p20
V36
p21
sVlina_dragon_slave
p22
V5040
p23
sVnpc_dota_hero_abyssal_underlord
p24
Vunderlord
p25
sVnpc_dota_broodmother_spiderling
p26
Vspiderling
p27
sVspecial_bonus_unique_windranger_3
p28
V6562
p29
sVspecial_bonus_unique_windranger_2
p30
V6413
p31
sVspecial_bonus_unique_windranger_5
p32
V6993
p33
sVspecial_bonus_unique_windranger_4
p34
V6992
p35
sVrubick_telekinesis
p36
V5448
p37
sVpuck_dream_coil
p38
V5073
p39
sVspecial_bonus_attack_speed_250
p40
V7020
p41
sVphoenix sun
p42
Vnpc_dota_phoenix_sun
p43
sVitem_gloves
p44
V25
p45
sVspecial_bonus_unique_oracle
p46
V6206
p47
sVtidehunter_anchor_smash
p48
V5120
p49
sVursa_enrage
p50
V5360
p51
sVrazor_unstable_current
p52
V5084
p53
sVspecial_bonus_movement_speed_90
p54
V6706
p55
sVbatrider
p56
Vnpc_dota_hero_batrider
p57
sVelder_titan_natural_order_spirit
p58
V5750
p59
sVnpc_dota_hero_antimage
p60
Vanti-mage
p61
sVnpc_dota_goodguys_siege_upgraded_mega
p62
Vmega siege creep
p63
sVnpc_dota_goodguys_cny_beast
p64
Vradiant year beast
p65
sVspecial_bonus_unique_undying
p66
V6155
p67
sVdazzle_poison_touch
p68
V5233
p69
sVspecial_bonus_unique_dragon_knight
p70
V6090
p71
sVspecial_bonus_mp_regen_175
p72
V6926
p73
sVnpc_dota_hero_tiny
p74
Vtiny
p75
sVspecial_bonus_unique_venomancer
p76
V6058
p77
sVchen
p78
Vnpc_dota_hero_chen
p79
sVitem_talisman_of_evasion
p80
V32
p81
sVtreant protector
p82
Vnpc_dota_hero_treant
p83
sVitem_recipe_force_staff
p84
V101
p85
sVbane_enfeeble
p86
V5012
p87
sValchemist_goblins_greed
p88
V5368
p89
sVnpc_dota_warlock_golem_1
p90
Vwarlock golem
p91
sVnpc_dota_warlock_golem_2
p92
Vwarlock golem
p93
sVnpc_dota_warlock_golem_3
p94
Vwarlock golem
p95
sVinvoker_ghost_walk
p96
V5381
p97
sVspecial_bonus_respawn_reduction_60
p98
V6059
p99
sVnpc_dota_neutral_alpha_wolf
p100
Valpha wolf
p101
sVnpc_dota_juggernaut_healing_ward
p102
Vhealing ward
p103
sVoutworld devourer
p104
Vnpc_dota_hero_obsidian_destroyer
p105
sVmedusa_split_shot
p106
V5504
p107
sVterrorblade_conjure_image
p108
V5620
p109
sVgreevil_time_lock
p110
V5555
p111
sVitem_recipe_vanguard
p112
V124
p113
sVspawnlord_aura
p114
V6125
p115
sVnpc_dota_hero_terrorblade
p116
Vterrorblade
p117
sVnpc_dota_goodguys_tower2_mid
p118
Vtower
p119
sValchemist
p120
Vnpc_dota_hero_alchemist
p121
sVnpc_dota_neutral_centaur_outrunner
p122
Vcentaur courser
p123
sVpangolier_swashbuckle
p124
V6344
p125
sVspecial_bonus_hp_300
p126
V5993
p127
sVdark_seer_surge
p128
V5257
p129
sVnpc_dota_hero_dark_seer
p130
Vdark seer
p131
sVspecial_bonus_unique_warlock_4
p132
V6505
p133
sVspecial_bonus_unique_warlock_5
p134
V6982
p135
sVspecial_bonus_unique_warlock_6
p136
V6986
p137
sVriki_blink_strike
p138
V5143
p139
sVspecial_bonus_unique_warlock_1
p140
V6053
p141
sVspecial_bonus_unique_warlock_2
p142
V6054
p143
sVspecial_bonus_unique_warlock_3
p144
V6412
p145
sVsandking_caustic_finale
p146
V5104
p147
sVspecial_bonus_unique_slark_2
p148
V6892
p149
sVspecial_bonus_unique_slark_3
p150
V6893
p151
sVspecial_bonus_unique_slark_4
p152
V6894
p153
sVpudge_meat_hook
p154
V5075
p155
sVnpc_dota_hero_night_stalker
p156
Vnight stalker
p157
sVmonkey_king_boundless_strike
p158
V5716
p159
sVspecial_bonus_unique_night_stalker
p160
V6129
p161
sVnpc_dota_badguys_melee_rax_bot
p162
Vmelee barracks
p163
sVoracle_purifying_flames
p164
V5639
p165
sVabyssal_underlord_atrophy_aura
p166
V5615
p167
sVnpc_dota_looping_sound
p168
g168
sVitem_recipe_desolator
p169
V167
p170
sVnpc_dota_goodguys_tower2_top
p171
Vtower
p172
sVpudge
p173
Vnpc_dota_hero_pudge
p174
sVnpc_dota_neutral_enraged_wildkin
p175
Vwildwing ripper
p176
sVphantom lancer
p177
Vnpc_dota_hero_phantom_lancer
p178
sVgreevil_cold_snap
p179
V5530
p180
sVmagnataur_reverse_polarity
p181
V5521
p182
sVitem_rod_of_atos
p183
V206
p184
sVspecial_bonus_intelligence_20
p185
V5995
p186
sVitem_vanguard
p187
V125
p188
sVomniknight
p189
Vnpc_dota_hero_omniknight
p190
sVitem_heart
p191
V114
p192
sVaxe_culling_blade
p193
V5010
p194
sVspecial_bonus_unique_weaver_1
p195
V6200
p196
sVspecial_bonus_unique_weaver_2
p197
V6131
p198
sVspecial_bonus_unique_weaver_3
p199
V6988
p200
sVspecial_bonus_unique_weaver_4
p201
V6989
p202
sVspecial_bonus_unique_weaver_5
p203
V6990
p204
sVitem_hyperstone
p205
V55
p206
sVroquelaire
p207
Vnpc_dota_roquelaire
p208
sVitem_cloak
p209
V31
p210
sVspecial_bonus_hp_275
p211
V6311
p212
sVsniper_shrapnel
p213
V5154
p214
sVitem_recipe_mjollnir
p215
V157
p216
sVspecial_bonus_unique_tinker_3
p217
V6953
p218
sVspecial_bonus_unique_tinker_2
p219
V6952
p220
sVspecial_bonus_agility_30
p221
V6406
p222
sVitem_recipe_refresher
p223
V109
p224
sVnpc_dota_neutral_harpy_storm
p225
Vharpy stormcrafter
p226
sVspecial_bonus_unique_phantom_assassin
p227
V6192
p228
sVclockwerk
p229
Vnpc_dota_hero_rattletrap
p230
sVnpc_dota_warlock_golem_scepter_1
p231
Vwarlock golem
p232
sVitem_recipe_vladmir
p233
V80
p234
sVspecial_bonus_gold_income_50
p235
V6318
p236
sVancient stalker
p237
Vnpc_dota_neutral_jungle_stalker
p238
sVforest_troll_high_priest_mana_aura
p239
V5491
p240
sVitem_recipe_heart
p241
V113
p242
sVrubick
p243
Vnpc_dota_hero_rubick
p244
sVenchantress
p245
Vnpc_dota_hero_enchantress
p246
sVitem_recipe_ancient_janggo
p247
V184
p248
sVvenomancer_plague_ward
p249
V5180
p250
sVnpc_dota_broodmother_web
p251
Vspin web
p252
sVelder_titan_echo_stomp
p253
V5589
p254
sVspecial_bonus_attack_range_300
p255
V6051
p256
sVdrow_ranger_trueshot
p257
V5021
p258
sVitem_necronomicon_2
p259
V193
p260
sVitem_necronomicon_3
p261
V194
p262
sVspecial_bonus_unique_underlord
p263
V6019
p264
sVitem_gauntlets
p265
V13
p266
sVspecial_bonus_unique_spirit_breaker_2
p267
V6296
p268
sVspecial_bonus_unique_spirit_breaker_3
p269
V6543
p270
sVspecial_bonus_unique_spirit_breaker_1
p271
V6149
p272
sVcrafty megagreevil
p273
Vnpc_dota_greevil_miniboss_yellow
p274
sVdragon_knight_elder_dragon_form
p275
V5229
p276
sVitem_power_treads
p277
V63
p278
sVitem_javelin
p279
V7
sVspecial_bonus_unique_necrophos_2
p280
V6703
p281
sVpuck
p282
Vnpc_dota_hero_puck
p283
sVlycan_howl
p284
V5396
p285
sVfaceless_void_backtrack
p286
V5183
p287
sVblue_dragonspawn_sorcerer_evasion
p288
V5325
p289
sVnpc_dota_neutral_kobold_tunneler
p290
Vkobold soldier
p291
sVitem_recipe_blade_mail
p292
V126
p293
sVitem_spirit_vessel
p294
V267
p295
sVnpc_dota_hero_lion
p296
Vlion
p297
sVbatrider_flamebreak
p298
V5321
p299
sValpha_wolf_command_aura
p300
V5309
p301
sVitem_recipe_wraith_band
p302
V74
p303
sVnpc_dota_hero_shadow_demon
p304
Vshadow demon
p305
sVmedusa
p306
Vnpc_dota_hero_medusa
p307
sVroshan_spell_block
p308
V5213
p309
sVhill troll priest
p310
Vnpc_dota_neutral_forest_troll_high_priest
p311
sVtiny_toss
p312
V5107
p313
sVnpc_dota_lesser_eidolon
p314
Vlesser eidolon
p315
sVnpc_dota_badguys_siege_upgraded
p316
Vsuper siege creep
p317
sVspecial_bonus_attack_speed_80
p318
V6030
p319
sVviper_corrosive_skin
p320
V5220
p321
sVitem_orb_of_venom
p322
V181
p323
sVitem_recipe_nullifier
p324
V224
p325
sVspecial_bonus_unique_omniknight_1
p326
V5981
p327
sVspecial_bonus_unique_omniknight_2
p328
V6300
p329
sVspecial_bonus_unique_omniknight_3
p330
V6709
p331
sVspecial_bonus_unique_phantom_assassin_3
p332
V6848
p333
sVspecial_bonus_unique_phantom_assassin_2
p334
V6847
p335
sVnpc_dota_neutral_harpy_scout
p336
Vharpy scout
p337
sVgiant_wolf_critical_strike
p338
V5307
p339
sVcourier_transfer_items
p340
V5206
p341
sg337
g336
sVitem_mantle
p342
V15
p343
sVattribute_bonus
p344
V5002
p345
sVbounty_hunter_shuriken_toss
p346
V5285
p347
sVtinker_rearm
p348
V5153
p349
sVancient_apparition_chilling_touch
p350
V5347
p351
sVitem_recipe_sheepstick
p352
V95
p353
sVroshan_halloween_wave_of_force
p354
V9993
p355
sVbatrider_firefly
p356
V5322
p357
sS'ability_order'
p358
(dp359
Vmega siege creep
p360
(lp361
V
aV
aV
aV
aV
aV
aV
aV
asVnaga siren
p362
(lp363
Vnaga_siren_mirror_image
p364
aVnaga_siren_ensnare
p365
aVnaga_siren_rip_tide
p366
aVgeneric_hidden
p367
aVgeneric_hidden
p368
aVnaga_siren_song_of_the_siren
p369
aVnaga_siren_song_of_the_siren_cancel
p370
aVspecial_bonus_movement_speed_25
p371
aVspecial_bonus_unique_naga_siren_4
p372
aVspecial_bonus_agility_15
p373
aVspecial_bonus_strength_14
p374
aVspecial_bonus_unique_naga_siren_2
p375
aVspecial_bonus_unique_naga_siren
p376
aVspecial_bonus_evasion_30
p377
aVspecial_bonus_unique_naga_siren_3
p378
asVradiant's ancient
p379
(lp380
Vbackdoor_protection_in_base
p381
aV
aV
aV
aV
aV
aV
aV
asVdivine megagreevil
p382
(lp383
Vgreevil_miniboss_white_purification
p384
aVgreevil_miniboss_white_degen_aura
p385
aVgreevil_miniboss_sight
p386
aV
asVbeetle
p387
(lp388
V
aV
aV
aV
asVdiretide crawler
p389
(lp390
V
aV
aV
aV
aV
aV
aV
aV
asVnpc_dota_wisp_spirit
p391
(lp392
V
aV
aV
aV
asVmega ranged creep
p393
(lp394
V
aV
aV
aV
aV
aV
aV
aV
asg306
(lp395
Vmedusa_split_shot
p396
aVmedusa_mystic_snake
p397
aVmedusa_mana_shield
p398
aVgeneric_hidden
p399
aVgeneric_hidden
p400
aVmedusa_stone_gaze
p401
aVspecial_bonus_attack_damage_20
p402
aVspecial_bonus_evasion_12
p403
aVspecial_bonus_attack_speed_30
p404
aVspecial_bonus_unique_medusa_3
p405
aVspecial_bonus_mp_800
p406
aVspecial_bonus_unique_medusa
p407
aVspecial_bonus_unique_medusa_2
p408
aVspecial_bonus_unique_medusa_4
p409
asg310
(lp410
Vforest_troll_high_priest_heal
p411
aVforest_troll_high_priest_mana_aura
p412
aV
aV
asVmelee creep
p413
(lp414
V
aV
aV
aV
aV
aV
aV
aV
asg101
(lp415
Valpha_wolf_critical_strike
p416
aValpha_wolf_command_aura
p417
aV
aV
asVnpc_dota_treant_eyes
p418
(lp419
V
aV
aV
aV
aV
asVfrozen megagreevil
p420
(lp421
Vgreevil_miniboss_blue_cold_feet
p422
aVgreevil_miniboss_blue_ice_vortex
p423
aVgreevil_miniboss_sight
p424
aV
asVhellbear smasher
p425
(lp426
Vpolar_furbolg_ursa_warrior_thunder_clap
p427
aVcentaur_khan_endurance_aura
p428
aV
aV
asg207
(lp429
V
aV
aV
aV
asVfell spirit
p430
(lp431
V
aV
aV
aV
asVproximity mine
p432
(lp433
V
aV
aV
aV
asVnpc_dota_halloween_chaos_unit
p434
(lp435
V
aV
aV
aV
aV
aV
aV
aV
asVspiderite
p436
(lp437
V
aV
aV
aV
aV
aV
aV
aV
asVundying
p438
(lp439
Vundying_decay
p440
aVundying_soul_rip
p441
aVundying_tombstone
p442
aVgeneric_hidden
p443
aVgeneric_hidden
p444
aVundying_flesh_golem
p445
aVspecial_bonus_cast_range_100
p446
aVspecial_bonus_hp_regen_8
p447
aVspecial_bonus_unique_undying_3
p448
aVspecial_bonus_unique_undying_4
p449
aVspecial_bonus_unique_undying
p450
aVspecial_bonus_unique_undying_5
p451
aVspecial_bonus_reincarnation_200
p452
aVspecial_bonus_unique_undying_2
p453
asVriki
p454
(lp455
Vriki_smoke_screen
p456
aVriki_blink_strike
p457
aVriki_permanent_invisibility
p458
aVgeneric_hidden
p459
aVgeneric_hidden
p460
aVriki_tricks_of_the_trade
p461
aVspecial_bonus_hp_regen_5
p462
aVspecial_bonus_agility_8
p463
aVspecial_bonus_20_crit_15
p464
aVspecial_bonus_unique_riki_2
p465
aVspecial_bonus_unique_riki_1
p466
aVspecial_bonus_unique_riki_3
p467
aVspecial_bonus_unique_riki_4
p468
aVspecial_bonus_unique_riki_5
p469
asVnpc_dota_roshan_halloween_minion
p470
(lp471
V
aV
aV
aV
aV
aV
aV
aV
asVdire year beast
p472
(lp473
Vcny_beast_force_attack
p474
aVcny_beast_teleport
p475
aV
aV
aV
aV
aV
aV
asVsiege creep
p476
(lp477
V
aV
aV
aV
aV
aV
aV
aV
asVtusk
p478
(lp479
Vtusk_ice_shards
p480
aVtusk_snowball
p481
aVtusk_frozen_sigil
p482
aVtusk_walrus_kick
p483
aVgeneric_hidden
p484
aVtusk_walrus_punch
p485
aVtusk_launch_snowball
p486
aVspecial_bonus_exp_boost_40
p487
aVspecial_bonus_gold_income_15
p488
aVspecial_bonus_hp_350
p489
aVspecial_bonus_unique_tusk_2
p490
aVspecial_bonus_unique_tusk_3
p491
aVspecial_bonus_unique_tusk
p492
aVspecial_bonus_unique_tusk_4
p493
aVspecial_bonus_unique_tusk_5
p494
asVsuper ranged creep
p495
(lp496
V
aV
aV
aV
aV
aV
aV
aV
asVnpc_dota_stormspirit_remnant
p497
(lp498
V
aV
aV
aV
asVsniper
p499
(lp500
Vsniper_shrapnel
p501
aVsniper_headshot
p502
aVsniper_take_aim
p503
aVgeneric_hidden
p504
aVgeneric_hidden
p505
aVsniper_assassinate
p506
aVspecial_bonus_cooldown_reduction_15
p507
aVspecial_bonus_attack_damage_20
p508
aVspecial_bonus_attack_speed_40
p509
aVspecial_bonus_unique_sniper_1
p510
aVspecial_bonus_unique_sniper_3
p511
aVspecial_bonus_unique_sniper_4
p512
aVspecial_bonus_attack_range_125
p513
aVspecial_bonus_unique_sniper_2
p514
asg157
(lp515
Vnight_stalker_void
p516
aVnight_stalker_crippling_fear
p517
aVnight_stalker_hunter_in_the_night
p518
aVgeneric_hidden
p519
aVgeneric_hidden
p520
aVnight_stalker_darkness
p521
aVspecial_bonus_hp_200
p522
aVspecial_bonus_mp_200
p523
aVspecial_bonus_strength_15
p524
aVspecial_bonus_cast_range_150
p525
aVspecial_bonus_movement_speed_50
p526
aVspecial_bonus_attack_damage_50
p527
aVspecial_bonus_unique_night_stalker_2
p528
aVspecial_bonus_unique_night_stalker
p529
asg131
(lp530
Vdark_seer_vacuum
p531
aVdark_seer_ion_shell
p532
aVdark_seer_surge
p533
aVgeneric_hidden
p534
aVgeneric_hidden
p535
aVdark_seer_wall_of_replica
p536
aVspecial_bonus_evasion_12
p537
aVspecial_bonus_attack_damage_90
p538
aVspecial_bonus_hp_regen_12
p539
aVspecial_bonus_unique_dark_seer_2
p540
aVspecial_bonus_cooldown_reduction_15
p541
aVspecial_bonus_unique_dark_seer_3
p542
aVspecial_bonus_unique_dark_seer_4
p543
aVspecial_bonus_unique_dark_seer
p544
asg337
(lp545
V
aV
aV
aV
asVpugna
p546
(lp547
Vpugna_nether_blast
p548
aVpugna_decrepify
p549
aVpugna_nether_ward
p550
aVgeneric_hidden
p551
aVgeneric_hidden
p552
aVpugna_life_drain
p553
aVspecial_bonus_movement_speed_25
p554
aVspecial_bonus_hp_225
p555
aVspecial_bonus_unique_pugna_4
p556
aVspecial_bonus_unique_pugna_6
p557
aVspecial_bonus_unique_pugna_1
p558
aVspecial_bonus_unique_pugna_5
p559
aVspecial_bonus_unique_pugna_2
p560
aVspecial_bonus_unique_pugna_3
p561
asVstone remnant
p562
(lp563
V
aV
aV
aV
asVsatyr mindstealer
p564
(lp565
Vsatyr_soulstealer_mana_burn
p566
aV
aV
aV
asVranged barracks
p567
(lp568
Vbackdoor_protection_in_base
p569
aV
aV
aV
aV
aV
aV
aV
asVwitch doctor
p570
(lp571
Vwitch_doctor_paralyzing_cask
p572
aVwitch_doctor_voodoo_restoration
p573
aVwitch_doctor_maledict
p574
aVgeneric_hidden
p575
aVgeneric_hidden
p576
aVwitch_doctor_death_ward
p577
aVspecial_bonus_attack_damage_75
p578
aVspecial_bonus_armor_5
p579
aVspecial_bonus_unique_witch_doctor_3
p580
aVspecial_bonus_gold_income_20
p581
aVspecial_bonus_unique_witch_doctor_1
p582
aVspecial_bonus_unique_witch_doctor_4
p583
aVspecial_bonus_unique_witch_doctor_2
p584
aVspecial_bonus_unique_witch_doctor_5
p585
asVnpc_dota_rattletrap_rocket
p586
(lp587
V
aV
aV
aV
asVbane
p588
(lp589
Vbane_enfeeble
p590
aVbane_brain_sap
p591
aVbane_nightmare
p592
aVgeneric_hidden
p593
aVgeneric_hidden
p594
aVbane_fiends_grip
p595
aVbane_nightmare_end
p596
aVspecial_bonus_armor_6
p597
aVspecial_bonus_cast_range_100
p598
aVspecial_bonus_unique_bane_4
p599
aVspecial_bonus_exp_boost_40
p600
aVspecial_bonus_unique_bane_1
p601
aVspecial_bonus_movement_speed_75
p602
aVspecial_bonus_unique_bane_2
p603
aVspecial_bonus_unique_bane_3
p604
asVwindranger
p605
(lp606
Vwindrunner_shackleshot
p607
aVwindrunner_powershot
p608
aVwindrunner_windrun
p609
aVgeneric_hidden
p610
aVgeneric_hidden
p611
aVwindrunner_focusfire
p612
aVspecial_bonus_mp_regen_175
p613
aVspecial_bonus_unique_windranger_2
p614
aVspecial_bonus_unique_windranger_3
p615
aVspecial_bonus_attack_range_100
p616
aVspecial_bonus_unique_windranger_5
p617
aVspecial_bonus_unique_windranger
p618
aVspecial_bonus_unique_windranger_4
p619
aVspecial_bonus_cooldown_reduction_30
p620
asg42
(lp621
V
aV
aV
aV
asVancient rock golem
p622
(lp623
V
aV
aV
aV
asVancient rumblehide
p624
(lp625
V
aV
aV
aV
asVhill troll berserker
p626
(lp627
V
aV
aV
aV
asVkobold
p628
(lp629
V
aV
aV
aV
asVwraith king skeleton
p630
(lp631
V
aV
aV
aV
aV
aV
aV
aV
asVrotten greevil minion
p632
(lp633
V
aV
aV
aV
asVplague ward
p634
(lp635
V
aV
aV
aV
aV
asVember spirit
p636
(lp637
sg56
(lp638
Vbatrider_sticky_napalm
p639
aVbatrider_flamebreak
p640
aVbatrider_firefly
p641
aVgeneric_hidden
p642
aVgeneric_hidden
p643
aVbatrider_flaming_lasso
p644
aVspecial_bonus_spell_amplify_6
p645
aVspecial_bonus_armor_5
p646
aVspecial_bonus_unique_batrider_3
p647
aVspecial_bonus_hp_300
p648
aVspecial_bonus_cooldown_reduction_15
p649
aVspecial_bonus_movement_speed_50
p650
aVspecial_bonus_unique_batrider_1
p651
aVspecial_bonus_unique_batrider_2
p652
asVsuper siege creep
p653
(lp654
V
aV
aV
aV
aV
aV
aV
aV
asg103
(lp655
V
aV
aV
aV
aV
aV
aV
aV
asVearth spirit
p656
(lp657
Vearth_spirit_boulder_smash
p658
aVearth_spirit_rolling_boulder
p659
aVearth_spirit_geomagnetic_grip
p660
aVearth_spirit_stone_caller
p661
aVearth_spirit_petrify
p662
aVearth_spirit_magnetize
p663
aVspecial_bonus_intelligence_10
p664
aVspecial_bonus_attack_damage_40
p665
aVspecial_bonus_armor_7
p666
aVspecial_bonus_unique_earth_spirit
p667
aVspecial_bonus_spell_amplify_15
p668
aVspecial_bonus_gold_income_25
p669
aVspecial_bonus_unique_earth_spirit_2
p670
aVspecial_bonus_unique_earth_spirit_3
p671
asVabaddon
p672
(lp673
Vabaddon_death_coil
p674
aVabaddon_aphotic_shield
p675
aVabaddon_frostmourne
p676
aVgeneric_hidden
p677
aVgeneric_hidden
p678
aVabaddon_borrowed_time
p679
aVspecial_bonus_movement_speed_25
p680
aVspecial_bonus_exp_boost_20
p681
aVspecial_bonus_armor_6
p682
aVspecial_bonus_unique_abaddon_2
p683
aVspecial_bonus_cooldown_reduction_15
p684
aVspecial_bonus_attack_damage_90
p685
aVspecial_bonus_unique_abaddon
p686
aVspecial_bonus_unique_abaddon_3
p687
asVkunkka
p688
(lp689
Vkunkka_torrent
p690
aVkunkka_tidebringer
p691
aVkunkka_x_marks_the_spot
p692
aVgeneric_hidden
p693
aVgeneric_hidden
p694
aVkunkka_ghostship
p695
aVkunkka_return
p696
aVspecial_bonus_attack_damage_40
p697
aVspecial_bonus_armor_6
p698
aVspecial_bonus_hp_regen_10
p699
aVspecial_bonus_unique_kunkka_2
p700
aVspecial_bonus_unique_kunkka
p701
aVspecial_bonus_strength_25
p702
aVspecial_bonus_unique_kunkka_3
p703
aVspecial_bonus_unique_kunkka_4
p704
asVroshling
p705
(lp706
V
aV
aV
aV
aV
aV
aV
aV
asVparadox memorial
p707
(lp708
V
aV
aV
aV
aV
asVdire eidolon
p709
(lp710
V
aV
aV
aV
aV
aV
aV
aV
asVnpc_dota_invisible_vision_source
p711
(lp712
sVphoenix
p713
(lp714
Vphoenix_icarus_dive
p715
aVphoenix_fire_spirits
p716
aVphoenix_sun_ray
p717
aVphoenix_sun_ray_toggle_move
p718
aVgeneric_hidden
p719
aVphoenix_supernova
p720
aVphoenix_launch_fire_spirit
p721
aVphoenix_icarus_dive_stop
p722
aVphoenix_sun_ray_stop
p723
aVspecial_bonus_gold_income_15
p724
aVspecial_bonus_spell_amplify_8
p725
aVspecial_bonus_unique_phoenix_3
p726
aVspecial_bonus_exp_boost_40
p727
aVspecial_bonus_unique_phoenix_4
p728
aVspecial_bonus_unique_phoenix_2
p729
aVspecial_bonus_unique_phoenix_1
p730
aVspecial_bonus_unique_phoenix_5
p731
asVscorching megagreevil
p732
(lp733
Vgreevil_miniboss_orange_dragon_slave
p734
aVgreevil_miniboss_orange_light_strike_array
p735
aVgreevil_miniboss_sight
p736
aV
asVweaver
p737
(lp738
Vweaver_the_swarm
p739
aVweaver_shukuchi
p740
aVweaver_geminate_attack
p741
aVgeneric_hidden
p742
aVgeneric_hidden
p743
aVweaver_time_lapse
p744
aVspecial_bonus_mana_break_20
p745
aVspecial_bonus_exp_boost_25
p746
aVspecial_bonus_strength_12
p747
aVspecial_bonus_unique_weaver_1
p748
aVspecial_bonus_unique_weaver_3
p749
aVspecial_bonus_unique_weaver_4
p750
aVspecial_bonus_unique_weaver_2
p751
aVspecial_bonus_unique_weaver_5
p752
asVcentaur warrunner
p753
(lp754
Vcentaur_hoof_stomp
p755
aVcentaur_double_edge
p756
aVcentaur_return
p757
aVgeneric_hidden
p758
aVgeneric_hidden
p759
aVcentaur_stampede
p760
aVspecial_bonus_evasion_10
p761
aVspecial_bonus_magic_resistance_10
p762
aVspecial_bonus_attack_damage_75
p763
aVspecial_bonus_unique_centaur_3
p764
aVspecial_bonus_unique_centaur_4
p765
aVspecial_bonus_strength_20
p766
aVspecial_bonus_unique_centaur_1
p767
aVspecial_bonus_unique_centaur_2
p768
asVvicious greevil minion
p769
(lp770
V
aV
aV
aV
asVclinkz
p771
(lp772
Vclinkz_strafe
p773
aVclinkz_searing_arrows
p774
aVclinkz_wind_walk
p775
aVgeneric_hidden
p776
aVgeneric_hidden
p777
aVclinkz_death_pact
p778
aVspecial_bonus_magic_resistance_12
p779
aVspecial_bonus_armor_5
p780
aVspecial_bonus_evasion_15
p781
aVspecial_bonus_unique_clinkz_1
p782
aVspecial_bonus_attack_range_100
p783
aVspecial_bonus_hp_regen_20
p784
aVspecial_bonus_unique_clinkz_2
p785
aVspecial_bonus_unique_clinkz_3
p786
asVearthshaker
p787
(lp788
Vearthshaker_fissure
p789
aVearthshaker_enchant_totem
p790
aVearthshaker_aftershock
p791
aVgeneric_hidden
p792
aVgeneric_hidden
p793
aVearthshaker_echo_slam
p794
aVspecial_bonus_attack_damage_30
p795
aVspecial_bonus_mp_250
p796
aVspecial_bonus_movement_speed_30
p797
aVspecial_bonus_armor_7
p798
aVspecial_bonus_unique_earthshaker_2
p799
aVspecial_bonus_unique_earthshaker_3
p800
aVspecial_bonus_magic_resistance_50
p801
aVspecial_bonus_unique_earthshaker
p802
asg291
(lp803
V
aV
aV
aV
asVgreater hawk
p804
(lp805
Vbeastmaster_hawk_invisibility
p806
aV
aV
aV
asVwarlock golem
p807
(lp808
Vwarlock_golem_flaming_fists
p809
aVwarlock_golem_permanent_immolation
p810
aV
aV
asVclever greevil minion
p811
(lp812
V
aV
aV
aV
asVvile greevil minion
p813
(lp814
V
aV
aV
aV
asVdoom shard
p815
(lp816
Vmud_golem_hurl_boulder
p817
aV
aV
aV
asg297
(lp818
Vlion_impale
p819
aVlion_voodoo
p820
aVlion_mana_drain
p821
aVgeneric_hidden
p822
aVgeneric_hidden
p823
aVlion_finger_of_death
p824
aVspecial_bonus_cast_range_75
p825
aVspecial_bonus_attack_damage_75
p826
aVspecial_bonus_unique_lion_3
p827
aVspecial_bonus_gold_income_15
p828
aVspecial_bonus_hp_500
p829
aVspecial_bonus_unique_lion
p830
aVspecial_bonus_unique_lion_2
p831
aVspecial_bonus_unique_lion_4
p832
asVnecrophos
p833
(lp834
Vnecrolyte_death_pulse
p835
aVnecrolyte_sadist
p836
aVnecrolyte_heartstopper_aura
p837
aVgeneric_hidden
p838
aVgeneric_hidden
p839
aVnecrolyte_reapers_scythe
p840
aVspecial_bonus_attack_damage_40
p841
aVspecial_bonus_strength_10
p842
aVspecial_bonus_hp_300
p843
aVspecial_bonus_movement_speed_30
p844
aVspecial_bonus_magic_resistance_20
p845
aVspecial_bonus_attack_speed_80
p846
aVspecial_bonus_unique_necrophos_2
p847
aVspecial_bonus_unique_necrophos
p848
asVearth
p849
(lp850
Vbrewmaster_earth_hurl_boulder
p851
aVbrewmaster_earth_spell_immunity
p852
aVbrewmaster_earth_pulverize
p853
aVbrewmaster_thunder_clap
p854
aVgeneric_hidden
p855
aVgeneric_hidden
p856
asg78
(lp857
Vchen_penitence
p858
aVchen_test_of_faith
p859
aVchen_holy_persuasion
p860
aVgeneric_hidden
p861
aVgeneric_hidden
p862
aVchen_hand_of_god
p863
aVspecial_bonus_exp_boost_35
p864
aVspecial_bonus_cast_range_200
p865
aVspecial_bonus_armor_7
p866
aVspecial_bonus_unique_chen_3
p867
aVspecial_bonus_gold_income_30
p868
aVspecial_bonus_unique_chen_4
p869
aVspecial_bonus_unique_chen_1
p870
aVspecial_bonus_unique_chen_2
p871
asVbrittle greevil minion
p872
(lp873
V
aV
aV
aV
asVtroll warlord
p874
(lp875
Vtroll_warlord_berserkers_rage
p876
aVtroll_warlord_whirling_axes_ranged
p877
aVtroll_warlord_whirling_axes_melee
p878
aVtroll_warlord_fervor
p879
aVgeneric_hidden
p880
aVtroll_warlord_battle_trance
p881
aVspecial_bonus_agility_10
p882
aVspecial_bonus_hp_200
p883
aVspecial_bonus_unique_troll_warlord_2
p884
aVspecial_bonus_unique_troll_warlord_3
p885
aVspecial_bonus_evasion_20
p886
aVspecial_bonus_attack_damage_50
p887
aVspecial_bonus_unique_troll_warlord
p888
aVspecial_bonus_unique_troll_warlord_4
p889
asg82
(lp890
Vtreant_natures_guise
p891
aVtreant_leech_seed
p892
aVtreant_living_armor
p893
aVtreant_eyes_in_the_forest
p894
aVgeneric_hidden
p895
aVtreant_overgrowth
p896
aVspecial_bonus_exp_boost_35
p897
aVspecial_bonus_cooldown_reduction_10
p898
aVspecial_bonus_attack_damage_90
p899
aVspecial_bonus_unique_treant_3
p900
aVspecial_bonus_unique_treant_4
p901
aVspecial_bonus_unique_treant_2
p902
aVspecial_bonus_unique_treant
p903
aVspecial_bonus_unique_treant_5
p904
asVdisruptor
p905
(lp906
Vdisruptor_thunder_strike
p907
aVdisruptor_glimpse
p908
aVdisruptor_kinetic_field
p909
aVgeneric_hidden
p910
aVgeneric_hidden
p911
aVdisruptor_static_storm
p912
aVspecial_bonus_hp_200
p913
aVspecial_bonus_unique_disruptor_3
p914
aVspecial_bonus_cast_range_150
p915
aVspecial_bonus_unique_disruptor_2
p916
aVspecial_bonus_gold_income_30
p917
aVspecial_bonus_unique_disruptor
p918
aVspecial_bonus_unique_disruptor_4
p919
aVspecial_bonus_unique_disruptor_5
p920
asVspirit breaker
p921
(lp922
Vspirit_breaker_charge_of_darkness
p923
aVspirit_breaker_empowering_haste
p924
aVspirit_breaker_greater_bash
p925
aVgeneric_hidden
p926
aVgeneric_hidden
p927
aVspirit_breaker_nether_strike
p928
aVspecial_bonus_night_vision_400
p929
aVspecial_bonus_armor_5
p930
aVspecial_bonus_hp_regen_10
p931
aVspecial_bonus_attack_damage_40
p932
aVspecial_bonus_unique_spirit_breaker_3
p933
aVspecial_bonus_unique_spirit_breaker_2
p934
aVspecial_bonus_unique_spirit_breaker_1
p935
aVspecial_bonus_hp_800
p936
asVnpc_dota_death_prophet_torment
p937
(lp938
V
aV
aV
aV
asVogre frostmage
p939
(lp940
Vogre_magi_frost_armor
p941
aV
aV
aV
asVvhoul assassin
p942
(lp943
Vgnoll_assassin_envenomed_weapon
p944
aV
aV
aV
asVlegion commander
p945
(lp946
Vlegion_commander_overwhelming_odds
p947
aVlegion_commander_press_the_attack
p948
aVlegion_commander_moment_of_courage
p949
aVgeneric_hidden
p950
aVgeneric_hidden
p951
aVlegion_commander_duel
p952
aVspecial_bonus_strength_8
p953
aVspecial_bonus_exp_boost_25
p954
aVspecial_bonus_attack_speed_30
p955
aVspecial_bonus_unique_legion_commander_4
p956
aVspecial_bonus_movement_speed_60
p957
aVspecial_bonus_unique_legion_commander_3
p958
aVspecial_bonus_unique_legion_commander
p959
aVspecial_bonus_unique_legion_commander_2
p960
asg61
(lp961
Vantimage_mana_break
p962
aVantimage_blink
p963
aVantimage_spell_shield
p964
aVgeneric_hidden
p965
aVgeneric_hidden
p966
aVantimage_mana_void
p967
aVspecial_bonus_hp_175
p968
aVspecial_bonus_attack_speed_20
p969
aVspecial_bonus_unique_antimage
p970
aVspecial_bonus_agility_15
p971
aVspecial_bonus_unique_antimage_5
p972
aVspecial_bonus_unique_antimage_3
p973
aVspecial_bonus_unique_antimage_4
p974
aVspecial_bonus_unique_antimage_2
p975
asVspirit bear
p976
(lp977
Vbear_empty1
p978
aVbear_empty2
p979
aVlone_druid_savage_roar_bear
p980
aV
asVdeath prophet
p981
(lp982
Vdeath_prophet_carrion_swarm
p983
aVdeath_prophet_silence
p984
aVdeath_prophet_spirit_siphon
p985
aVgeneric_hidden
p986
aVgeneric_hidden
p987
aVdeath_prophet_exorcism
p988
aVspecial_bonus_attack_damage_50
p989
aVspecial_bonus_magic_resistance_12
p990
aVspecial_bonus_unique_death_prophet_3
p991
aVspecial_bonus_cast_range_150
p992
aVspecial_bonus_hp_500
p993
aVspecial_bonus_unique_death_prophet_2
p994
aVspecial_bonus_unique_death_prophet_4
p995
aVspecial_bonus_unique_death_prophet
p996
asVdiretide zombie
p997
(lp998
V
aV
aV
aV
aV
aV
aV
aV
asVdrow ranger
p999
(lp1000
Vdrow_ranger_frost_arrows
p1001
aVdrow_ranger_wave_of_silence
p1002
aVdrow_ranger_trueshot
p1003
aVgeneric_hidden
p1004
aVgeneric_hidden
p1005
aVdrow_ranger_marksmanship
p1006
aVspecial_bonus_movement_speed_20
p1007
aVspecial_bonus_all_stats_5
p1008
aVspecial_bonus_attack_speed_25
p1009
aVspecial_bonus_unique_drow_ranger_2
p1010
aVspecial_bonus_unique_drow_ranger_3
p1011
aVspecial_bonus_unique_drow_ranger_4
p1012
aVspecial_bonus_unique_drow_ranger_1
p1013
aVspecial_bonus_cooldown_reduction_50
p1014
asVinvoker
p1015
(lp1016
Vinvoker_quas
p1017
aVinvoker_wex
p1018
aVinvoker_exort
p1019
aVinvoker_empty1
p1020
aVinvoker_empty2
p1021
aVinvoker_invoke
p1022
aVinvoker_cold_snap
p1023
aVinvoker_ghost_walk
p1024
aVinvoker_tornado
p1025
aVinvoker_emp
p1026
aVinvoker_alacrity
p1027
aVinvoker_chaos_meteor
p1028
aVinvoker_sun_strike
p1029
aVinvoker_forge_spirit
p1030
aVinvoker_ice_wall
p1031
aVinvoker_deafening_blast
p1032
aVspecial_bonus_unique_invoker_8
p1033
aVspecial_bonus_unique_invoker_6
p1034
aVspecial_bonus_unique_invoker_1
p1035
aVspecial_bonus_unique_invoker_7
p1036
aVspecial_bonus_unique_invoker_4
p1037
aVspecial_bonus_unique_invoker_5
p1038
aVspecial_bonus_unique_invoker_2
p1039
aVspecial_bonus_unique_invoker_3
p1040
asVjuggernaut
p1041
(lp1042
Vjuggernaut_blade_fury
p1043
aVjuggernaut_healing_ward
p1044
aVjuggernaut_blade_dance
p1045
aVgeneric_hidden
p1046
aVgeneric_hidden
p1047
aVjuggernaut_omni_slash
p1048
aVspecial_bonus_all_stats_5
p1049
aVspecial_bonus_movement_speed_20
p1050
aVspecial_bonus_unique_juggernaut
p1051
aVspecial_bonus_attack_speed_25
p1052
aVspecial_bonus_armor_10
p1053
aVspecial_bonus_unique_juggernaut_3
p1054
aVspecial_bonus_hp_600
p1055
aVspecial_bonus_unique_juggernaut_2
p1056
asVforged spirit
p1057
(lp1058
Vforged_spirit_melting_strike
p1059
aV
aV
aV
aV
aV
aV
aV
asVursa
p1060
(lp1061
Vursa_earthshock
p1062
aVursa_overpower
p1063
aVursa_fury_swipes
p1064
aVgeneric_hidden
p1065
aVgeneric_hidden
p1066
aVursa_enrage
p1067
aVspecial_bonus_mp_regen_175
p1068
aVspecial_bonus_strength_8
p1069
aVspecial_bonus_agility_16
p1070
aVspecial_bonus_unique_ursa_2
p1071
aVspecial_bonus_unique_ursa_3
p1072
aVspecial_bonus_unique_ursa_4
p1073
aVspecial_bonus_unique_ursa_5
p1074
aVspecial_bonus_unique_ursa
p1075
asg123
(lp1076
Vmudgolem_cloak_aura
p1077
aV
aV
aV
asVnpc_dota_techies_minefield_sign
p1078
(lp1079
V
aV
aV
aV
aV
asVlycan
p1080
(lp1081
Vlycan_summon_wolves
p1082
aVlycan_howl
p1083
aVlycan_feral_impulse
p1084
aVgeneric_hidden
p1085
aVgeneric_hidden
p1086
aVlycan_shapeshift
p1087
aVspecial_bonus_armor_5
p1088
aVspecial_bonus_attack_damage_20
p1089
aVspecial_bonus_unique_lycan_3
p1090
aVspecial_bonus_cooldown_reduction_12
p1091
aVspecial_bonus_unique_lycan_1
p1092
aVspecial_bonus_unique_lycan_4
p1093
aVspecial_bonus_unique_lycan_5
p1094
aVspecial_bonus_unique_lycan_2
p1095
asVshadow shaman
p1096
(lp1097
Vshadow_shaman_ether_shock
p1098
aVshadow_shaman_voodoo
p1099
aVshadow_shaman_shackles
p1100
aVgeneric_hidden
p1101
aVgeneric_hidden
p1102
aVshadow_shaman_mass_serpent_ward
p1103
aVspecial_bonus_hp_200
p1104
aVspecial_bonus_exp_boost_20
p1105
aVspecial_bonus_cast_range_125
p1106
aVspecial_bonus_unique_shadow_shaman_5
p1107
aVspecial_bonus_unique_shadow_shaman_2
p1108
aVspecial_bonus_unique_shadow_shaman_1
p1109
aVspecial_bonus_unique_shadow_shaman_3
p1110
aVspecial_bonus_unique_shadow_shaman_4
p1111
asVblessed greevil minion
p1112
(lp1113
V
aV
aV
aV
asVmeepo
p1114
(lp1115
Vmeepo_earthbind
p1116
aVmeepo_poof
p1117
aVmeepo_geostrike
p1118
aVgeneric_hidden
p1119
aVgeneric_hidden
p1120
aVmeepo_divided_we_stand
p1121
aVspecial_bonus_strength_7
p1122
aVspecial_bonus_attack_damage_20
p1123
aVspecial_bonus_lifesteal_10
p1124
aVspecial_bonus_unique_meepo_2
p1125
aVspecial_bonus_unique_meepo_3
p1126
aVspecial_bonus_evasion_15
p1127
aVspecial_bonus_hp_600
p1128
aVspecial_bonus_unique_meepo
p1129
asVflying courier
p1130
(lp1131
Vcourier_return_to_base
p1132
aVcourier_go_to_secretshop
p1133
aVcourier_return_stash_items
p1134
aVcourier_take_stash_items
p1135
aVcourier_transfer_items
p1136
aVcourier_shield
p1137
asVeidolon
p1138
(lp1139
V
aV
aV
aV
aV
aV
aV
aV
asg27
(lp1140
Vbroodmother_poison_sting
p1141
aVbroodmother_spawn_spiderite
p1142
aV
aV
aV
aV
aV
aV
asVfrozen sigil
p1143
(lp1144
V
aV
aV
aV
aV
aV
aV
aV
asVshard golem
p1145
(lp1146
Vmud_golem_hurl_boulder
p1147
aV
aV
aV
asg104
(lp1148
Vobsidian_destroyer_arcane_orb
p1149
aVobsidian_destroyer_astral_imprisonment
p1150
aVobsidian_destroyer_essence_aura
p1151
aVgeneric_hidden
p1152
aVgeneric_hidden
p1153
aVobsidian_destroyer_sanity_eclipse
p1154
aVspecial_bonus_hp_200
p1155
aVspecial_bonus_attack_speed_20
p1156
aVspecial_bonus_movement_speed_40
p1157
aVspecial_bonus_unique_outworld_devourer_2
p1158
aVspecial_bonus_strength_20
p1159
aVspecial_bonus_unique_outworld_devourer_3
p1160
aVspecial_bonus_unique_outworld_devourer
p1161
aVspecial_bonus_spell_lifesteal_15
p1162
asVnpc_dota_wraith_ghost
p1163
(lp1164
Vghost_frost_attack
p1165
aV
aV
aV
asVruthless megagreevil
p1166
(lp1167
Vgreevil_miniboss_red_earthshock
p1168
aVgreevil_miniboss_red_overpower
p1169
aVgreevil_miniboss_sight
p1170
aV
asVhill troll
p1171
(lp1172
V
aV
aV
aV
asVtinker
p1173
(lp1174
Vtinker_laser
p1175
aVtinker_heat_seeking_missile
p1176
aVtinker_march_of_the_machines
p1177
aVgeneric_hidden
p1178
aVgeneric_hidden
p1179
aVtinker_rearm
p1180
aVspecial_bonus_spell_amplify_6
p1181
aVspecial_bonus_cast_range_75
p1182
aVspecial_bonus_movement_speed_40
p1183
aVspecial_bonus_spell_lifesteal_10
p1184
aVspecial_bonus_attack_damage_100
p1185
aVspecial_bonus_unique_tinker_2
p1186
aVspecial_bonus_unique_tinker
p1187
aVspecial_bonus_unique_tinker_3
p1188
asVbroodmother
p1189
(lp1190
Vbroodmother_spawn_spiderlings
p1191
aVbroodmother_spin_web
p1192
aVbroodmother_incapacitating_bite
p1193
aVgeneric_hidden
p1194
aVgeneric_hidden
p1195
aVbroodmother_insatiable_hunger
p1196
aVspecial_bonus_unique_broodmother_3
p1197
aVspecial_bonus_hp_200
p1198
aVspecial_bonus_cooldown_reduction_20
p1199
aVspecial_bonus_exp_boost_35
p1200
aVspecial_bonus_unique_broodmother_4
p1201
aVspecial_bonus_attack_speed_50
p1202
aVspecial_bonus_unique_broodmother_1
p1203
aVspecial_bonus_unique_broodmother_2
p1204
asVastral spirit
p1205
(lp1206
Velder_titan_echo_stomp_spirit
p1207
aVelder_titan_return_spirit
p1208
aVelder_titan_natural_order_spirit
p1209
asVtoasty greevil minion
p1210
(lp1211
V
aV
aV
aV
asVhuskar
p1212
(lp1213
Vhuskar_inner_vitality
p1214
aVhuskar_burning_spear
p1215
aVhuskar_berserkers_blood
p1216
aVgeneric_hidden
p1217
aVgeneric_hidden
p1218
aVhuskar_life_break
p1219
aVspecial_bonus_hp_175
p1220
aVspecial_bonus_attack_damage_20
p1221
aVspecial_bonus_unique_huskar_2
p1222
aVspecial_bonus_lifesteal_15
p1223
aVspecial_bonus_strength_15
p1224
aVspecial_bonus_unique_huskar
p1225
aVspecial_bonus_attack_range_125
p1226
aVspecial_bonus_unique_huskar_3
p1227
asVnpc_dota_beastmaster_axe
p1228
(lp1229
V
aV
aV
aV
asVpangolier
p1230
(lp1231
Vpangolier_swashbuckle
p1232
aVpangolier_shield_crash
p1233
aVpangolier_heartpiercer
p1234
aVgeneric_hidden
p1235
aVgeneric_hidden
p1236
aVpangolier_gyroshell
p1237
aVpangolier_gyroshell_stop
p1238
aVspecial_bonus_mp_regen_2
p1239
aVspecial_bonus_movement_speed_25
p1240
aVspecial_bonus_unique_pangolier_2
p1241
aVspecial_bonus_attack_speed_30
p1242
aVspecial_bonus_unique_pangolier_3
p1243
aVspecial_bonus_strength_20
p1244
aVspecial_bonus_unique_pangolier_4
p1245
aVspecial_bonus_unique_pangolier_5
p1246
asVnature's prophet
p1247
(lp1248
Vfurion_sprout
p1249
aVfurion_teleportation
p1250
aVfurion_force_of_nature
p1251
aVgeneric_hidden
p1252
aVgeneric_hidden
p1253
aVfurion_wrath_of_nature
p1254
aVspecial_bonus_attack_damage_30
p1255
aVspecial_bonus_movement_speed_30
p1256
aVspecial_bonus_armor_8
p1257
aVspecial_bonus_unique_furion_2
p1258
aVspecial_bonus_attack_speed_40
p1259
aVspecial_bonus_unique_furion_4
p1260
aVspecial_bonus_unique_furion_3
p1261
aVspecial_bonus_unique_furion
p1262
asVtechies
p1263
(lp1264
Vtechies_land_mines
p1265
aVtechies_stasis_trap
p1266
aVtechies_suicide
p1267
aVtechies_focused_detonate
p1268
aVtechies_minefield_sign
p1269
aVtechies_remote_mines
p1270
aVspecial_bonus_exp_boost_30
p1271
aVspecial_bonus_unique_techies_3
p1272
aVspecial_bonus_unique_techies
p1273
aVspecial_bonus_mp_regen_4
p1274
aVspecial_bonus_movement_speed_75
p1275
aVspecial_bonus_gold_income_25
p1276
aVspecial_bonus_attack_damage_251
p1277
aVspecial_bonus_unique_techies_4
p1278
asVelder titan
p1279
(lp1280
Velder_titan_echo_stomp
p1281
aVelder_titan_ancestral_spirit
p1282
aVelder_titan_natural_order
p1283
aVgeneric_hidden
p1284
aVgeneric_hidden
p1285
aVelder_titan_earth_splitter
p1286
aVelder_titan_return_spirit
p1287
aVspecial_bonus_movement_speed_25
p1288
aVspecial_bonus_hp_200
p1289
aVspecial_bonus_magic_resistance_15
p1290
aVspecial_bonus_unique_elder_titan
p1291
aVspecial_bonus_attack_speed_70
p1292
aVspecial_bonus_unique_elder_titan_2
p1293
aVspecial_bonus_unique_elder_titan_3
p1294
aVspecial_bonus_lifesteal_100
p1295
asg189
(lp1296
Vomniknight_purification
p1297
aVomniknight_repel
p1298
aVomniknight_degen_aura
p1299
aVgeneric_hidden
p1300
aVgeneric_hidden
p1301
aVomniknight_guardian_angel
p1302
aVspecial_bonus_gold_income_15
p1303
aVspecial_bonus_unique_omniknight_4
p1304
aVspecial_bonus_exp_boost_35
p1305
aVspecial_bonus_attack_damage_90
p1306
aVspecial_bonus_unique_omniknight_2
p1307
aVspecial_bonus_mp_regen_3
p1308
aVspecial_bonus_unique_omniknight_1
p1309
aVspecial_bonus_unique_omniknight_3
p1310
asVscout hawk
p1311
(lp1312
V
aV
aV
aV
asVnecronomicon warrior
p1313
(lp1314
Vnecronomicon_warrior_mana_burn
p1315
aVnecronomicon_warrior_last_will
p1316
aVnecronomicon_warrior_sight
p1317
aV
aV
aV
aV
aV
asg117
(lp1318
Vterrorblade_reflection
p1319
aVterrorblade_conjure_image
p1320
aVterrorblade_metamorphosis
p1321
aVgeneric_hidden
p1322
aVgeneric_hidden
p1323
aVterrorblade_sunder
p1324
aVspecial_bonus_movement_speed_20
p1325
aVspecial_bonus_evasion_10
p1326
aVspecial_bonus_hp_300
p1327
aVspecial_bonus_attack_speed_25
p1328
aVspecial_bonus_all_stats_10
p1329
aVspecial_bonus_unique_terrorblade_2
p1330
aVspecial_bonus_unique_terrorblade
p1331
aVspecial_bonus_unique_terrorblade_3
p1332
asg120
(lp1333
Valchemist_acid_spray
p1334
aValchemist_unstable_concoction
p1335
aValchemist_goblins_greed
p1336
aVgeneric_hidden
p1337
aVgeneric_hidden
p1338
aValchemist_chemical_rage
p1339
aValchemist_unstable_concoction_throw
p1340
aVspecial_bonus_attack_speed_25
p1341
aVspecial_bonus_unique_alchemist
p1342
aVspecial_bonus_hp_350
p1343
aVspecial_bonus_attack_damage_50
p1344
aVspecial_bonus_cleave_25
p1345
aVspecial_bonus_unique_alchemist_2
p1346
aVspecial_bonus_unique_alchemist_3
p1347
aVspecial_bonus_unique_alchemist_4
p1348
asg168
(lp1349
sVnyx assassin
p1350
(lp1351
Vnyx_assassin_impale
p1352
aVnyx_assassin_mana_burn
p1353
aVnyx_assassin_spiked_carapace
p1354
aVnyx_assassin_burrow
p1355
aVgeneric_hidden
p1356
aVnyx_assassin_vendetta
p1357
aVnyx_assassin_unburrow
p1358
aVspecial_bonus_spell_amplify_6
p1359
aVspecial_bonus_gold_income_10
p1360
aVspecial_bonus_hp_325
p1361
aVspecial_bonus_movement_speed_35
p1362
aVspecial_bonus_unique_nyx
p1363
aVspecial_bonus_unique_nyx_2
p1364
aVspecial_bonus_agility_100
p1365
aVspecial_bonus_unique_nyx_3
p1366
asVqueen of pain
p1367
(lp1368
Vqueenofpain_shadow_strike
p1369
aVqueenofpain_blink
p1370
aVqueenofpain_scream_of_pain
p1371
aVgeneric_hidden
p1372
aVgeneric_hidden
p1373
aVqueenofpain_sonic_wave
p1374
aVspecial_bonus_attack_damage_25
p1375
aVspecial_bonus_strength_10
p1376
aVspecial_bonus_cooldown_reduction_12
p1377
aVspecial_bonus_attack_speed_40
p1378
aVspecial_bonus_spell_lifesteal_30
p1379
aVspecial_bonus_unique_queen_of_pain
p1380
aVspecial_bonus_unique_queen_of_pain_2
p1381
aVspecial_bonus_spell_block_20
p1382
asg305
(lp1383
Vshadow_demon_disruption
p1384
aVshadow_demon_soul_catcher
p1385
aVshadow_demon_shadow_poison
p1386
aVshadow_demon_shadow_poison_release
p1387
aVgeneric_hidden
p1388
aVshadow_demon_demonic_purge
p1389
aVspecial_bonus_unique_shadow_demon_6
p1390
aVspecial_bonus_exp_boost_25
p1391
aVspecial_bonus_movement_speed_40
p1392
aVspecial_bonus_unique_shadow_demon_4
p1393
aVspecial_bonus_unique_shadow_demon_2
p1394
aVspecial_bonus_unique_shadow_demon_3
p1395
aVspecial_bonus_unique_shadow_demon_1
p1396
aVspecial_bonus_unique_shadow_demon_5
p1397
asg252
(lp1398
Vbroodmother_spin_web_destroy
p1399
aV
aV
aV
asVslark
p1400
(lp1401
Vslark_dark_pact
p1402
aVslark_pounce
p1403
aVslark_essence_shift
p1404
aVgeneric_hidden
p1405
aVgeneric_hidden
p1406
aVslark_shadow_dance
p1407
aVspecial_bonus_strength_8
p1408
aVspecial_bonus_agility_10
p1409
aVspecial_bonus_attack_speed_30
p1410
aVspecial_bonus_lifesteal_20
p1411
aVspecial_bonus_unique_slark_2
p1412
aVspecial_bonus_unique_slark
p1413
aVspecial_bonus_unique_slark_3
p1414
aVspecial_bonus_unique_slark_4
p1415
asVmirana
p1416
(lp1417
Vmirana_starfall
p1418
aVmirana_arrow
p1419
aVmirana_leap
p1420
aVgeneric_hidden
p1421
aVgeneric_hidden
p1422
aVmirana_invis
p1423
aVspecial_bonus_attack_damage_20
p1424
aVspecial_bonus_hp_200
p1425
aVspecial_bonus_unique_mirana_3
p1426
aVspecial_bonus_unique_mirana_1
p1427
aVspecial_bonus_spell_amplify_12
p1428
aVspecial_bonus_mana_break_25
p1429
aVspecial_bonus_unique_mirana_2
p1430
aVspecial_bonus_unique_mirana_4
p1431
asVsuper melee creep
p1432
(lp1433
V
aV
aV
aV
aV
aV
aV
aV
asVnpc_dota_target_dummy
p1434
(lp1435
V
aV
aV
aV
asVlifestealer
p1436
(lp1437
Vlife_stealer_rage
p1438
aVlife_stealer_feast
p1439
aVlife_stealer_open_wounds
p1440
aVlife_stealer_assimilate
p1441
aVgeneric_hidden
p1442
aVlife_stealer_infest
p1443
aVlife_stealer_control
p1444
aVlife_stealer_consume
p1445
aVlife_stealer_assimilate_eject
p1446
aVspecial_bonus_hp_200
p1447
aVspecial_bonus_attack_speed_20
p1448
aVspecial_bonus_attack_damage_30
p1449
aVspecial_bonus_movement_speed_35
p1450
aVspecial_bonus_evasion_20
p1451
aVspecial_bonus_unique_lifestealer_2
p1452
aVspecial_bonus_unique_lifestealer_3
p1453
aVspecial_bonus_unique_lifestealer
p1454
asVnpc_dota_plasma_field
p1455
(lp1456
sVgreater boar
p1457
(lp1458
Vbeastmaster_greater_boar_poison
p1459
aV
aV
aV
asg282
(lp1460
Vpuck_illusory_orb
p1461
aVpuck_waning_rift
p1462
aVpuck_phase_shift
p1463
aVpuck_ethereal_jaunt
p1464
aVgeneric_hidden
p1465
aVpuck_dream_coil
p1466
aVspecial_bonus_intelligence_10
p1467
aVspecial_bonus_armor_5
p1468
aVspecial_bonus_spell_amplify_8
p1469
aVspecial_bonus_attack_damage_50
p1470
aVspecial_bonus_unique_puck_2
p1471
aVspecial_bonus_unique_puck
p1472
aVspecial_bonus_gold_income_70
p1473
aVspecial_bonus_unique_puck_3
p1474
asVdragon knight
p1475
(lp1476
Vdragon_knight_breathe_fire
p1477
aVdragon_knight_dragon_tail
p1478
aVdragon_knight_dragon_blood
p1479
aVgeneric_hidden
p1480
aVgeneric_hidden
p1481
aVdragon_knight_elder_dragon_form
p1482
aVspecial_bonus_mp_regen_2
p1483
aVspecial_bonus_attack_speed_30
p1484
aVspecial_bonus_attack_damage_35
p1485
aVspecial_bonus_hp_300
p1486
aVspecial_bonus_gold_income_25
p1487
aVspecial_bonus_unique_dragon_knight
p1488
aVspecial_bonus_strength_40
p1489
aVspecial_bonus_unique_dragon_knight_2
p1490
asVmorphling
p1491
(lp1492
Vmorphling_waveform
p1493
aVmorphling_adaptive_strike_agi
p1494
aVmorphling_adaptive_strike_str
p1495
aVmorphling_morph_agi
p1496
aVmorphling_morph_str
p1497
aVmorphling_replicate
p1498
aVmorphling_morph_replicate
p1499
aVmorphling_morph
p1500
aVspecial_bonus_agility_10
p1501
aVspecial_bonus_unique_morphling_1
p1502
aVspecial_bonus_unique_morphling_8
p1503
aVspecial_bonus_attack_speed_30
p1504
aVspecial_bonus_unique_morphling_5
p1505
aVspecial_bonus_unique_morphling_4
p1506
aVspecial_bonus_unique_morphling_6
p1507
aVspecial_bonus_unique_morphling_3
p1508
asVremote mine
p1509
(lp1510
Vtechies_remote_mines_self_detonate
p1511
aV
aV
aV
asVluna
p1512
(lp1513
Vluna_lucent_beam
p1514
aVluna_moon_glaive
p1515
aVluna_lunar_blessing
p1516
aVgeneric_hidden
p1517
aVgeneric_hidden
p1518
aVluna_eclipse
p1519
aVspecial_bonus_attack_speed_20
p1520
aVspecial_bonus_cast_range_200
p1521
aVspecial_bonus_unique_luna_2
p1522
aVspecial_bonus_unique_luna_3
p1523
aVspecial_bonus_all_stats_10
p1524
aVspecial_bonus_unique_luna_1
p1525
aVspecial_bonus_lifesteal_25
p1526
aVspecial_bonus_unique_luna_5
p1527
asVnpc_dota_troll_warlord_axe
p1528
(lp1529
V
aV
aV
aV
asVroshan
p1530
(lp1531
Vroshan_halloween_apocalypse
p1532
aVroshan_halloween_wave_of_force
p1533
aVroshan_halloween_toss
p1534
aVroshan_halloween_burn
p1535
aVroshan_halloween_fireball
p1536
aVroshan_halloween_summon
p1537
aVroshan_halloween_shell
p1538
aVroshan_halloween_greater_bash
p1539
aVroshan_halloween_levels
p1540
aVroshan_halloween_angry
p1541
aVroshan_halloween_candy
p1542
aVroshan_halloween_spell_block
p1543
asVtemplar assassin
p1544
(lp1545
Vtemplar_assassin_refraction
p1546
aVtemplar_assassin_meld
p1547
aVtemplar_assassin_psi_blades
p1548
aVtemplar_assassin_trap
p1549
aVgeneric_hidden
p1550
aVtemplar_assassin_psionic_trap
p1551
aVspecial_bonus_attack_speed_25
p1552
aVspecial_bonus_unique_templar_assassin_6
p1553
aVspecial_bonus_armor_7
p1554
aVspecial_bonus_unique_templar_assassin_3
p1555
aVspecial_bonus_unique_templar_assassin_4
p1556
aVspecial_bonus_unique_templar_assassin_2
p1557
aVspecial_bonus_unique_templar_assassin_5
p1558
aVspecial_bonus_unique_templar_assassin
p1559
asVnpc_dota_thinker
p1560
(lp1561
sVhellbear
p1562
(lp1563
Vmudgolem_cloak_aura
p1564
aV
aV
aV
asVboar
p1565
(lp1566
Vbeastmaster_boar_poison
p1567
aV
aV
aV
asVdiretide witch
p1568
(lp1569
V
aV
aV
aV
aV
aV
aV
aV
asVpower cog
p1570
(lp1571
V
aV
aV
aV
asVsatyr banisher
p1572
(lp1573
Vsatyr_trickster_purge
p1574
aV
aV
aV
asVhealing campfire
p1575
(lp1576
V
aV
aV
aV
aV
aV
aV
aV
asg226
(lp1577
Vharpy_storm_chain_lightning
p1578
aV
aV
aV
asVrazor
p1579
(lp1580
Vrazor_plasma_field
p1581
aVrazor_static_link
p1582
aVrazor_unstable_current
p1583
aVgeneric_hidden
p1584
aVgeneric_hidden
p1585
aVrazor_eye_of_the_storm
p1586
aVspecial_bonus_hp_200
p1587
aVspecial_bonus_agility_15
p1588
aVspecial_bonus_unique_razor
p1589
aVspecial_bonus_unique_razor_3
p1590
aVspecial_bonus_armor_10
p1591
aVspecial_bonus_unique_razor_2
p1592
aVspecial_bonus_attack_speed_100
p1593
aVspecial_bonus_unique_razor_4
p1594
asVgreater eidolon
p1595
(lp1596
V
aV
aV
aV
aV
aV
aV
aV
asVmud golem
p1597
(lp1598
Vmud_golem_hurl_boulder
p1599
aVmud_golem_rock_destroy
p1600
aV
aV
asVpsionic trap
p1601
(lp1602
Vtemplar_assassin_self_trap
p1603
aV
aV
aV
asg65
(lp1604
Vcny_beast_force_attack
p1605
aVcny_beast_teleport
p1606
aV
aV
aV
aV
aV
aV
asg75
(lp1607
Vtiny_avalanche
p1608
aVtiny_toss
p1609
aVtiny_craggy_exterior
p1610
aVgeneric_hidden
p1611
aVgeneric_hidden
p1612
aVtiny_grow
p1613
aVtiny_toss_tree
p1614
aVspecial_bonus_magic_resistance_20
p1615
aVspecial_bonus_attack_damage_30
p1616
aVspecial_bonus_hp_350
p1617
aVspecial_bonus_unique_tiny
p1618
aVspecial_bonus_unique_tiny_4
p1619
aVspecial_bonus_unique_tiny_5
p1620
aVspecial_bonus_unique_tiny_3
p1621
aVspecial_bonus_unique_tiny_2
p1622
asVobserver ward
p1623
(lp1624
sVsatyr tormenter
p1625
(lp1626
Vsatyr_hellcaller_shockwave
p1627
aVsatyr_hellcaller_unholy_aura
p1628
aV
aV
asVancient thunderhide
p1629
(lp1630
Vbig_thunder_lizard_frenzy
p1631
aVbig_thunder_lizard_wardrums_aura
p1632
aVbig_thunder_lizard_slam
p1633
aV
asg173
(lp1634
Vpudge_meat_hook
p1635
aVpudge_rot
p1636
aVpudge_flesh_heap
p1637
aVgeneric_hidden
p1638
aVgeneric_hidden
p1639
aVpudge_dismember
p1640
aVspecial_bonus_armor_5
p1641
aVspecial_bonus_unique_pudge_2
p1642
aVspecial_bonus_spell_lifesteal_13
p1643
aVspecial_bonus_attack_damage_75
p1644
aVspecial_bonus_gold_income_30
p1645
aVspecial_bonus_cooldown_reduction_15
p1646
aVspecial_bonus_unique_pudge_3
p1647
aVspecial_bonus_unique_pudge_1
p1648
asVancient prowler acolyte
p1649
(lp1650
Vspawnlord_aura
p1651
aV
aV
aV
asVstorm
p1652
(lp1653
Vbrewmaster_storm_dispel_magic
p1654
aVbrewmaster_storm_cyclone
p1655
aVbrewmaster_storm_wind_walk
p1656
aVbrewmaster_drunken_haze
p1657
aVgeneric_hidden
p1658
aVgeneric_hidden
p1659
asVcentaur conqueror
p1660
(lp1661
Vcentaur_khan_war_stomp
p1662
aV
aV
aV
asVdire's ancient
p1663
(lp1664
Vbackdoor_protection_in_base
p1665
aV
aV
aV
aV
aV
aV
aV
asg25
(lp1666
Vabyssal_underlord_firestorm
p1667
aVabyssal_underlord_pit_of_malice
p1668
aVabyssal_underlord_atrophy_aura
p1669
aVgeneric_hidden
p1670
aVgeneric_hidden
p1671
aVabyssal_underlord_dark_rift
p1672
aVabyssal_underlord_cancel_dark_rift
p1673
aVspecial_bonus_unique_underlord_2
p1674
aVspecial_bonus_movement_speed_30
p1675
aVspecial_bonus_cast_range_100
p1676
aVspecial_bonus_unique_underlord_3
p1677
aVspecial_bonus_attack_speed_70
p1678
aVspecial_bonus_hp_regen_20
p1679
aVspecial_bonus_unique_underlord
p1680
aVspecial_bonus_unique_underlord_4
p1681
asVnpc_dota_units_base
p1682
(lp1683
V
aV
aV
aV
aV
aV
aV
aV
asVwarlock
p1684
(lp1685
Vwarlock_fatal_bonds
p1686
aVwarlock_shadow_word
p1687
aVwarlock_upheaval
p1688
aVgeneric_hidden
p1689
aVgeneric_hidden
p1690
aVwarlock_rain_of_chaos
p1691
aVspecial_bonus_unique_warlock_5
p1692
aVspecial_bonus_cast_range_125
p1693
aVspecial_bonus_exp_boost_40
p1694
aVspecial_bonus_unique_warlock_3
p1695
aVspecial_bonus_unique_warlock_4
p1696
aVspecial_bonus_unique_warlock_6
p1697
aVspecial_bonus_unique_warlock_2
p1698
aVspecial_bonus_unique_warlock_1
p1699
asVghost
p1700
(lp1701
Vghost_frost_attack
p1702
aV
aV
aV
asVsand king
p1703
(lp1704
Vsandking_burrowstrike
p1705
aVsandking_sand_storm
p1706
aVsandking_caustic_finale
p1707
aVgeneric_hidden
p1708
aVgeneric_hidden
p1709
aVsandking_epicenter
p1710
aVspecial_bonus_movement_speed_30
p1711
aVspecial_bonus_hp_200
p1712
aVspecial_bonus_unique_sand_king_2
p1713
aVspecial_bonus_unique_sand_king_3
p1714
aVspecial_bonus_armor_10
p1715
aVspecial_bonus_unique_sand_king
p1716
aVspecial_bonus_hp_regen_35
p1717
aVspecial_bonus_unique_sand_king_4
p1718
asVbuilding
p1719
(lp1720
Vbackdoor_protection_in_base
p1721
aV
aV
aV
aV
aV
aV
aV
asVcourier
p1722
(lp1723
Vcourier_return_to_base
p1724
aVcourier_go_to_secretshop
p1725
aVcourier_return_stash_items
p1726
aVcourier_take_stash_items
p1727
aVcourier_transfer_items
p1728
aVcourier_shield
p1729
aVcourier_morph
p1730
aVcourier_take_stash_and_transfer_items
p1731
aVcourier_transfer_items_to_other_player
p1732
aVcourier_go_to_enemy_secretshop
p1733
aVcourier_go_to_sideshop
p1734
aVcourier_go_to_sideshop2
p1735
asVfire
p1736
(lp1737
Vbrewmaster_fire_permanent_immolation
p1738
aVbrewmaster_drunken_brawler
p1739
asVkobold foreman
p1740
(lp1741
Vkobold_taskmaster_speed_aura
p1742
aV
aV
aV
asVzeus
p1743
(lp1744
Vzuus_arc_lightning
p1745
aVzuus_lightning_bolt
p1746
aVzuus_static_field
p1747
aVzuus_cloud
p1748
aVgeneric_hidden
p1749
aVzuus_thundergods_wrath
p1750
aVspecial_bonus_armor_6
p1751
aVspecial_bonus_exp_boost_25
p1752
aVspecial_bonus_movement_speed_40
p1753
aVspecial_bonus_unique_zeus
p1754
aVspecial_bonus_cooldown_reduction_15
p1755
aVspecial_bonus_unique_zeus_3
p1756
aVspecial_bonus_cast_range_200
p1757
aVspecial_bonus_unique_zeus_2
p1758
asVogre bruiser
p1759
(lp1760
V
aV
aV
aV
asVgyrocopter
p1761
(lp1762
Vgyrocopter_rocket_barrage
p1763
aVgyrocopter_homing_missile
p1764
aVgyrocopter_flak_cannon
p1765
aVgeneric_hidden
p1766
aVgeneric_hidden
p1767
aVgyrocopter_call_down
p1768
aVspecial_bonus_attack_damage_25
p1769
aVspecial_bonus_hp_200
p1770
aVspecial_bonus_unique_gyrocopter_2
p1771
aVspecial_bonus_unique_gyrocopter_3
p1772
aVspecial_bonus_movement_speed_50
p1773
aVspecial_bonus_unique_gyrocopter_4
p1774
aVspecial_bonus_unique_gyrocopter_1
p1775
aVspecial_bonus_unique_gyrocopter_5
p1776
asVsilencer
p1777
(lp1778
Vsilencer_curse_of_the_silent
p1779
aVsilencer_glaives_of_wisdom
p1780
aVsilencer_last_word
p1781
aVgeneric_hidden
p1782
aVgeneric_hidden
p1783
aVsilencer_global_silence
p1784
aVspecial_bonus_armor_5
p1785
aVspecial_bonus_attack_speed_25
p1786
aVspecial_bonus_gold_income_15
p1787
aVspecial_bonus_unique_silencer_2
p1788
aVspecial_bonus_attack_range_125
p1789
aVspecial_bonus_unique_silencer
p1790
aVspecial_bonus_unique_silencer_3
p1791
aVspecial_bonus_unique_silencer_4
p1792
asVdeath ward
p1793
(lp1794
V
aV
aV
aV
aV
asVmelee barracks
p1795
(lp1796
Vbackdoor_protection_in_base
p1797
aV
aV
aV
aV
aV
aV
aV
asVstasis trap
p1798
(lp1799
V
aV
aV
aV
asVenigma
p1800
(lp1801
Venigma_malefice
p1802
aVenigma_demonic_conversion
p1803
aVenigma_midnight_pulse
p1804
aVgeneric_hidden
p1805
aVgeneric_hidden
p1806
aVenigma_black_hole
p1807
aVspecial_bonus_movement_speed_25
p1808
aVspecial_bonus_magic_resistance_15
p1809
aVspecial_bonus_cooldown_reduction_15
p1810
aVspecial_bonus_gold_income_20
p1811
aVspecial_bonus_hp_400
p1812
aVspecial_bonus_unique_enigma_3
p1813
aVspecial_bonus_unique_enigma_2
p1814
aVspecial_bonus_unique_enigma
p1815
asVstorm spirit
p1816
(lp1817
Vstorm_spirit_static_remnant
p1818
aVstorm_spirit_electric_vortex
p1819
aVstorm_spirit_overload
p1820
aVgeneric_hidden
p1821
aVgeneric_hidden
p1822
aVstorm_spirit_ball_lightning
p1823
aVspecial_bonus_attack_damage_20
p1824
aVspecial_bonus_mp_regen_175
p1825
aVspecial_bonus_unique_storm_spirit_5
p1826
aVspecial_bonus_hp_300
p1827
aVspecial_bonus_unique_storm_spirit
p1828
aVspecial_bonus_attack_speed_30
p1829
aVspecial_bonus_unique_storm_spirit_3
p1830
aVspecial_bonus_unique_storm_spirit_4
p1831
asVfaceless void
p1832
(lp1833
Vfaceless_void_time_walk
p1834
aVfaceless_void_time_dilation
p1835
aVfaceless_void_time_lock
p1836
aVgeneric_hidden
p1837
aVgeneric_hidden
p1838
aVfaceless_void_chronosphere
p1839
aVspecial_bonus_attack_damage_20
p1840
aVspecial_bonus_strength_8
p1841
aVspecial_bonus_unique_faceless_void_3
p1842
aVspecial_bonus_hp_300
p1843
aVspecial_bonus_attack_speed_40
p1844
aVspecial_bonus_unique_faceless_void
p1845
aVspecial_bonus_unique_faceless_void_4
p1846
aVspecial_bonus_unique_faceless_void_2
p1847
asVdoom
p1848
(lp1849
Vdoom_bringer_devour
p1850
aVdoom_bringer_scorched_earth
p1851
aVdoom_bringer_infernal_blade
p1852
aVdoom_bringer_empty1
p1853
aVdoom_bringer_empty2
p1854
aVdoom_bringer_doom
p1855
aVspecial_bonus_unique_doom_4
p1856
aVspecial_bonus_movement_speed_25
p1857
aVspecial_bonus_evasion_20
p1858
aVspecial_bonus_unique_doom_3
p1859
aVspecial_bonus_unique_doom_5
p1860
aVspecial_bonus_unique_doom_2
p1861
aVspecial_bonus_unique_doom_1
p1862
aVspecial_bonus_cleave_100
p1863
asVgreevil
p1864
(lp1865
V
aV
aV
aV
aV
aV
aV
aV
asVlina
p1866
(lp1867
Vlina_dragon_slave
p1868
aVlina_light_strike_array
p1869
aVlina_fiery_soul
p1870
aVgeneric_hidden
p1871
aVgeneric_hidden
p1872
aVlina_laguna_blade
p1873
aVspecial_bonus_attack_damage_25
p1874
aVspecial_bonus_cast_range_100
p1875
aVspecial_bonus_hp_300
p1876
aVspecial_bonus_unique_lina_3
p1877
aVspecial_bonus_spell_amplify_10
p1878
aVspecial_bonus_unique_lina_2
p1879
aVspecial_bonus_unique_lina_1
p1880
aVspecial_bonus_attack_range_175
p1881
asVancient black drake
p1882
(lp1883
V
aV
aV
aV
asg237
(lp1884
V
aV
aV
aV
asVmonkey king
p1885
(lp1886
Vmonkey_king_boundless_strike
p1887
aVmonkey_king_tree_dance
p1888
aVmonkey_king_primal_spring
p1889
aVmonkey_king_jingu_mastery
p1890
aVmonkey_king_mischief
p1891
aVmonkey_king_wukongs_command
p1892
aVmonkey_king_primal_spring_early
p1893
aVmonkey_king_untransform
p1894
aVspecial_bonus_unique_monkey_king_5
p1895
aVspecial_bonus_attack_speed_20
p1896
aVspecial_bonus_unique_monkey_king_7
p1897
aVspecial_bonus_unique_monkey_king_2
p1898
aVspecial_bonus_unique_monkey_king
p1899
aVspecial_bonus_unique_monkey_king_3
p1900
aVspecial_bonus_unique_monkey_king_4
p1901
aVspecial_bonus_unique_monkey_king_6
p1902
asVlone druid
p1903
(lp1904
Vlone_druid_spirit_bear
p1905
aVlone_druid_rabid
p1906
aVlone_druid_savage_roar
p1907
aVlone_druid_true_form_battle_cry
p1908
aVgeneric_hidden
p1909
aVlone_druid_true_form
p1910
aVlone_druid_true_form_druid
p1911
aVspecial_bonus_hp_250
p1912
aVspecial_bonus_attack_range_175
p1913
aVspecial_bonus_unique_lone_druid_4
p1914
aVspecial_bonus_unique_lone_druid_2
p1915
aVspecial_bonus_unique_lone_druid_8
p1916
aVspecial_bonus_unique_lone_druid_6
p1917
aVspecial_bonus_unique_lone_druid_9
p1918
aVspecial_bonus_unique_lone_druid_7
p1919
asVnpc_dota_companion
p1920
(lp1921
sVbrewmaster
p1922
(lp1923
Vbrewmaster_thunder_clap
p1924
aVbrewmaster_drunken_haze
p1925
aVbrewmaster_drunken_brawler
p1926
aVgeneric_hidden
p1927
aVgeneric_hidden
p1928
aVbrewmaster_primal_split
p1929
aVspecial_bonus_attack_damage_30
p1930
aVspecial_bonus_hp_200
p1931
aVspecial_bonus_unique_brewmaster_3
p1932
aVspecial_bonus_magic_resistance_20
p1933
aVspecial_bonus_unique_brewmaster
p1934
aVspecial_bonus_attack_speed_100
p1935
aVspecial_bonus_unique_brewmaster_2
p1936
aVspecial_bonus_unique_brewmaster_4
p1937
asVwraith king
p1938
(lp1939
Vskeleton_king_hellfire_blast
p1940
aVskeleton_king_vampiric_aura
p1941
aVskeleton_king_mortal_strike
p1942
aVgeneric_hidden
p1943
aVgeneric_hidden
p1944
aVskeleton_king_reincarnation
p1945
aVspecial_bonus_unique_wraith_king_3
p1946
aVspecial_bonus_attack_speed_20
p1947
aVspecial_bonus_strength_15
p1948
aVspecial_bonus_unique_wraith_king_5
p1949
aVspecial_bonus_unique_wraith_king_1
p1950
aVspecial_bonus_unique_wraith_king_6
p1951
aVspecial_bonus_unique_wraith_king_2
p1952
aVspecial_bonus_unique_wraith_king_4
p1953
asg176
(lp1954
Venraged_wildkin_tornado
p1955
aVenraged_wildkin_toughness_aura
p1956
aV
aV
asVnpc_dota_loadout_generic
p1957
(lp1958
sg229
(lp1959
Vrattletrap_battery_assault
p1960
aVrattletrap_power_cogs
p1961
aVrattletrap_rocket_flare
p1962
aVgeneric_hidden
p1963
aVgeneric_hidden
p1964
aVrattletrap_hookshot
p1965
aVspecial_bonus_armor_5
p1966
aVspecial_bonus_movement_speed_25
p1967
aVspecial_bonus_strength_15
p1968
aVspecial_bonus_unique_clockwerk_3
p1969
aVspecial_bonus_magic_resistance_20
p1970
aVspecial_bonus_unique_clockwerk_2
p1971
aVspecial_bonus_unique_clockwerk_4
p1972
aVspecial_bonus_unique_clockwerk
p1973
asVkeeper of the light
p1974
(lp1975
Vkeeper_of_the_light_illuminate
p1976
aVkeeper_of_the_light_mana_leak
p1977
aVkeeper_of_the_light_chakra_magic
p1978
aVkeeper_of_the_light_recall
p1979
aVkeeper_of_the_light_blinding_light
p1980
aVkeeper_of_the_light_spirit_form
p1981
aVkeeper_of_the_light_illuminate_end
p1982
aVkeeper_of_the_light_spirit_form_illuminate
p1983
aVkeeper_of_the_light_spirit_form_illuminate_end
p1984
aVspecial_bonus_spell_lifesteal_8
p1985
aVspecial_bonus_movement_speed_25
p1986
aVspecial_bonus_exp_boost_40
p1987
aVspecial_bonus_cast_range_350
p1988
aVspecial_bonus_magic_resistance_40
p1989
aVspecial_bonus_unique_keeper_of_the_light_2
p1990
aVspecial_bonus_unique_keeper_of_the_light_3
p1991
aVspecial_bonus_unique_keeper_of_the_light
p1992
asg177
(lp1993
Vphantom_lancer_spirit_lance
p1994
aVphantom_lancer_doppelwalk
p1995
aVphantom_lancer_phantom_edge
p1996
aVgeneric_hidden
p1997
aVgeneric_hidden
p1998
aVphantom_lancer_juxtapose
p1999
aVspecial_bonus_evasion_10
p2000
aVspecial_bonus_attack_speed_20
p2001
aVspecial_bonus_hp_250
p2002
aVspecial_bonus_unique_phantom_lancer_2
p2003
aVspecial_bonus_unique_phantom_lancer
p2004
aVspecial_bonus_unique_phantom_lancer_3
p2005
aVspecial_bonus_unique_phantom_lancer_4
p2006
aVspecial_bonus_30_crit_2
p2007
asVgiant wolf
p2008
(lp2009
V
aV
aV
aV
asVdark willow
p2010
(lp2011
Vdark_willow_bramble_maze
p2012
aVdark_willow_shadow_realm
p2013
aVdark_willow_cursed_crown
p2014
aVdark_willow_bedlam
p2015
aVgeneric_hidden
p2016
aVdark_willow_terrorize
p2017
aVspecial_bonus_attack_damage_20
p2018
aVspecial_bonus_cast_range_125
p2019
aVspecial_bonus_gold_income_15
p2020
aVspecial_bonus_movement_speed_40
p2021
aVspecial_bonus_spell_lifesteal_10
p2022
aVspecial_bonus_unique_dark_willow_1
p2023
aVspecial_bonus_attack_speed_200
p2024
aVspecial_bonus_unique_dark_willow_2
p2025
asVsentry ward
p2026
(lp2027
sVvengeful spirit
p2028
(lp2029
Vvengefulspirit_magic_missile
p2030
aVvengefulspirit_wave_of_terror
p2031
aVvengefulspirit_command_aura
p2032
aVgeneric_hidden
p2033
aVgeneric_hidden
p2034
aVvengefulspirit_nether_swap
p2035
aVspecial_bonus_magic_resistance_15
p2036
aVspecial_bonus_unique_vengeful_spirit_4
p2037
aVspecial_bonus_agility_15
p2038
aVspecial_bonus_unique_vengeful_spirit_6
p2039
aVspecial_bonus_unique_vengeful_spirit_5
p2040
aVspecial_bonus_unique_vengeful_spirit_2
p2041
aVspecial_bonus_unique_vengeful_spirit_1
p2042
aVspecial_bonus_unique_vengeful_spirit_3
p2043
asVbristleback
p2044
(lp2045
Vbristleback_viscous_nasal_goo
p2046
aVbristleback_quill_spray
p2047
aVbristleback_bristleback
p2048
aVgeneric_hidden
p2049
aVgeneric_hidden
p2050
aVbristleback_warpath
p2051
aVspecial_bonus_movement_speed_20
p2052
aVspecial_bonus_mp_regen_2
p2053
aVspecial_bonus_hp_250
p2054
aVspecial_bonus_unique_bristleback
p2055
aVspecial_bonus_hp_regen_20
p2056
aVspecial_bonus_unique_bristleback_2
p2057
aVspecial_bonus_spell_lifesteal_15
p2058
aVspecial_bonus_unique_bristleback_3
p2059
asVlich
p2060
(lp2061
Vlich_frost_nova
p2062
aVlich_frost_armor
p2063
aVlich_dark_ritual
p2064
aVgeneric_hidden
p2065
aVgeneric_hidden
p2066
aVlich_chain_frost
p2067
aVspecial_bonus_hp_175
p2068
aVspecial_bonus_movement_speed_25
p2069
aVspecial_bonus_attack_damage_120
p2070
aVspecial_bonus_unique_lich_3
p2071
aVspecial_bonus_cast_range_175
p2072
aVspecial_bonus_gold_income_20
p2073
aVspecial_bonus_unique_lich_1
p2074
aVspecial_bonus_unique_lich_2
p2075
asVmega melee creep
p2076
(lp2077
V
aV
aV
aV
aV
aV
aV
aV
asVnefarious megagreevil
p2078
(lp2079
Vgreevil_miniboss_black_nightmare
p2080
aVgreevil_miniboss_black_brain_sap
p2081
aVgreevil_miniboss_sight
p2082
aV
asVvisage
p2083
(lp2084
Vvisage_grave_chill
p2085
aVvisage_soul_assumption
p2086
aVvisage_gravekeepers_cloak
p2087
aVgeneric_hidden
p2088
aVgeneric_hidden
p2089
aVvisage_summon_familiars
p2090
aVspecial_bonus_cast_range_125
p2091
aVspecial_bonus_attack_damage_30
p2092
aVspecial_bonus_exp_boost_40
p2093
aVspecial_bonus_unique_visage_3
p2094
aVspecial_bonus_unique_visage_4
p2095
aVspecial_bonus_unique_visage_2
p2096
aVspecial_bonus_unique_visage_5
p2097
aVspecial_bonus_unique_visage_6
p2098
asVnecronomicon archer
p2099
(lp2100
Vnecronomicon_archer_aoe
p2101
aV
aV
aV
aV
aV
aV
aV
asVnpc_dota_ember_spirit_remnant
p2102
(lp2103
V
aV
aV
aV
asVslardar
p2104
(lp2105
Vslardar_sprint
p2106
aVslardar_slithereen_crush
p2107
aVslardar_bash
p2108
aVgeneric_hidden
p2109
aVgeneric_hidden
p2110
aVslardar_amplify_damage
p2111
aVspecial_bonus_hp_regen_5
p2112
aVspecial_bonus_attack_damage_20
p2113
aVspecial_bonus_hp_300
p2114
aVspecial_bonus_unique_slardar_2
p2115
aVspecial_bonus_attack_speed_50
p2116
aVspecial_bonus_night_vision_1000
p2117
aVspecial_bonus_unique_slardar
p2118
aVspecial_bonus_unique_slardar_3
p2119
asVancient prowler shaman
p2120
(lp2121
Vspawnlord_master_stomp
p2122
aVspawnlord_master_freeze
p2123
aV
aV
asVtreant
p2124
(lp2125
V
aV
aV
aV
aV
aV
aV
aV
asVlycan wolf
p2126
(lp2127
Vlycan_summon_wolves_critical_strike
p2128
aVlycan_summon_wolves_invisibility
p2129
aV
aV
asVdark troll summoner
p2130
(lp2131
Vdark_troll_warlord_ensnare
p2132
aVdark_troll_warlord_raise_dead
p2133
aV
aV
asVshadow fiend
p2134
(lp2135
Vnevermore_shadowraze1
p2136
aVnevermore_shadowraze2
p2137
aVnevermore_shadowraze3
p2138
aVnevermore_necromastery
p2139
aVnevermore_dark_lord
p2140
aVnevermore_requiem
p2141
aVspecial_bonus_spell_amplify_10
p2142
aVspecial_bonus_attack_speed_20
p2143
aVspecial_bonus_unique_nevermore_3
p2144
aVspecial_bonus_movement_speed_40
p2145
aVspecial_bonus_evasion_20
p2146
aVspecial_bonus_unique_nevermore_2
p2147
aVspecial_bonus_unique_nevermore_1
p2148
aVspecial_bonus_cooldown_reduction_40
p2149
asVnether ward
p2150
(lp2151
V
aV
aV
aV
asVtidehunter
p2152
(lp2153
Vtidehunter_gush
p2154
aVtidehunter_kraken_shell
p2155
aVtidehunter_anchor_smash
p2156
aVgeneric_hidden
p2157
aVgeneric_hidden
p2158
aVtidehunter_ravage
p2159
aVspecial_bonus_movement_speed_25
p2160
aVspecial_bonus_unique_tidehunter_2
p2161
aVspecial_bonus_exp_boost_40
p2162
aVspecial_bonus_unique_tidehunter_3
p2163
aVspecial_bonus_unique_tidehunter_4
p2164
aVspecial_bonus_unique_tidehunter
p2165
aVspecial_bonus_cooldown_reduction_25
p2166
aVspecial_bonus_attack_damage_250
p2167
asVserpent ward
p2168
(lp2169
V
aV
aV
aV
aV
asVio
p2170
(lp2171
Vwisp_tether
p2172
aVwisp_spirits
p2173
aVwisp_overcharge
p2174
aVwisp_spirits_in
p2175
aVwisp_spirits_out
p2176
aVwisp_relocate
p2177
aVwisp_tether_break
p2178
aVspecial_bonus_unique_wisp_3
p2179
aVspecial_bonus_attack_damage_60
p2180
aVspecial_bonus_unique_wisp
p2181
aVspecial_bonus_unique_wisp_5
p2182
aVspecial_bonus_gold_income_25
p2183
aVspecial_bonus_unique_wisp_4
p2184
aVspecial_bonus_unique_wisp_2
p2185
aVspecial_bonus_hp_regen_50
p2186
asVverdant megagreevil
p2187
(lp2188
Vgreevil_miniboss_green_living_armor
p2189
aVgreevil_miniboss_green_overgrowth
p2190
aVgreevil_miniboss_sight
p2191
aV
asg243
(lp2192
Vrubick_telekinesis
p2193
aVrubick_fade_bolt
p2194
aVrubick_null_field
p2195
aVrubick_empty1
p2196
aVrubick_empty2
p2197
aVrubick_spell_steal
p2198
aVrubick_telekinesis_land
p2199
aVrubick_hidden1
p2200
aVrubick_hidden2
p2201
aVrubick_hidden3
p2202
aVspecial_bonus_hp_200
p2203
aVspecial_bonus_attack_damage_60
p2204
aVspecial_bonus_cast_range_100
p2205
aVspecial_bonus_unique_rubick_2
p2206
aVspecial_bonus_unique_rubick_3
p2207
aVspecial_bonus_unique_rubick
p2208
aVspecial_bonus_unique_rubick_4
p2209
aVspecial_bonus_unique_rubick_5
p2210
asg245
(lp2211
Venchantress_untouchable
p2212
aVenchantress_enchant
p2213
aVenchantress_natures_attendants
p2214
aVgeneric_hidden
p2215
aVgeneric_hidden
p2216
aVenchantress_impetus
p2217
aVspecial_bonus_magic_resistance_15
p2218
aVspecial_bonus_movement_speed_25
p2219
aVspecial_bonus_attack_damage_50
p2220
aVspecial_bonus_unique_enchantress_2
p2221
aVspecial_bonus_unique_enchantress_3
p2222
aVspecial_bonus_unique_enchantress_1
p2223
aVspecial_bonus_unique_enchantress_4
p2224
aVspecial_bonus_unique_enchantress_5
p2225
asVwildwing
p2226
(lp2227
V
aV
aV
aV
asg315
(lp2228
V
aV
aV
aV
aV
aV
aV
aV
asVdazzle
p2229
(lp2230
Vdazzle_poison_touch
p2231
aVdazzle_shallow_grave
p2232
aVdazzle_shadow_wave
p2233
aVgeneric_hidden
p2234
aVgeneric_hidden
p2235
aVdazzle_weave
p2236
aVspecial_bonus_attack_damage_75
p2237
aVspecial_bonus_hp_200
p2238
aVspecial_bonus_cast_range_125
p2239
aVspecial_bonus_unique_dazzle_2
p2240
aVspecial_bonus_movement_speed_50
p2241
aVspecial_bonus_unique_dazzle_3
p2242
aVspecial_bonus_unique_dazzle_1
p2243
aVspecial_bonus_unique_dazzle_4
p2244
asVwinter wyvern
p2245
(lp2246
Vwinter_wyvern_arctic_burn
p2247
aVwinter_wyvern_splinter_blast
p2248
aVwinter_wyvern_cold_embrace
p2249
aVgeneric_hidden
p2250
aVgeneric_hidden
p2251
aVwinter_wyvern_winters_curse
p2252
aVspecial_bonus_gold_income_15
p2253
aVspecial_bonus_attack_damage_50
p2254
aVspecial_bonus_hp_350
p2255
aVspecial_bonus_night_vision_500
p2256
aVspecial_bonus_unique_winter_wyvern_1
p2257
aVspecial_bonus_unique_winter_wyvern_2
p2258
aVspecial_bonus_unique_winter_wyvern_3
p2259
aVspecial_bonus_unique_winter_wyvern_4
p2260
asVtimbersaw
p2261
(lp2262
Vshredder_whirling_death
p2263
aVshredder_timber_chain
p2264
aVshredder_reactive_armor
p2265
aVshredder_chakram_2
p2266
aVgeneric_hidden
p2267
aVshredder_chakram
p2268
aVshredder_return_chakram
p2269
aVshredder_return_chakram_2
p2270
aVspecial_bonus_spell_amplify_6
p2271
aVspecial_bonus_exp_boost_25
p2272
aVspecial_bonus_attack_damage_100
p2273
aVspecial_bonus_unique_timbersaw_2
p2274
aVspecial_bonus_strength_15
p2275
aVspecial_bonus_cooldown_reduction_10
p2276
aVspecial_bonus_unique_timbersaw
p2277
aVspecial_bonus_unique_timbersaw_3
p2278
asVmagnus
p2279
(lp2280
Vmagnataur_shockwave
p2281
aVmagnataur_empower
p2282
aVmagnataur_skewer
p2283
aVgeneric_hidden
p2284
aVgeneric_hidden
p2285
aVmagnataur_reverse_polarity
p2286
aVspecial_bonus_attack_speed_25
p2287
aVspecial_bonus_hp_200
p2288
aVspecial_bonus_strength_15
p2289
aVspecial_bonus_unique_magnus_4
p2290
aVspecial_bonus_armor_12
p2291
aVspecial_bonus_unique_magnus_3
p2292
aVspecial_bonus_unique_magnus_2
p2293
aVspecial_bonus_unique_magnus_5
p2294
asVcrystal maiden
p2295
(lp2296
Vcrystal_maiden_crystal_nova
p2297
aVcrystal_maiden_frostbite
p2298
aVcrystal_maiden_brilliance_aura
p2299
aVgeneric_hidden
p2300
aVgeneric_hidden
p2301
aVcrystal_maiden_freezing_field
p2302
aVspecial_bonus_hp_200
p2303
aVspecial_bonus_cast_range_100
p2304
aVspecial_bonus_unique_crystal_maiden_4
p2305
aVspecial_bonus_gold_income_15
p2306
aVspecial_bonus_attack_speed_250
p2307
aVspecial_bonus_unique_crystal_maiden_3
p2308
aVspecial_bonus_unique_crystal_maiden_1
p2309
aVspecial_bonus_unique_crystal_maiden_2
p2310
asVarc warden
p2311
(lp2312
Varc_warden_flux
p2313
aVarc_warden_magnetic_field
p2314
aVarc_warden_spark_wraith
p2315
aVgeneric_hidden
p2316
aVgeneric_hidden
p2317
aVarc_warden_tempest_double
p2318
aVspecial_bonus_armor_5
p2319
aVspecial_bonus_attack_speed_25
p2320
aVspecial_bonus_hp_350
p2321
aVspecial_bonus_unique_arc_warden_2
p2322
aVspecial_bonus_cooldown_reduction_10
p2323
aVspecial_bonus_attack_range_100
p2324
aVspecial_bonus_lifesteal_30
p2325
aVspecial_bonus_unique_arc_warden
p2326
asVthyg the giftsnatch
p2327
(lp2328
V
aV
aV
aV
aV
aV
aV
aV
asVancient black dragon
p2329
(lp2330
Vblack_dragon_fireball
p2331
aVblack_dragon_splash_attack
p2332
aVblack_dragon_dragonhide_aura
p2333
aV
asVnimbus
p2334
(lp2335
V
aV
aV
aV
aV
aV
aV
aV
asVshrine
p2336
(lp2337
Vbackdoor_protection_in_base
p2338
aVfiller_ability
p2339
aV
aV
aV
aV
aV
aV
asVphantom assassin
p2340
(lp2341
Vphantom_assassin_stifling_dagger
p2342
aVphantom_assassin_phantom_strike
p2343
aVphantom_assassin_blur
p2344
aVgeneric_hidden
p2345
aVgeneric_hidden
p2346
aVphantom_assassin_coup_de_grace
p2347
aVspecial_bonus_hp_150
p2348
aVspecial_bonus_attack_damage_15
p2349
aVspecial_bonus_corruption_4
p2350
aVspecial_bonus_cleave_20
p2351
aVspecial_bonus_lifesteal_20
p2352
aVspecial_bonus_unique_phantom_assassin
p2353
aVspecial_bonus_unique_phantom_assassin_2
p2354
aVspecial_bonus_unique_phantom_assassin_3
p2355
asVfamiliar
p2356
(lp2357
Vvisage_summon_familiars_stone_form
p2358
aV
aV
aV
aV
aV
aV
aV
asVbudding greevil minion
p2359
(lp2360
V
aV
aV
aV
asVundying zombie
p2361
(lp2362
Vundying_tombstone_zombie_deathstrike
p2363
aVneutral_spell_immunity
p2364
aV
aV
aV
aV
aV
aV
asVogre magi
p2365
(lp2366
Vogre_magi_fireblast
p2367
aVogre_magi_ignite
p2368
aVogre_magi_bloodlust
p2369
aVogre_magi_unrefined_fireblast
p2370
aVgeneric_hidden
p2371
aVogre_magi_multicast
p2372
aVspecial_bonus_gold_income_10
p2373
aVspecial_bonus_cast_range_100
p2374
aVspecial_bonus_attack_damage_90
p2375
aVspecial_bonus_hp_300
p2376
aVspecial_bonus_strength_30
p2377
aVspecial_bonus_unique_ogre_magi
p2378
aVspecial_bonus_movement_speed_90
p2379
aVspecial_bonus_unique_ogre_magi_2
p2380
asVnpc_dota_hero_base
p2381
(lp2382
V
aV
aV
aV
aV
aV
aV
aV
aV
asVancient granite golem
p2383
(lp2384
Vgranite_golem_hp_aura
p2385
aV
aV
aV
asVtower
p2386
(lp2387
Vbackdoor_protection_in_base
p2388
aV
aV
aV
aV
aV
aV
aV
asVvenomancer
p2389
(lp2390
Vvenomancer_venomous_gale
p2391
aVvenomancer_poison_sting
p2392
aVvenomancer_plague_ward
p2393
aVgeneric_hidden
p2394
aVgeneric_hidden
p2395
aVvenomancer_poison_nova
p2396
aVspecial_bonus_unique_venomancer_3
p2397
aVspecial_bonus_gold_income_15
p2398
aVspecial_bonus_cast_range_150
p2399
aVspecial_bonus_unique_venomancer_2
p2400
aVspecial_bonus_unique_venomancer_4
p2401
aVspecial_bonus_unique_venomancer_5
p2402
aVspecial_bonus_unique_venomancer_6
p2403
aVspecial_bonus_unique_venomancer
p2404
asVtornado
p2405
(lp2406
Vtornado_tempest
p2407
aV
aV
aV
aV
aV
aV
aV
asVleshrac
p2408
(lp2409
Vleshrac_split_earth
p2410
aVleshrac_diabolic_edict
p2411
aVleshrac_lightning_storm
p2412
aVgeneric_hidden
p2413
aVgeneric_hidden
p2414
aVleshrac_pulse_nova
p2415
aVspecial_bonus_armor_5
p2416
aVspecial_bonus_mp_250
p2417
aVspecial_bonus_strength_15
p2418
aVspecial_bonus_movement_speed_40
p2419
aVspecial_bonus_evasion_25
p2420
aVspecial_bonus_unique_leshrac_3
p2421
aVspecial_bonus_unique_leshrac_1
p2422
aVspecial_bonus_unique_leshrac_2
p2423
asVchaos knight
p2424
(lp2425
Vchaos_knight_chaos_bolt
p2426
aVchaos_knight_reality_rift
p2427
aVchaos_knight_chaos_strike
p2428
aVgeneric_hidden
p2429
aVgeneric_hidden
p2430
aVchaos_knight_phantasm
p2431
aVspecial_bonus_all_stats_5
p2432
aVspecial_bonus_movement_speed_20
p2433
aVspecial_bonus_strength_15
p2434
aVspecial_bonus_cooldown_reduction_12
p2435
aVspecial_bonus_gold_income_25
p2436
aVspecial_bonus_unique_chaos_knight
p2437
aVspecial_bonus_unique_chaos_knight_2
p2438
aVspecial_bonus_unique_chaos_knight_3
p2439
asVbeastmaster
p2440
(lp2441
Vbeastmaster_wild_axes
p2442
aVbeastmaster_call_of_the_wild
p2443
aVbeastmaster_inner_beast
p2444
aVgeneric_hidden
p2445
aVgeneric_hidden
p2446
aVbeastmaster_primal_roar
p2447
aVspecial_bonus_exp_boost_25
p2448
aVspecial_bonus_movement_speed_30
p2449
aVspecial_bonus_armor_7
p2450
aVspecial_bonus_unique_beastmaster_2
p2451
aVspecial_bonus_unique_beastmaster
p2452
aVspecial_bonus_hp_500
p2453
aVspecial_bonus_unique_beastmaster_4
p2454
aVspecial_bonus_unique_beastmaster_3
p2455
asVskeleton warrior
p2456
(lp2457
V
aV
aV
aV
aV
aV
aV
aV
asVbloodseeker
p2458
(lp2459
Vbloodseeker_bloodrage
p2460
aVbloodseeker_blood_bath
p2461
aVbloodseeker_thirst
p2462
aVgeneric_hidden
p2463
aVgeneric_hidden
p2464
aVbloodseeker_rupture
p2465
aVspecial_bonus_attack_speed_25
p2466
aVspecial_bonus_armor_4
p2467
aVspecial_bonus_hp_300
p2468
aVspecial_bonus_unique_bloodseeker_2
p2469
aVspecial_bonus_unique_bloodseeker_3
p2470
aVspecial_bonus_lifesteal_25
p2471
aVspecial_bonus_unique_bloodseeker
p2472
aVspecial_bonus_unique_bloodseeker_4
p2473
asVnpc_dota_dark_willow_creature
p2474
(lp2475
V
aV
aV
aV
asg273
(lp2476
Vgreevil_miniboss_yellow_ion_shell
p2477
aVgreevil_miniboss_yellow_surge
p2478
aVgreevil_miniboss_sight
p2479
aV
asVsven
p2480
(lp2481
Vsven_storm_bolt
p2482
aVsven_great_cleave
p2483
aVsven_warcry
p2484
aVgeneric_hidden
p2485
aVgeneric_hidden
p2486
aVsven_gods_strength
p2487
aVspecial_bonus_strength_8
p2488
aVspecial_bonus_mp_regen_2
p2489
aVspecial_bonus_movement_speed_30
p2490
aVspecial_bonus_attack_damage_30
p2491
aVspecial_bonus_lifesteal_25
p2492
aVspecial_bonus_unique_sven_3
p2493
aVspecial_bonus_unique_sven_2
p2494
aVspecial_bonus_unique_sven
p2495
asVancient primal stalker
p2496
(lp2497
V
aV
aV
aV
asVgreater treant
p2498
(lp2499
V
aV
aV
aV
aV
aV
aV
aV
asVhawk
p2500
(lp2501
V
aV
aV
aV
asVnpc_dota_slark_visual
p2502
(lp2503
V
aV
aV
aV
asVskywrath mage
p2504
(lp2505
Vskywrath_mage_arcane_bolt
p2506
aVskywrath_mage_concussive_shot
p2507
aVskywrath_mage_ancient_seal
p2508
aVgeneric_hidden
p2509
aVgeneric_hidden
p2510
aVskywrath_mage_mystic_flare
p2511
aVspecial_bonus_movement_speed_25
p2512
aVspecial_bonus_intelligence_8
p2513
aVspecial_bonus_unique_skywrath
p2514
aVspecial_bonus_unique_skywrath_2
p2515
aVspecial_bonus_unique_skywrath_4
p2516
aVspecial_bonus_unique_skywrath_3
p2517
aVspecial_bonus_gold_income_50
p2518
aVspecial_bonus_unique_skywrath_5
p2519
asVjakiro
p2520
(lp2521
Vjakiro_dual_breath
p2522
aVjakiro_ice_path
p2523
aVjakiro_liquid_fire
p2524
aVgeneric_hidden
p2525
aVgeneric_hidden
p2526
aVjakiro_macropyre
p2527
aVspecial_bonus_exp_boost_25
p2528
aVspecial_bonus_spell_amplify_8
p2529
aVspecial_bonus_attack_range_250
p2530
aVspecial_bonus_unique_jakiro_2
p2531
aVspecial_bonus_unique_jakiro_4
p2532
aVspecial_bonus_gold_income_25
p2533
aVspecial_bonus_unique_jakiro_3
p2534
aVspecial_bonus_unique_jakiro
p2535
asVtarget dummy
p2536
(lp2537
V
aV
aV
aV
aV
aV
asVviper
p2538
(lp2539
Vviper_poison_attack
p2540
aVviper_nethertoxin
p2541
aVviper_corrosive_skin
p2542
aVgeneric_hidden
p2543
aVgeneric_hidden
p2544
aVviper_viper_strike
p2545
aVspecial_bonus_attack_speed_20
p2546
aVspecial_bonus_spell_lifesteal_8
p2547
aVspecial_bonus_attack_range_100
p2548
aVspecial_bonus_unique_viper_1
p2549
aVspecial_bonus_unique_viper_2
p2550
aVspecial_bonus_unique_viper_4
p2551
aVspecial_bonus_unique_viper_3
p2552
aVspecial_bonus_attack_damage_120
p2553
asVdiretide ghoul
p2554
(lp2555
V
aV
aV
aV
aV
aV
aV
aV
asVranged creep
p2556
(lp2557
V
aV
aV
aV
aV
aV
aV
aV
asVspectre
p2558
(lp2559
Vspectre_spectral_dagger
p2560
aVspectre_desolate
p2561
aVspectre_dispersion
p2562
aVspectre_reality
p2563
aVgeneric_hidden
p2564
aVspectre_haunt
p2565
aVspecial_bonus_hp_regen_5
p2566
aVspecial_bonus_unique_spectre_2
p2567
aVspecial_bonus_all_stats_8
p2568
aVspecial_bonus_unique_spectre
p2569
aVspecial_bonus_hp_500
p2570
aVspecial_bonus_unique_spectre_3
p2571
aVspecial_bonus_unique_spectre_4
p2572
aVspecial_bonus_unique_spectre_5
p2573
asVbounty hunter
p2574
(lp2575
Vbounty_hunter_shuriken_toss
p2576
aVbounty_hunter_jinada
p2577
aVbounty_hunter_wind_walk
p2578
aVgeneric_hidden
p2579
aVgeneric_hidden
p2580
aVbounty_hunter_track
p2581
aVspecial_bonus_movement_speed_30
p2582
aVspecial_bonus_exp_boost_25
p2583
aVspecial_bonus_attack_speed_50
p2584
aVspecial_bonus_hp_350
p2585
aVspecial_bonus_unique_bounty_hunter_2
p2586
aVspecial_bonus_unique_bounty_hunter
p2587
aVspecial_bonus_evasion_50
p2588
aVspecial_bonus_unique_bounty_hunter_3
p2589
asVtombstone
p2590
(lp2591
Vneutral_spell_immunity
p2592
aV
aV
aV
aV
aV
aV
aV
asVancient apparition
p2593
(lp2594
Vancient_apparition_cold_feet
p2595
aVancient_apparition_ice_vortex
p2596
aVancient_apparition_chilling_touch
p2597
aVgeneric_hidden
p2598
aVgeneric_hidden
p2599
aVancient_apparition_ice_blast
p2600
aVancient_apparition_ice_blast_release
p2601
aVspecial_bonus_gold_income_10
p2602
aVspecial_bonus_spell_amplify_10
p2603
aVspecial_bonus_unique_ancient_apparition_3
p2604
aVspecial_bonus_hp_regen_20
p2605
aVspecial_bonus_unique_ancient_apparition_4
p2606
aVspecial_bonus_unique_ancient_apparition_2
p2607
aVspecial_bonus_unique_ancient_apparition_1
p2608
aVspecial_bonus_unique_ancient_apparition_5
p2609
asVhoming missile
p2610
(lp2611
V
aV
aV
aV
asVaxe
p2612
(lp2613
Vaxe_berserkers_call
p2614
aVaxe_battle_hunger
p2615
aVaxe_counter_helix
p2616
aVgeneric_hidden
p2617
aVgeneric_hidden
p2618
aVaxe_culling_blade
p2619
aVspecial_bonus_strength_8
p2620
aVspecial_bonus_attack_speed_40
p2621
aVspecial_bonus_mp_regen_3
p2622
aVspecial_bonus_movement_speed_30
p2623
aVspecial_bonus_hp_regen_20
p2624
aVspecial_bonus_unique_axe_3
p2625
aVspecial_bonus_unique_axe_2
p2626
aVspecial_bonus_unique_axe
p2627
asVoracle
p2628
(lp2629
Voracle_fortunes_end
p2630
aVoracle_fates_edict
p2631
aVoracle_purifying_flames
p2632
aVgeneric_hidden
p2633
aVgeneric_hidden
p2634
aVoracle_false_promise
p2635
aVspecial_bonus_unique_oracle_2
p2636
aVspecial_bonus_exp_boost_25
p2637
aVspecial_bonus_cast_range_150
p2638
aVspecial_bonus_gold_income_15
p2639
aVspecial_bonus_movement_speed_75
p2640
aVspecial_bonus_unique_oracle_4
p2641
aVspecial_bonus_unique_oracle_3
p2642
aVspecial_bonus_unique_oracle
p2643
asVnoxious megagreevil
p2644
(lp2645
Vgreevil_miniboss_purple_venomous_gale
p2646
aVgreevil_miniboss_purple_plague_ward
p2647
aVgreevil_miniboss_sight
p2648
aV
assVsatyr_trickster_purge
p2649
V5314
p2650
sVlone_druid_true_form_battle_cry
p2651
V5417
p2652
sVlone_druid_rabid
p2653
V5413
p2654
sVomniknight_repel
p2655
V5264
p2656
sg307
g306
sg771
Vnpc_dota_hero_clinkz
p2657
sVtidehunter_ravage
p2658
V5121
p2659
sVnpc_dota_goodguys_siege_upgraded
p2660
g653
sVdeath_prophet_carrion_swarm
p2661
V5090
p2662
sVitem_helm_of_iron_will
p2663
V6
sVwisp_spirits_out
p2664
V5493
p2665
sVenchantress_impetus
p2666
V5270
p2667
sVitem_mekansm
p2668
V79
p2669
sVnpc_dota_hero_sniper
p2670
g499
sVspecial_bonus_movement_speed_60
p2671
V6373
p2672
sg1313
Vnpc_dota_necronomicon_warrior_3
p2673
sVitem_recipe_poor_mans_shield
p2674
V70
p2675
sVspecial_bonus_cast_range_200
p2676
V6114
p2677
sVnpc_dota_hero_bloodseeker
p2678
g2458
sVtinker_laser
p2679
V5150
p2680
sg1189
Vnpc_dota_hero_broodmother
p2681
sVbrewmaster_earth_spell_immunity
p2682
V5405
p2683
sVcrystal_maiden_freezing_field
p2684
V5129
p2685
sVvenomancer_venomous_gale
p2686
V5178
p2687
sVcentaur_return
p2688
V5516
p2689
sVvisage_soul_assumption
p2690
V5481
p2691
sVnpc_dota_dire_eidolon
p2692
g709
sVspecial_bonus_lifesteal_20
p2693
V6078
p2694
sVspecial_bonus_lifesteal_25
p2695
V6111
p2696
sVearthshaker_enchant_totem
p2697
V5024
p2698
sVspecial_bonus_respawn_reduction_50
p2699
V6269
p2700
sVtechies_stasis_trap
p2701
V5600
p2702
sVzuus_thundergods_wrath
p2703
V5113
p2704
sVshredder_timber_chain
p2705
V5525
p2706
sVnight_stalker_crippling_fear
p2707
V5276
p2708
sVnpc_dota_creep_goodguys_melee_diretide
p2709
g2554
sVzuus_lightning_bolt
p2710
V5111
p2711
sg1562
Vnpc_dota_neutral_polar_furbolg_champion
p2712
sVbroodmother_spawn_spiderite
p2713
V5283
p2714
sVitem_recipe_travel_boots_2
p2715
V219
p2716
sVspecial_bonus_unique_axe_3
p2717
V6815
p2718
sVspecial_bonus_unique_axe_2
p2719
V6608
p2720
sVitem_recipe_ethereal_blade
p2721
V175
p2722
sVspawnlord_master_freeze
p2723
V6278
p2724
sVitem_null_talisman
p2725
V77
p2726
sVitem_boots
p2727
V29
p2728
sg1740
Vnpc_dota_neutral_kobold_taskmaster
p2729
sVnpc_dota_hero_spirit_breaker
p2730
g921
sg1247
Vnpc_dota_hero_furion
p2731
sVlycan_shapeshift
p2732
V5398
p2733
sVspecial_bonus_attack_range_175
p2734
V6186
p2735
sVspecial_bonus_unique_outworld_devourer
p2736
V6241
p2737
sVspecial_bonus_attack_speed_160
p2738
V6605
p2739
sVspecial_bonus_unique_razor
p2740
V6028
p2741
sVitem_boots_of_elves
p2742
V18
p2743
sVgreevil_miniboss_red_overpower
p2744
V5541
p2745
sVspecial_bonus_unique_storm_spirit_3
p2746
V6907
p2747
sVspecial_bonus_unique_storm_spirit_2
p2748
V6906
p2749
sVnpc_dota_shadow_shaman_ward_1
p2750
Vserpent ward
p2751
sVspecial_bonus_unique_storm_spirit_5
p2752
V6916
p2753
sVspecial_bonus_unique_storm_spirit_4
p2754
V6908
p2755
sVundying_tombstone
p2756
V5444
p2757
sVspecial_bonus_intelligence_30
p2758
V6060
p2759
sVspecial_bonus_intelligence_35
p2760
V6248
p2761
sVitem_mithril_hammer
p2762
V8
sg379
Vnpc_dota_goodguys_fort
p2763
sg1575
Vnpc_dota_healing_campfire
p2764
sVroshan_devotion
p2765
V5217
p2766
sg2279
Vnpc_dota_hero_magnataur
p2767
sVspecial_bonus_spell_amplify_3
p2768
V6162
p2769
sVspecial_bonus_spell_amplify_6
p2770
V5996
p2771
sVspecial_bonus_spell_amplify_5
p2772
V5948
p2773
sVspecial_bonus_spell_amplify_4
p2774
V6015
p2775
sVspecial_bonus_spell_amplify_8
p2776
V5949
p2777
sVnpc_dota_creep_badguys_melee_upgraded
p2778
Vsuper melee creep
p2779
sVspecial_bonus_gold_income_40
p2780
V6301
p2781
sVitem_demon_edge
p2782
V51
p2783
sg2389
Vnpc_dota_hero_venomancer
p2784
sVbrewmaster_storm_dispel_magic
p2785
V5408
p2786
sVslardar_bash
p2787
V5116
p2788
sVcourier_take_stash_items
p2789
V5208
p2790
sVinvoker_empty2
p2791
V5374
p2792
sVitem_sange_and_yasha
p2793
V154
p2794
sg1864
Vnpc_dota_greevil
p2795
sVinvoker_empty1
p2796
V5373
p2797
sVspecial_bonus_mp_350
p2798
V6254
p2799
sVriki_permanent_invisibility
p2800
V5144
p2801
sVitem_enchanted_mango
p2802
V216
p2803
sVroshan_halloween_angry
p2804
V9991
p2805
sVspecial_bonus_unique_disruptor_3
p2806
V6536
p2807
sVspecial_bonus_unique_disruptor_2
p2808
V6368
p2809
sVspecial_bonus_unique_disruptor_5
p2810
V6812
p2811
sVspecial_bonus_unique_disruptor_4
p2812
V6630
p2813
sVwisp_spirits
p2814
V5486
p2815
sVlich_dark_ritual
p2816
V5136
p2817
sVshredder_return_chakram_2
p2818
V5646
p2819
sVspecial_bonus_undefined
p2820
V6285
p2821
sg1800
Vnpc_dota_hero_enigma
p2822
sVitem_veil_of_discord
p2823
V190
p2824
sValchemist_unstable_concoction_throw
p2825
V5367
p2826
sVobsidian_destroyer_arcane_orb
p2827
V5391
p2828
sg945
Vnpc_dota_hero_legion_commander
p2829
sVphantom_assassin_blur
p2830
V5192
p2831
sVspecial_bonus_mp_225
p2832
V6504
p2833
sVspecial_bonus_intelligence_8
p2834
V5925
p2835
sg1625
Vnpc_dota_neutral_satyr_hellcaller
p2836
sg849
Vnpc_dota_brewmaster_earth_3
p2837
sVspecial_bonus_exp_boost_5
p2838
V5983
p2839
sVbackdoor_protection
p2840
V5350
p2841
sVnpc_dota_goodguys_tower3_top
p2842
Vtower
p2843
sVitem_vitality_booster
p2844
V61
p2845
sg472
Vnpc_dota_badguys_cny_beast
p2846
sVspecial_bonus_unique_bristleback_3
p2847
V6615
p2848
sVspecial_bonus_unique_bristleback_2
p2849
V6360
p2850
sVspecial_bonus_attack_range_400
p2851
V6307
p2852
sVshadow_shaman_mass_serpent_ward
p2853
V5081
p2854
sVclinkz_wind_walk
p2855
V5261
p2856
sVitem_river_painter
p2857
V1021
p2858
sVspecial_bonus_unique_razor_3
p2859
V6860
p2860
sVspecial_bonus_unique_razor_2
p2861
V6408
p2862
sVspecial_bonus_unique_razor_4
p2863
V6861
p2864
sVnpc_dota_hero_earth_spirit
p2865
g656
sVnpc_dota_neutral_ogre_magi
p2866
g939
sVnpc_dota_hero_lycan
p2867
g1080
sVmud_golem_hurl_boulder
p2868
V5670
p2869
sVitem_recipe_manta
p2870
V146
p2871
sVlone_druid_true_form_druid
p2872
V5416
p2873
sVitem_recipe_satanic
p2874
V155
p2875
sVspecial_bonus_unique_phoenix_4
p2876
V6852
p2877
sVspecial_bonus_unique_sven
p2878
V6045
p2879
sVspecial_bonus_unique_phoenix_2
p2880
V6085
p2881
sVspecial_bonus_unique_phoenix_3
p2882
V6401
p2883
sVspecial_bonus_unique_phoenix_1
p2884
V6227
p2885
sg787
Vnpc_dota_hero_earthshaker
p2886
sVthrow_coal
p2887
V5578
p2888
sVpugna_nether_blast
p2889
V5186
p2890
sVnpc_dota_hero_ancient_apparition
p2891
g2593
sVspecial_bonus_attack_speed_50
p2892
V6020
p2893
sVnpc_dota_hero_shadow_shaman
p2894
g1096
sVelder_titan_return_spirit
p2895
V5592
p2896
sg872
Vnpc_dota_greevil_minion_blue
p2897
sVslardar_amplify_damage
p2898
V5117
p2899
sVspecial_bonus_unique_lone_druid_9
p2900
V7036
p2901
sVspecial_bonus_unique_lone_druid_8
p2902
V6806
p2903
sVspecial_bonus_unique_lone_druid_5
p2904
V6508
p2905
sVspecial_bonus_unique_lone_druid_4
p2906
V6268
p2907
sVspecial_bonus_unique_lone_druid_7
p2908
V6680
p2909
sVspecial_bonus_unique_lone_druid_6
p2910
V6679
p2911
sVspecial_bonus_unique_lone_druid_1
p2912
V6261
p2913
sVluna_moon_glaive
p2914
V5223
p2915
sVspecial_bonus_unique_lone_druid_3
p2916
V6263
p2917
sVspecial_bonus_unique_lone_druid_2
p2918
V6262
p2919
sg434
g434
sVshadow_demon_shadow_poison_release
p2920
V5424
p2921
sg1974
Vnpc_dota_hero_keeper_of_the_light
p2922
sg1057
Vnpc_dota_invoker_forged_spirit
p2923
sVspecial_bonus_unique_legion_commander
p2924
V6218
p2925
sVspecial_bonus_unique_phantom_lancer
p2926
V6146
p2927
sg430
Vnpc_dota_neutral_fel_beast
p2928
sVgreevil_blade_fury
p2929
V5553
p2930
sVitem_silver_edge
p2931
V249
p2932
sg246
g245
sVspecial_bonus_unique_earth_spirit
p2933
V6203
p2934
sg425
Vnpc_dota_neutral_polar_furbolg_ursa_warrior
p2935
sVitem_monkey_king_bar
p2936
V135
p2937
sVspecial_bonus_unique_meepo_2
p2938
V6689
p2939
sVspecial_bonus_unique_clinkz_3
p2940
V6620
p2941
sVspecial_bonus_unique_clinkz_2
p2942
V6231
p2943
sVspecial_bonus_unique_clinkz_1
p2944
V6104
p2945
sg1263
Vnpc_dota_hero_techies
p2946
sVspecial_bonus_movement_speed_75
p2947
V6355
p2948
sg178
g177
sVabaddon_borrowed_time
p2949
V5588
p2950
sg1171
Vnpc_dota_neutral_dark_troll
p2951
sVmedusa_mana_shield
p2952
V5506
p2953
sVnpc_dota_hero_lich
p2954
g2060
sVitem_arcane_boots
p2955
V180
p2956
sVitem_recipe_sange_and_yasha
p2957
V153
p2958
sVnpc_dota_hero_invoker
p2959
g1015
sVgreevil_flesh_golem
p2960
V5562
p2961
sVwarlock_golem_flaming_fists
p2962
V5166
p2963
sVneutral_spell_immunity
p2964
V5303
p2965
sg1457
Vnpc_dota_beastmaster_greater_boar
p2966
sVitem_relic
p2967
V54
p2968
sVsniper_headshot
p2969
V5155
p2970
sg1509
Vnpc_dota_techies_remote_mine
p2971
sVnpc_dota_hero_nyx_assassin
p2972
g1350
sg2538
Vnpc_dota_hero_viper
p2973
sVnpc_dota_broodmother_spiderite
p2974
g436
sVitem_solar_crest
p2975
V229
p2976
sVspecial_bonus_lifesteal_30
p2977
V6121
p2978
sVforest_troll_high_priest_heal
p2979
V5318
p2980
sVspecial_bonus_unique_huskar_3
p2981
V6655
p2982
sg75
g74
sVitem_ghost
p2983
V37
p2984
sVpugna_life_drain
p2985
V5189
p2986
sVnpc_dota_greevil_miniboss_purple
p2987
g2644
sVnpc_dota_badguys_siege
p2988
Vsiege creep
p2989
sVspecial_bonus_respawn_reduction_40
p2990
V6066
p2991
sg2836
g1625
sVspecial_bonus_respawn_reduction_45
p2992
V6375
p2993
sVnpc_dota_neutral_mud_golem_split
p2994
g1145
sVnpc_dota_hero_juggernaut
p2995
g1041
sg1703
Vnpc_dota_hero_sand_king
p2996
sVmorphling_adaptive_strike_str
p2997
V7000
p2998
sVcentaur_double_edge
p2999
V5515
p3000
sVspecial_bonus_attack_damage_90
p3001
V5968
p3002
sVbrewmaster_primal_split
p3003
V5403
p3004
sg1795
Vnpc_dota_goodguys_melee_rax_mid
p3005
sg1832
Vnpc_dota_hero_faceless_void
p3006
sVnpc_dota_greevil_miniboss_black
p3007
g2078
sVitem_bloodthorn
p3008
V250
p3009
sVdisruptor_glimpse
p3010
V5459
p3011
sVhuskar_life_break
p3012
V5274
p3013
sVspecial_bonus_unique_dazzle_1
p3014
V6049
p3015
sVitem_recipe_greater_crit
p3016
V140
p3017
sVpudge_flesh_heap
p3018
V5074
p3019
sg811
Vnpc_dota_greevil_minion_yellow
p3020
sg2971
g1509
sVweaver_the_swarm
p3021
V5289
p3022
sVcourier_burst
p3023
V5210
p3024
sg2028
Vnpc_dota_hero_vengefulspirit
p3025
sVcourier_go_to_sideshop2
p3026
V6334
p3027
sVspecial_bonus_unique_troll_warlord_2
p3028
V6958
p3029
sVspecial_bonus_unique_troll_warlord_3
p3030
V6959
p3031
sVspecial_bonus_hp_regen_35
p3032
V8351
p3033
sg2610
Vnpc_dota_gyrocopter_homing_missile
p3034
sVspecial_bonus_unique_troll_warlord_4
p3035
V6960
p3036
sVwarlock_golem_permanent_immolation
p3037
V5167
p3038
sVnpc_dota_hero_slardar
p3039
g2104
sVriki_tricks_of_the_trade
p3040
V5145
p3041
sVspecial_bonus_unique_ogre_magi
p3042
V6183
p3043
sVnpc_dota_hero_zuus
p3044
g1743
sg2170
Vnpc_dota_hero_wisp
p3045
sVjuggernaut_blade_fury
p3046
V5028
p3047
sVspecial_bonus_hp_100
p3048
V5900
p3049
sVleshrac_lightning_storm
p3050
V5243
p3051
sVitem_branches
p3052
V16
p3053
sVwarlock_shadow_word
p3054
V5163
p3055
sVgreevil_leech_seed
p3056
V5557
p3057
sVnpc_dota_badguys_tower1_bot
p3058
Vtower
p3059
sVnpc_dota_creep_badguys_ranged_diretide
p3060
g389
sg624
Vnpc_dota_neutral_small_thunder_lizard
p3061
sVnpc_dota_goodguys_healers
p3062
Vshrine
p3063
sg1367
Vnpc_dota_hero_queenofpain
p3064
sVspecial_bonus_unique_bounty_hunter
p3065
V6018
p3066
sVaxe_battle_hunger
p3067
V5008
p3068
sVbrewmaster_fire_permanent_immolation
p3069
V5411
p3070
sVdeath_prophet_spirit_siphon
p3071
V5685
p3072
sVearth_spirit_geomagnetic_grip
p3073
V5610
p3074
sg2554
g2709
sVnpc_dota_brewmaster_earth_2
p3075
Vearth
p3076
sg2837
Vearth
p3077
sg2590
Vnpc_dota_unit_tombstone3
p3078
sVtiny_toss_tree
p3079
V6937
p3080
sVnpc_dota_neutral_satyr_trickster
p3081
g1572
sVnpc_dota_greater_eidolon
p3082
g1595
sVhealing_campfire
p3083
V5579
p3084
sVitem_blades_of_attack
p3085
V2
sVitem_broadsword
p3086
V3
sVnpc_dota_goodguys_range_rax_mid
p3087
g567
sVgreevil_miniboss_black_nightmare
p3088
V5536
p3089
sVitem_rapier
p3090
V133
p3091
sVnpc_dota_neutral_satyr_soulstealer
p3092
g564
sVbrewmaster_drunken_haze
p3093
V5401
p3094
sVspecial_bonus_gold_income_70
p3095
V6446
p3096
sVspecial_bonus_unique_meepo_3
p3097
V7027
p3098
sVspecial_bonus_mp_500
p3099
V6185
p3100
sVitem_recipe_rod_of_atos
p3101
V205
p3102
sVbeastmaster_boar_poison
p3103
V5171
p3104
sVrubick_empty1
p3105
V5453
p3106
sVrubick_empty2
p3107
V5454
p3108
sVnpc_dota_badguys_fillers
p3109
g1719
sg2340
Vnpc_dota_hero_phantom_assassin
p3110
sg564
g3092
sVpudge_rot
p3111
V5076
p3112
sVwinter_wyvern_winters_curse
p3113
V5654
p3114
sg605
Vnpc_dota_hero_windrunner
p3115
sVskywrath_mage_arcane_bolt
p3116
V5581
p3117
sVspecial_bonus_unique_elder_titan
p3118
V6171
p3119
sVitem_skadi
p3120
V160
p3121
sVgreevil_ice_wall
p3122
V5547
p3123
sVspecial_bonus_unique_death_prophet_2
p3124
V6367
p3125
sVspecial_bonus_unique_death_prophet_3
p3126
V6628
p3127
sVspecial_bonus_unique_death_prophet_4
p3128
V6805
p3129
sVgreevil_echo_slam
p3130
V5558
p3131
sg208
g207
sVspecial_bonus_cooldown_reduction_15
p3132
V5951
p3133
sVroshan_inherent_buffs
p3134
V5216
p3135
sVspecial_bonus_cooldown_reduction_10
p3136
V6021
p3137
sVspecial_bonus_cooldown_reduction_12
p3138
V6190
p3139
sVdazzle_shadow_wave
p3140
V5235
p3141
sVlegion_commander_press_the_attack
p3142
V5596
p3143
sVitem_river_painter4
p3144
V1024
p3145
sVfaceless_void_time_lock
p3146
V5184
p3147
sVvengefulspirit_magic_missile
p3148
V5122
p3149
sVlife_stealer_empty_1
p3150
V5657
p3151
sVlife_stealer_empty_2
p3152
V5658
p3153
sVlife_stealer_empty_3
p3154
V5659
p3155
sVlife_stealer_empty_4
p3156
V5660
p3157
sVnpc_dota_goodguys_tower3_bot
p3158
Vtower
p3159
sVwindrunner_focusfire
p3160
V5133
p3161
sVzuus_static_field
p3162
V5112
p3163
sVspirit_breaker_charge_of_darkness
p3164
V5353
p3165
sVspecial_bonus_unique_faceless_void
p3166
V6128
p3167
sVitem_recipe_dragon_lance
p3168
V234
p3169
sg688
Vnpc_dota_hero_kunkka
p3170
sVitem_recipe_power_treads
p3171
V62
p3172
sg123
g122
sVtechies_minefield_sign
p3173
V5644
p3174
sVspecial_bonus_strength_40
p3175
V6633
p3176
sVshadow_demon_shadow_poison
p3177
V5423
p3178
sVspecial_bonus_unique_nevermore_1
p3179
V6670
p3180
sVspecial_bonus_unique_nevermore_2
p3181
V6070
p3182
sVspecial_bonus_unique_nevermore_3
p3183
V6875
p3184
sVspecial_bonus_unique_nevermore_4
p3185
V6876
p3186
sVspecial_bonus_unique_nevermore_5
p3187
V6912
p3188
sVspecial_bonus_cast_range_350
p3189
V6930
p3190
sVphoenix_sun_ray_toggle_move
p3191
V5628
p3192
sVspecial_bonus_attack_speed_45
p3193
V6224
p3194
sVspecial_bonus_attack_speed_40
p3195
V6210
p3196
sVroshan_halloween_fireball
p3197
V10002
p3198
sVjakiro_ice_path
p3199
V5298
p3200
sVnpc_dota_hero_necrolyte
p3201
g833
sVspecial_bonus_unique_bloodseeker_4
p3202
V6809
p3203
sVnpc_dota_rattletrap_cog
p3204
g1570
sg1311
Vnpc_dota_scout_hawk
p3205
sVspecial_bonus_unique_bloodseeker_2
p3206
V6356
p3207
sVitem_orchid
p3208
V98
p3209
sVspecial_bonus_unique_bloodseeker_3
p3210
V6357
p3211
sVnpc_dota_greevil_minion_red
p3212
g769
sVtemplar_assassin_trap
p3213
V5198
p3214
sVitem_pers
p3215
V69
p3216
sVlycan_summon_wolves_invisibility
p3217
V5500
p3218
sVspecial_bonus_unique_meepo
p3219
V6288
p3220
sg626
Vnpc_dota_neutral_forest_troll_berserker
p3221
sVspecial_bonus_magic_resistance_20
p3222
V6000
p3223
sVspecial_bonus_movement_speed_40
p3224
V6093
p3225
sVspecial_bonus_movement_speed_45
p3226
V6249
p3227
sg1597
Vnpc_dota_neutral_mud_golem
p3228
sVspecial_bonus_unique_templar_assassin_6
p3229
V7058
p3230
sVspecial_bonus_unique_templar_assassin_5
p3231
V6940
p3232
sVmeepo_earthbind
p3233
V5430
p3234
sVspecial_bonus_unique_templar_assassin_3
p3235
V6938
p3236
sVspecial_bonus_unique_templar_assassin_2
p3237
V6545
p3238
sVnpc_dota_techies_stasis_trap
p3239
g1798
sVbroodmother_poison_sting
p3240
V5284
p3241
sVnpc_dota_weaver_swarm
p3242
g387
sg2593
g2891
sVmeepo_divided_we_stand
p3243
V5433
p3244
sVkunkka_tidebringer
p3245
V5032
p3246
sVshredder_reactive_armor
p3247
V5526
p3248
sVitem_river_painter2
p3249
V1022
p3250
sVgranite_golem_hp_aura
p3251
V5656
p3252
sVdisruptor_kinetic_field
p3253
V5460
p3254
sVmagnataur_empower
p3255
V5519
p3256
sVvisage_grave_chill
p3257
V5480
p3258
sVchaos_knight_chaos_bolt
p3259
V5426
p3260
sVitem_medallion_of_courage
p3261
V187
p3262
sVspecial_bonus_unique_ancient_apparition_1
p3263
V6214
p3264
sVspecial_bonus_unique_ancient_apparition_2
p3265
V6291
p3266
sVspecial_bonus_unique_ancient_apparition_3
p3267
V6352
p3268
sVspecial_bonus_unique_ancient_apparition_4
p3269
V6534
p3270
sVspecial_bonus_unique_windranger
p3271
V6144
p3272
sVspecial_bonus_unique_sand_king
p3273
V6207
p3274
sVcny2015_black_hole
p3275
V5663
p3276
sVmonkey_king_primal_spring_early
p3277
V5726
p3278
sVspecial_bonus_respawn_reduction_35
p3279
V6038
p3280
sVstorm_spirit_electric_vortex
p3281
V5099
p3282
sVspecial_bonus_respawn_reduction_30
p3283
V5964
p3284
sVinvoker_chaos_meteor
p3285
V5385
p3286
sVdeath_prophet_witchcraft
p3287
V5092
p3288
sVitem_tome_of_knowledge
p3289
V257
p3290
sVluna_lunar_blessing
p3291
V5224
p3292
sVnpc_dota_beastmaster_hawk
p3293
Vhawk
p3294
sVspecial_bonus_unique_wisp
p3295
V6265
p3296
sVnpc_dota_creep_badguys_melee_diretide
p3297
g997
sVspecial_bonus_unique_wraith_king_2
p3298
V6088
p3299
sVspecial_bonus_unique_wraith_king_3
p3300
V6414
p3301
sVspecial_bonus_unique_wraith_king_1
p3302
V6201
p3303
sVspecial_bonus_unique_wraith_king_6
p3304
V6822
p3305
sVspecial_bonus_unique_wraith_king_4
p3306
V6566
p3307
sVspecial_bonus_unique_wraith_king_5
p3308
V6821
p3309
sg2008
Vnpc_dota_neutral_giant_wolf
p3310
sVskywrath_mage_mystic_flare
p3311
V5584
p3312
sVitem_buckler
p3313
V86
p3314
sVspecial_bonus_unique_arc_warden
p3315
V6287
p3316
sVabyssal_underlord_pit_of_malice
p3317
V5614
p3318
sVspecial_bonus_hp_regen_20
p3319
V6079
p3320
sg713
Vnpc_dota_hero_phoenix
p3321
sVspecial_bonus_hp_regen_25
p3322
V6308
p3323
sg2612
Vnpc_dota_hero_axe
p3324
sVitem_wind_lace
p3325
V244
p3326
sVspecial_bonus_spell_lifesteal_10
p3327
V6564
p3328
sVtemplar_assassin_refraction
p3329
V5194
p3330
sVspecial_bonus_attack_range_150
p3331
V5963
p3332
sVnpc_dota_hero_weaver
p3333
g737
sVnpc_dota_neutral_mud_golem_split_doom
p3334
g815
sVdisruptor_thunder_strike
p3335
V5458
p3336
sVtiny_craggy_exterior
p3337
V5108
p3338
sVwarlock_rain_of_chaos
p3339
V5165
p3340
sVitem_recipe_invis_sword
p3341
V183
p3342
sVcourier_return_to_base
p3343
V5205
p3344
sVtreant_living_armor
p3345
V5436
p3346
sVjuggernaut_omni_slash
p3347
V5030
p3348
sVlife_stealer_control
p3349
V5655
p3350
sVmirana_arrow
p3351
V5048
p3352
sVnight_stalker_darkness
p3353
V5278
p3354
sVspecial_bonus_attack_speed_100
p3355
V6037
p3356
sVgnoll_assassin_envenomed_weapon
p3357
V5296
p3358
sVnpc_dota_hero_winter_wyvern
p3359
g2245
sVitem_heavens_halberd
p3360
V210
p3361
sVnpc_dota_beastmaster_boar_4
p3362
Vboar
p3363
sVspecial_bonus_all_stats_5
p3364
V5921
p3365
sVkeeper_of_the_light_mana_leak
p3366
V5472
p3367
sVancient_apparition_ice_vortex
p3368
V5346
p3369
sVspectre_desolate
p3370
V5335
p3371
sVbear_empty2
p3372
V83
p3373
sVbear_empty1
p3374
V82
p3375
sVspecial_bonus_all_stats_7
p3376
V6074
p3377
sVspecial_bonus_attack_damage_100
p3378
V5979
p3379
sVgreevil_decrepify
p3380
V5531
p3381
sVspecial_bonus_unique_earthshaker
p3382
V6035
p3383
sVnpc_dota_greevil_miniboss_green
p3384
g2187
sVroshan_halloween_burn
p3385
V9999
p3386
sg478
Vnpc_dota_hero_tusk
p3387
sVgreevil_poison_nova
p3388
V5546
p3389
sg131
g130
sg546
Vnpc_dota_hero_pugna
p3390
sVspecial_bonus_armor_10
p3391
V6004
p3392
sVspecial_bonus_unique_tinker
p3393
V6152
p3394
sVspecial_bonus_armor_12
p3395
V6286
p3396
sVspecial_bonus_armor_15
p3397
V6175
p3398
sg389
g3060
sVnpc_dota_hero_mirana
p3399
g1416
sVdoom_bringer_scorched_earth
p3400
V5340
p3401
sVspecial_bonus_mp_400
p3402
V6321
p3403
sg1205
Vnpc_dota_elder_titan_ancestral_spirit
p3404
sVearth_spirit_magnetize
p3405
V5612
p3406
sg656
g2865
sVbane_brain_sap
p3407
V5011
p3408
sVitem_phase_boots
p3409
V50
p3410
sg705
Vnpc_dota_badguys_siege_diretide
p3411
sVgreevil_miniboss_green_living_armor
p3412
V5570
p3413
sVbroodmother_spin_web
p3414
V5280
p3415
sg807
Vnpc_dota_warlock_golem_scepter_2
p3416
sVmud_golem_rock_destroy
p3417
V5667
p3418
sg813
Vnpc_dota_greevil_minion_black
p3419
sVogre_magi_multicast
p3420
V5441
p3421
sg1138
Vnpc_dota_eidolon
p3422
sVspecial_bonus_cleave_20
p3423
V6603
p3424
sVdrow_ranger_marksmanship
p3425
V5022
p3426
sVdoom_bringer_doom
p3427
V5342
p3428
sVspecial_bonus_cleave_25
p3429
V6801
p3430
sVpuck_phase_shift
p3431
V5072
p3432
sVitem_guardian_greaves
p3433
V231
p3434
sVitem_mask_of_madness
p3435
V172
p3436
sVitem_faerie_fire
p3437
V237
p3438
sVcentaur_khan_endurance_aura
p3439
V5294
p3440
sVtemplar_assassin_self_trap
p3441
V5199
p3442
sVnpc_dota_badguys_tower3_mid
p3443
Vtower
p3444
sVancient_apparition_ice_blast_release
p3445
V5349
p3446
sVnyx_assassin_burrow
p3447
V5666
p3448
sVspecial_bonus_cooldown_reduction_20
p3449
V5952
p3450
sVlich_frost_armor
p3451
V5135
p3452
sVearth_spirit_rolling_boulder
p3453
V5609
p3454
sVnecronomicon_archer_aoe
p3455
V5204
p3456
sVlegion_commander_duel
p3457
V5598
p3458
sVspecial_bonus_all_stats_20
p3459
V6309
p3460
sVnpc_dota_unit_undying_zombie
p3461
g2361
sVpugna_decrepify
p3462
V5187
p3463
sVspecial_bonus_unique_disruptor
p3464
V6215
p3465
sVitem_sphere
p3466
V123
p3467
sg1623
Vnpc_dota_observer_wards
p3468
sVgyrocopter_flak_cannon
p3469
V5363
p3470
sVcny_beast_teleport
p3471
V5665
p3472
sg2829
g945
sVnpc_dota_hero_tinker
p3473
g1173
sVitem_yasha
p3474
V170
p3475
sVsniper_take_aim
p3476
V5156
p3477
sVspecial_bonus_unique_wisp_5
p3478
V6924
p3479
sVspecial_bonus_unique_wisp_4
p3480
V6808
p3481
sVspecial_bonus_unique_wisp_3
p3482
V6659
p3483
sVspecial_bonus_unique_wisp_2
p3484
V6537
p3485
sVdark_willow_bedlam
p3486
V6340
p3487
sVitem_recipe_bloodstone
p3488
V120
p3489
sVnpc_dota_creep_goodguys_melee
p3490
g413
sVspecial_bonus_attack_speed_70
p3491
V6444
p3492
sVspecial_bonus_magic_resistance_80
p3493
V6965
p3494
sVlone_druid_savage_roar_bear
p3495
V5687
p3496
sVgreevil_miniboss_yellow_ion_shell
p3497
V5542
p3498
sVspecial_bonus_unique_shadow_demon_6
p3499
V7061
p3500
sVitem_recipe_silver_edge
p3501
V248
p3502
sVspecial_bonus_unique_shadow_demon_4
p3503
V6873
p3504
sVspecial_bonus_unique_shadow_demon_5
p3505
V7002
p3506
sVspecial_bonus_unique_shadow_demon_2
p3507
V6293
p3508
sVspecial_bonus_unique_shadow_demon_3
p3509
V6542
p3510
sVspecial_bonus_unique_shadow_demon_1
p3511
V6208
p3512
sVnpc_dota_neutral_prowler_acolyte
p3513
g1649
sVsilencer_global_silence
p3514
V5380
p3515
sg1595
g3082
sVbroodmother_spawn_spiderlings
p3516
V5279
p3517
sVitem_clarity
p3518
V38
p3519
sVspecial_bonus_unique_luna_1
p3520
V6180
p3521
sVspecial_bonus_unique_puck
p3522
V6219
p3523
sVspecial_bonus_unique_luna_3
p3524
V6682
p3525
sVspecial_bonus_unique_luna_4
p3526
V7047
p3527
sVspecial_bonus_unique_luna_5
p3528
V7055
p3529
sVenchantress_natures_attendants
p3530
V5269
p3531
sVmonkey_king_primal_spring
p3532
V5724
p3533
sVitem_recipe_magic_wand
p3534
V35
p3535
sVitem_recipe_shivas_guard
p3536
V118
p3537
sVitem_force_staff
p3538
V102
p3539
sVtechies_suicide
p3540
V5601
p3541
sVspecial_bonus_unique_oracle_4
p3542
V6970
p3543
sVspecial_bonus_unique_oracle_2
p3544
V6540
p3545
sVspecial_bonus_unique_oracle_3
p3546
V6710
p3547
sVspecial_bonus_movement_speed_50
p3548
V6306
p3549
sVcny2015_sonic_wave
p3550
V5662
p3551
sVspecial_bonus_unique_treant
p3552
V6024
p3553
sg2099
Vnpc_dota_necronomicon_archer_1
p3554
sVclinkz_death_pact
p3555
V5262
p3556
sg2150
Vnpc_dota_pugna_nether_ward_2
p3557
sVitem_travel_boots_2
p3558
V220
p3559
sVspecial_bonus_lifesteal_10
p3560
V6158
p3561
sVundying_decay
p3562
V5442
p3563
sVnpc_dota_hero_target_dummy
p3564
g2536
sVnpc_dota_hero_dragon_knight
p3565
g1475
sg2329
Vnpc_dota_neutral_black_dragon
p3566
sVnpc_dota_tusk_frozen_sigil4
p3567
g1143
sVearth_spirit_petrify
p3568
V5648
p3569
sVnpc_dota_tusk_frozen_sigil1
p3570
Vfrozen sigil
p3571
sVspecial_bonus_unique_timbersaw
p3572
V6223
p3573
sVnpc_dota_tusk_frozen_sigil2
p3574
Vfrozen sigil
p3575
sVspecial_bonus_respawn_reduction_25
p3576
V5954
p3577
sVwarlock_upheaval
p3578
V5164
p3579
sVspecial_bonus_respawn_reduction_20
p3580
V5953
p3581
sVlone_druid_spirit_bear_entangle
p3582
V5419
p3583
sVbounty_hunter_jinada
p3584
V5286
p3585
sVspecial_bonus_agility_8
p3586
V6014
p3587
sg2474
g2474
sVtusk_frozen_sigil
p3588
V5567
p3589
sg2496
Vnpc_dota_neutral_elder_jungle_stalker
p3590
sg2498
Vnpc_dota_furion_treant_large
p3591
sg2681
g1189
sVspecial_bonus_spell_lifesteal_6
p3592
V6817
p3593
sVitem_flask
p3594
V39
p3595
sg2078
g3007
sVspecial_bonus_spell_lifesteal_8
p3596
V6565
p3597
sVnyx_assassin_unburrow
p3598
V5673
p3599
sVgeneric_hidden
p3600
V6251
p3601
sVslark_essence_shift
p3602
V5496
p3603
sVnpc_dota_creep_goodguys_melee_upgraded_mega
p3604
Vmega melee creep
p3605
sVitem_recipe_ring_of_aquila
p3606
V211
p3607
sVspecial_bonus_hp_regen_15
p3608
V5914
p3609
sVjuggernaut_healing_ward
p3610
V5029
p3611
sVspecial_bonus_hp_regen_12
p3612
V6730
p3613
sVleshrac_diabolic_edict
p3614
V5242
p3615
sVspecial_bonus_hp_regen_10
p3616
V5912
p3617
sVnecrolyte_sadist_stop
p3618
V6316
p3619
sVspecial_bonus_unique_undying_3
p3620
V6546
p3621
sVspecial_bonus_unique_undying_2
p3622
V6420
p3623
sVbrewmaster_thunder_clap
p3624
V5400
p3625
sVspecial_bonus_unique_undying_5
p3626
V6972
p3627
sVspecial_bonus_unique_undying_4
p3628
V6971
p3629
sVspecial_bonus_unique_doom_1
p3630
V6073
p3631
sVspecial_bonus_unique_doom_3
p3632
V6369
p3633
sVspecial_bonus_unique_doom_2
p3634
V6314
p3635
sVspecial_bonus_mp_1000
p3636
V6686
p3637
sVspecial_bonus_unique_doom_4
p3638
V6370
p3639
sVspecial_bonus_hp_125
p3640
V5901
p3641
sg436
g2974
sg83
g82
sVstorm_spirit_ball_lightning
p3642
V5101
p3643
sVitem_recipe_crimson_guard
p3644
V243
p3645
sVitem_ward_sentry
p3646
V43
p3647
sVgreevil_maledict
p3648
V5533
p3649
sVlion_voodoo
p3650
V5045
p3651
sVhuskar_inner_vitality
p3652
V5271
p3653
sg567
Vnpc_dota_badguys_range_rax_mid
p3654
sVspecial_bonus_unique_puck_3
p3655
V6855
p3656
sVspecial_bonus_unique_puck_2
p3657
V6402
p3658
sVspecial_bonus_unique_puck_4
p3659
V7057
p3660
sVchaos_knight_phantasm
p3661
V5429
p3662
sVghost_frost_attack
p3663
V5301
p3664
sVitem_bottle
p3665
V41
p3666
sVspecial_bonus_unique_riki_5
p3667
V6867
p3668
sVspecial_bonus_unique_riki_4
p3669
V6866
p3670
sVspecial_bonus_attack_damage_55
p3671
V6396
p3672
sVspecial_bonus_unique_riki_1
p3673
V6330
p3674
sVspecial_bonus_attack_damage_50
p3675
V5941
p3676
sVspecial_bonus_unique_riki_2
p3677
V6193
p3678
sg2440
Vnpc_dota_hero_beastmaster
p3679
sVspecial_bonus_unique_tiny_4
p3680
V6934
p3681
sVspecial_bonus_unique_tiny_5
p3682
V7005
p3683
sVspecial_bonus_attack_damage_150
p3684
V6247
p3685
sVspecial_bonus_unique_tiny_2
p3686
V6932
p3687
sVspecial_bonus_unique_tiny_3
p3688
V6933
p3689
sg2935
g425
sVkeeper_of_the_light_illuminate_end
p3690
V5477
p3691
sg942
Vnpc_dota_neutral_gnoll_assassin
p3692
sVspecial_bonus_night_vision_1000
p3693
V6888
p3694
sVspecial_bonus_armor_20
p3695
V6503
p3696
sg387
g3242
sVnpc_dota_beastmaster_hawk_2
p3697
g2500
sVnpc_dota_beastmaster_hawk_3
p3698
Vhawk
p3699
sg874
Vnpc_dota_hero_troll_warlord
p3700
sVspecial_bonus_unique_doom_5
p3701
V6371
p3702
sVlegion_commander_overwhelming_odds
p3703
V5595
p3704
sVspecial_bonus_mana_break_40
p3705
V6695
p3706
sVspecial_bonus_attack_speed_120
p3707
V6650
p3708
sVtiny_grow
p3709
V5109
p3710
sVitem_ward_dispenser
p3711
V218
p3712
sVbrewmaster_earth_pulverize
p3713
V5406
p3714
sVnpc_dota_badguys_tower2_mid
p3715
Vtower
p3716
sg3404
g1205
sVspectre_haunt
p3717
V5337
p3718
sVnpc_dota_creep_goodguys_melee_upgraded
p3719
g1432
sVspecial_bonus_mp_250
p3720
V6006
p3721
sVtreant_eyes_in_the_forest
p3722
V5649
p3723
sVphoenix_sun_ray_stop
p3724
V5627
p3725
sVlife_stealer_feast
p3726
V5250
p3727
sVspecial_bonus_unique_slardar_2
p3728
V6889
p3729
sVspecial_bonus_unique_slardar_3
p3730
V6890
p3731
sVspecial_bonus_unique_kunkka_3
p3732
V6666
p3733
sVspecial_bonus_unique_kunkka_2
p3734
V6385
p3735
sVspecial_bonus_unique_kunkka_4
p3736
V6667
p3737
sVpangolier_shield_crash
p3738
V6461
p3739
sg1434
g1434
sVspecial_bonus_gold_income_5
p3740
V5955
p3741
sg1436
Vnpc_dota_hero_life_stealer
p3742
sVspecial_bonus_unique_templar_assassin_4
p3743
V6939
p3744
sVroshan_halloween_spell_block
p3745
V5618
p3746
sVspecial_bonus_cleave_15
p3747
V6845
p3748
sVnpc_dota_courier
p3749
g1722
sg43
g42
sVtusk_ice_shards
p3750
V5565
p3751
sVnpc_dota_neutral_rock_golem
p3752
g622
sg3170
g688
sVspecial_bonus_cooldown_reduction_30
p3753
V6561
p3754
sVspecial_bonus_unique_dark_seer_3
p3755
V6624
p3756
sVspecial_bonus_unique_dark_seer_2
p3757
V6365
p3758
sVspecial_bonus_unique_dark_seer_4
p3759
V7046
p3760
sVgreevil_miniboss_blue_cold_feet
p3761
V5538
p3762
sVspecial_bonus_strength_25
p3763
V5984
p3764
sVnaga_siren_mirror_image
p3765
V5467
p3766
sVspecial_bonus_strength_20
p3767
V6080
p3768
sVnpc_dota_goodguys_range_rax_top
p3769
Vranged barracks
p3770
sVarc_warden_tempest_double
p3771
V5683
p3772
sVdazzle_shallow_grave
p3773
V5234
p3774
sVspecial_bonus_attack_speed_60
p3775
V5908
p3776
sVspecial_bonus_night_vision_400
p3777
V6920
p3778
sg1722
g3749
sVspecial_bonus_unique_pangolier_4
p3779
V9061
p3780
sVspecial_bonus_unique_pangolier_5
p3781
V9062
p3782
sVspecial_bonus_unique_pangolier_2
p3783
V6463
p3784
sVspecial_bonus_unique_pangolier_3
p3785
V9060
p3786
sVspecial_bonus_unique_enigma_3
p3787
V6649
p3788
sVspecial_bonus_unique_enigma_2
p3789
V6510
p3790
sVbatrider_flaming_lasso
p3791
V5323
p3792
sVnpc_dota_necronomicon_archer_2
p3793
g2099
sVearthshaker_echo_slam
p3794
V5026
p3795
sg3554
Vnecronomicon archer
p3796
sVspecial_bonus_unique_treant_2
p3797
V6531
p3798
sVspecial_bonus_unique_treant_3
p3799
V6955
p3800
sg1660
Vnpc_dota_neutral_centaur_khan
p3801
sVphoenix_sun_ray
p3802
V5626
p3803
sVspecial_bonus_unique_treant_4
p3804
V6956
p3805
sVspecial_bonus_unique_treant_5
p3806
V6957
p3807
sg176
g175
sVtidehunter_kraken_shell
p3808
V5119
p3809
sVkunkka_ghostship
p3810
V5035
p3811
sVitem_mystic_staff
p3812
V58
p3813
sg2060
g2954
sVmonkey_king_jingu_mastery
p3814
V5723
p3815
sg2102
g2102
sVspecial_bonus_unique_batrider_1
p3816
V6087
p3817
sVspecial_bonus_unique_batrider_3
p3818
V6610
p3819
sVspecial_bonus_unique_batrider_2
p3820
V6229
p3821
sg3064
g1367
sVabyssal_underlord_dark_rift
p3822
V5616
p3823
sVspecial_bonus_unique_dazzle_2
p3824
V6232
p3825
sVspecial_bonus_unique_dazzle_3
p3826
V6528
p3827
sVspecial_bonus_unique_dazzle_4
p3828
V6626
p3829
sVqueenofpain_sonic_wave
p3830
V5176
p3831
sVitem_tango_single
p3832
V241
p3833
sVitem_maelstrom
p3834
V166
p3835
sg2226
Vnpc_dota_neutral_wildkin
p3836
sg315
g314
sVbig_thunder_lizard_wardrums_aura
p3837
V5682
p3838
sVwarlock_fatal_bonds
p3839
V5162
p3840
sVnpc_dota_roshan
p3841
g1530
sVkeeper_of_the_light_blinding_light
p3842
V5476
p3843
sVspecial_bonus_30_crit_2
p3844
V6851
p3845
sVitem_recipe_dagon_3
p3846
V198
p3847
sVdragon_knight_breathe_fire
p3848
V5226
p3849
sVspecial_bonus_movement_speed_20
p3850
V5918
p3851
sVspecial_bonus_movement_speed_25
p3852
V5919
p3853
sVarc_warden_spark_wraith
p3854
V5679
p3855
sg2405
Vnpc_dota_enraged_wildkin_tornado
p3856
sg2408
Vnpc_dota_hero_leshrac
p3857
sVskywrath_mage_concussive_shot
p3858
V5582
p3859
sVitem_headdress
p3860
V94
p3861
sVsven_gods_strength
p3862
V5097
p3863
sVspecial_bonus_respawn_reduction_15
p3864
V5975
p3865
sVnecrolyte_death_pulse
p3866
V5158
p3867
sVspecial_bonus_unique_furion
p3868
V6084
p3869
sVsven_great_cleave
p3870
V5095
p3871
sVtreant_overgrowth
p3872
V5437
p3873
sVundying_tombstone_zombie_aura
p3874
V5445
p3875
sVitem_aether_lens
p3876
V232
p3877
sVspecial_bonus_spell_lifesteal_13
p3878
V6560
p3879
sVspecial_bonus_spell_lifesteal_15
p3880
V6550
p3881
sVnpc_dota_badguys_tower3_bot
p3882
Vtower
p3883
sVnight_stalker_hunter_in_the_night
p3884
V5277
p3885
sVshadow_shaman_ether_shock
p3886
V5078
p3887
sVphoenix_icarus_dive_stop
p3888
V5624
p3889
sVnpc_dota_wraith_king_skeleton_warrior
p3890
g630
sVnpc_dota_badguys_tower2_top
p3891
g2386
sVfurion_wrath_of_nature
p3892
V5248
p3893
sVnpc_dota_hero_naga_siren
p3894
g362
sVnpc_dota_hero_doom_bringer
p3895
g1848
sg1455
g1455
sVfurion_force_of_nature
p3896
V5247
p3897
sVitem_recipe_headdress
p3898
V93
p3899
sVmirana_invis
p3900
V5049
p3901
sVspecial_bonus_hp_600
p3902
V6377
p3903
sVitem_recipe_sphere
p3904
V122
p3905
sVrubick_hidden1
p3906
V5455
p3907
sVspecial_bonus_unique_rubick
p3908
V6041
p3909
sVrubick_hidden3
p3910
V5457
p3911
sVrubick_hidden2
p3912
V5456
p3913
sVlina_laguna_blade
p3914
V5043
p3915
sVinvoker_tornado
p3916
V5382
p3917
sVsilencer_last_word
p3918
V5379
p3919
sVnpc_dota_goodguys_siege_diretide
p3920
g705
sVitem_recipe_pipe
p3921
V89
p3922
sg3742
g1436
sVspecial_bonus_unique_monkey_king_2
p3923
V6421
p3924
sVspecial_bonus_unique_monkey_king_3
p3925
V6696
p3926
sVspecial_bonus_unique_monkey_king_4
p3927
V6697
p3928
sVspecial_bonus_unique_monkey_king_5
p3929
V7024
p3930
sVspecial_bonus_unique_monkey_king_6
p3931
V7025
p3932
sVspecial_bonus_unique_monkey_king_7
p3933
V7038
p3934
sg1080
g2867
sVspecial_bonus_armor_3
p3935
V5930
p3936
sVspecial_bonus_armor_2
p3937
V6110
p3938
sVspecial_bonus_armor_5
p3939
V5932
p3940
sVspecial_bonus_armor_4
p3941
V5931
p3942
sVspecial_bonus_armor_7
p3943
V5970
p3944
sVspecial_bonus_armor_6
p3945
V5933
p3946
sVspecial_bonus_armor_9
p3947
V6136
p3948
sVspecial_bonus_armor_8
p3949
V5934
p3950
sVnpc_dota_creep_goodguys_ranged_upgraded_mega
p3951
g393
sg1432
g2778
sVitem_recipe_dagon
p3952
V103
p3953
sVnpc_dota_roshan_halloween
p3954
Vroshan
p3955
sg2712
g1562
sVnecronomicon_archer_mana_burn
p3956
V5203
p3957
sVspecial_bonus_unique_ancient_apparition_5
p3958
V6810
p3959
sVroshan_halloween_toss
p3960
V9995
p3961
sg2951
g1171
sVnpc_dota_hero_warlock
p3962
g1684
sVabaddon_aphotic_shield
p3963
V5586
p3964
sVspecial_bonus_movement_speed_100
p3965
V6422
p3966
sVspecial_bonus_unique_spectre_5
p3967
V6903
p3968
sVspecial_bonus_unique_spectre_4
p3969
V6902
p3970
sVspecial_bonus_unique_spectre_3
p3971
V6901
p3972
sVspecial_bonus_unique_spectre_2
p3973
V6900
p3974
sVspecial_bonus_unique_jakiro_3
p3975
V6538
p3976
sVogre_magi_frost_armor
p3977
V5304
p3978
sVitem_recipe_lotus_orb
p3979
V221
p3980
sVspecial_bonus_attack_damage_45
p3981
V6253
p3982
sVitem_recipe_meteor_hammer
p3983
V222
p3984
sVspecial_bonus_attack_damage_40
p3985
V5940
p3986
sVnevermore_dark_lord
p3987
V5063
p3988
sVenraged_wildkin_tornado
p3989
V5312
p3990
sVnpc_dota_brewmaster_fire_3
p3991
Vfire
p3992
sVnpc_dota_zeus_cloud
p3993
g2334
sg1015
g2959
sVtusk_walrus_kick
p3994
V5672
p3995
sVmedusa_stone_gaze
p3996
V5507
p3997
sVspecial_bonus_attack_speed_30
p3998
V5907
p3999
sVpugna_nether_ward
p4000
V5188
p4001
sVnpc_dota_creep_badguys_melee
p4002
Vmelee creep
p4003
sVspecial_bonus_cast_range_400
p4004
V6384
p4005
sVspecial_bonus_unique_jakiro_2
p4006
V6381
p4007
sVjakiro_macropyre
p4008
V5300
p4009
sVspecial_bonus_unique_beastmaster_4
p4010
V6612
p4011
sVspecial_bonus_unique_beastmaster_2
p4012
V6517
p4013
sVspecial_bonus_unique_beastmaster_3
p4014
V6611
p4015
sVdark_willow_shadow_realm
p4016
V6341
p4017
sVspecial_bonus_armor_30
p4018
V6645
p4019
sVmorphling_replicate
p4020
V5057
p4021
sVbrewmaster_storm_wind_walk
p4022
V5410
p4023
sVenigma_malefice
p4024
V5146
p4025
sVnpc_dota_venomancer_plague_ward_3
p4026
g634
sVnpc_dota_venomancer_plague_ward_2
p4027
Vplague ward
p4028
sVnpc_dota_venomancer_plague_ward_1
p4029
Vplague ward
p4030
sVblue_dragonspawn_overseer_evasion
p4031
V5326
p4032
sVnpc_dota_venomancer_plague_ward_4
p4033
Vplague ward
p4034
sVlina_fiery_soul
p4035
V5042
p4036
sVshadow_demon_soul_catcher
p4037
V5422
p4038
sVrazor_eye_of_the_storm
p4039
V5085
p4040
sVterrorblade_reflection
p4041
V5619
p4042
sVitem_desolator
p4043
V168
p4044
sVitem_manta
p4045
V147
p4046
sVkeeper_of_the_light_chakra_magic
p4047
V5473
p4048
sVnpc_dota_neutral_ogre_mauler
p4049
g1759
sVkunkka_return
p4050
V5034
p4051
sg1528
g1528
sg1565
Vnpc_dota_beastmaster_boar_3
p4052
sVspecial_bonus_unique_tusk
p4053
V6194
p4054
sVspecial_bonus_hp_regen_7
p4055
V5966
p4056
sVspecial_bonus_hp_regen_6
p4057
V5969
p4058
sVspecial_bonus_hp_regen_5
p4059
V5910
p4060
sVspecial_bonus_hp_regen_4
p4061
V5909
p4062
sVspecial_bonus_unique_jakiro_4
p4063
V6661
p4064
sVspecial_bonus_hp_regen_8
p4065
V5911
p4066
sVinvoker_ice_wall
p4067
V5389
p4068
sVspecial_bonus_unique_alchemist
p4069
V6101
p4070
sVaxe_berserkers_call
p4071
V5007
p4072
sVspecial_bonus_unique_omniknight_4
p4073
V7010
p4074
sVspecial_bonus_evasion_10
p4075
V5971
p4076
sVshredder_whirling_death
p4077
V5524
p4078
sVspecial_bonus_unique_clockwerk_2
p4079
V6364
p4080
sVspecial_bonus_unique_alchemist_3
p4081
V6604
p4082
sVspecial_bonus_unique_silencer_4
p4083
V6880
p4084
sVspecial_bonus_unique_silencer_3
p4085
V6879
p4086
sVspecial_bonus_unique_alchemist_4
p4087
V7054
p4088
sg4052
Vboar
p4089
sVnpc_dota_beastmaster_boar_2
p4090
Vboar
p4091
sVdrow_ranger_frost_arrows
p4092
V5019
p4093
sVwisp_tether
p4094
V5485
p4095
sVnpc_dota_hero_skywrath_mage
p4096
g2504
sVnevermore_shadowraze1
p4097
V5059
p4098
sVnevermore_shadowraze3
p4099
V5061
p4100
sVnevermore_shadowraze2
p4101
V5060
p4102
sVspecial_bonus_unique_queen_of_pain
p4103
V6407
p4104
sVkunkka_x_marks_the_spot
p4105
V5033
p4106
sVspecial_bonus_unique_lion
p4107
V6174
p4108
sVgreevil_shadow_wave
p4109
V5556
p4110
sVspecial_bonus_strength_30
p4111
V6708
p4112
sVdark_willow_bramble_maze
p4113
V6339
p4114
sVspecial_bonus_attack_speed_10
p4115
V6118
p4116
sVspecial_bonus_attack_speed_15
p4117
V6119
p4118
sVdeath_prophet_silence
p4119
V5091
p4120
sVspecial_bonus_magic_resistance_100
p4121
V6874
p4122
sVpangolier_gyroshell_stop
p4123
V6459
p4124
sg2361
Vnpc_dota_unit_undying_zombie_torso
p4125
sVitem_hurricane_pike
p4126
V263
p4127
sVnpc_dota_earth_spirit_stone
p4128
g562
sVskeleton_king_hellfire_blast
p4129
V5086
p4130
sVember_spirit_fire_remnant
p4131
V5606
p4132
sVnpc_dota_hero_bristleback
p4133
g2044
sVspirit_breaker_nether_strike
p4134
V5356
p4135
sVancient_apparition_ice_blast
p4136
V5348
p4137
sVsilencer_curse_of_the_silent
p4138
V5377
p4139
sVspecial_bonus_cast_range_250
p4140
V6161
p4141
sVnpc_dota_hero_drow_ranger
p4142
g999
sg3321
g713
sVchaos_knight_chaos_strike
p4143
V5428
p4144
sVmorphling_morph_replicate
p4145
V5058
p4146
sVgreevil_magic_missile
p4147
V5529
p4148
sg3422
g1138
sg588
Vnpc_dota_hero_bane
p4149
sVantimage_mana_void
p4150
V5006
p4151
sg2574
Vnpc_dota_hero_bounty_hunter
p4152
sVspecial_bonus_unique_lion_2
p4153
V6389
p4154
sVspecial_bonus_unique_lion_3
p4155
V6600
p4156
sVspecial_bonus_unique_lion_4
p4157
V6678
p4158
sVspirit_breaker_empowering_haste
p4159
V5354
p4160
sg2311
Vnpc_dota_hero_arc_warden
p4161
sVspecial_bonus_movement_speed_30
p4162
V6141
p4163
sVspecial_bonus_movement_speed_35
p4164
V6077
p4165
sVspecial_bonus_unique_sven_2
p4166
V6910
p4167
sVspecial_bonus_unique_sven_3
p4168
V6911
p4169
sVclinkz_searing_arrows
p4170
V5260
p4171
sVitem_river_painter3
p4172
V1023
p4173
sVgreevil_miniboss_yellow_surge
p4174
V5543
p4175
sVnpc_dota_badguys_range_rax_top
p4176
Vranged barracks
p4177
sVtornado_tempest
p4178
V5310
p4179
sVnecronomicon_warrior_sight
p4180
V5201
p4181
sVspecial_bonus_20_bash_2
p4182
V6025
p4183
sVitem_recipe_monkey_king_bar
p4184
V134
p4185
sVspecial_bonus_spell_amplify_20
p4186
V6236
p4187
sVpangolier_heartpiercer
p4188
V6346
p4189
sVspecial_bonus_spell_amplify_25
p4190
V6327
p4191
sg2336
g3062
sg2763
g379
sVspecial_bonus_unique_juggernaut_2
p4192
V6662
p4193
sVspecial_bonus_unique_juggernaut_3
p4194
V7021
p4195
sVspecial_bonus_unique_bloodseeker
p4196
V6230
p4197
sVlone_druid_savage_roar
p4198
V5414
p4199
sVitem_bloodstone
p4200
V121
p4201
sVtroll_warlord_berserkers_rage
p4202
V5508
p4203
sVspecial_bonus_exp_boost_10
p4204
V5985
p4205
sVsandking_epicenter
p4206
V5105
p4207
sVspecial_bonus_exp_boost_15
p4208
V5986
p4209
sVember_spirit_searing_chains
p4210
V5603
p4211
sVspectre_reality
p4212
V5338
p4213
sVfurion_sprout
p4214
V5245
p4215
sg61
g60
sVobsidian_destroyer_essence_aura
p4216
V5393
p4217
sVgreevil_miniboss_sight
p4218
V5576
p4219
sg732
Vnpc_dota_greevil_miniboss_orange
p4220
sg2386
g3882
sVnpc_dota_loot_greevil
p4221
g2327
sVbeastmaster_primal_roar
p4222
V5177
p4223
sVtusk_ice_shards_stop
p4224
V5668
p4225
sVspecial_bonus_unique_winter_wyvern_2
p4226
V6297
p4227
sVspecial_bonus_unique_winter_wyvern_3
p4228
V6523
p4229
sVnecrolyte_heartstopper_aura
p4230
V5159
p4231
sg497
g497
sVgreevil_bloodlust
p4232
V5560
p4233
sVitem_ring_of_health
p4234
V56
p4235
sg4149
g588
sVitem_recipe_hand_of_midas
p4236
V64
p4237
sg103
g102
sg921
g2730
sVskeleton_king_vampiric_aura
p4238
V5087
p4239
sVspecial_bonus_hp_700
p4240
V6415
p4241
sVspecial_bonus_unique_silencer_2
p4242
V6878
p4243
sVitem_recipe_cyclone
p4244
V99
p4245
sg1041
g2995
sVomniknight_degen_aura
p4246
V5265
p4247
sVtechies_remote_mines_self_detonate
p4248
V5636
p4249
sVnecronomicon_warrior_mana_burn
p4250
V5202
p4251
sg709
g2692
sVbane_nightmare_end
p4252
V5523
p4253
sVspecial_bonus_unique_skywrath
p4254
V6181
p4255
sg1210
Vnpc_dota_greevil_minion_orange
p4256
sg1230
Vnpc_dota_hero_pangolier
p4257
sg1279
Vnpc_dota_hero_elder_titan
p4258
sg3590
g2496
sVroshan_halloween_levels
p4259
V10000
p4260
sVspecial_bonus_attack_damage_75
p4261
V5942
p4262
sVnpc_dota_templar_assassin_psionic_trap
p4263
g1601
sVlycan_summon_wolves
p4264
V5395
p4265
sVlife_stealer_assimilate_eject
p4266
V5675
p4267
sVwitch_doctor_maledict
p4268
V5140
p4269
sVitem_recipe_abyssal_blade
p4270
V207
p4271
sg1475
g3565
sVspawnlord_master_bash
p4272
V6126
p4273
sVbristleback_viscous_nasal_goo
p4274
V5548
p4275
sVmorphling_morph_str
p4276
V5056
p4277
sVitem_aeon_disk
p4278
V256
p4279
sVancient_apparition_cold_feet
p4280
V5345
p4281
sVitem_reaver
p4282
V53
p4283
sg1570
g3204
sVspecial_bonus_evasion_12
p4284
V6239
p4285
sg2923
g1057
sVspecial_bonus_all_stats_15
p4286
V6135
p4287
sVspecial_bonus_all_stats_14
p4288
V6252
p4289
sVspecial_bonus_all_stats_10
p4290
V6168
p4291
sVspecial_bonus_all_stats_12
p4292
V6139
p4293
sVitem_echo_sabre
p4294
V252
p4295
sg65
g64
sVinvoker_alacrity
p4296
V5384
p4297
sVitem_helm_of_the_dominator
p4298
V164
p4299
sVhuskar_burning_spear
p4300
V5272
p4301
sg25
g24
sg2886
g787
sVspecial_bonus_unique_lina_4
p4302
V6509
p4303
sVitem_recipe_basher
p4304
V142
p4305
sVspecial_bonus_unique_lina_1
p4306
V6212
p4307
sVspecial_bonus_unique_lina_2
p4308
V6313
p4309
sVspecial_bonus_unique_lina_3
p4310
V6388
p4311
sVundying_tombstone_zombie_deathstrike
p4312
V5446
p4313
sVnpc_dota_hero_abaddon
p4314
g672
sVtreant_leech_seed
p4315
V5435
p4316
sVnpc_dota_hero_ember_spirit
p4317
g636
sVabyssal_underlord_cancel_dark_rift
p4318
V5617
p4319
sVnpc_dota_neutral_kobold
p4320
g628
sVitem_refresher
p4321
V110
p4322
sg2928
g430
sVphoenix_launch_fire_spirit
p4323
V5631
p4324
sg3700
g874
sVspecial_bonus_evasion_15
p4325
V5972
p4326
sVcourier_shield
p4327
V5209
p4328
sg2026
Vnpc_dota_sentry_wards
p4329
sVspecial_bonus_evasion_25
p4330
V5974
p4331
sVitem_blight_stone
p4332
V240
p4333
sVspecial_bonus_evasion_20
p4334
V5973
p4335
sg291
g290
sVitem_crimson_guard
p4336
V242
p4337
sg2104
g3039
sVspecial_bonus_unique_silencer_5
p4338
V7048
p4339
sg2134
Vnpc_dota_hero_nevermore
p4340
sVspecial_bonus_unique_alchemist_2
p4341
V6350
p4342
sVnpc_dota_goodguys_tower4
p4343
Vtower
p4344
sVnpc_dota_beastmaster_boar_1
p4345
g1565
sVvengefulspirit_wave_of_terror
p4346
V5124
p4347
sVomniknight_purification
p4348
V5263
p4349
sg2261
Vnpc_dota_hero_shredder
p4350
sg3205
g1311
sVcny2015_chronosphere
p4351
V5664
p4352
sVspecial_bonus_mp_600
p4353
V6382
p4354
sVitem_recipe_heavens_halberd
p4355
V209
p4356
sVjakiro_liquid_fire
p4357
V5299
p4358
sg1629
Vnpc_dota_neutral_big_thunder_lizard
p4359
sVqueenofpain_blink
p4360
V5174
p4361
sVterrorblade_metamorphosis
p4362
V5621
p4363
sVelder_titan_ancestral_spirit
p4364
V5591
p4365
sg2365
Vnpc_dota_hero_ogre_magi
p4366
sVgreevil_black_hole
p4367
V5569
p4368
sVspecial_bonus_mp_100
p4369
V6096
p4370
sg3654
Vranged barracks
p4371
sVspecial_bonus_unique_legion_commander_4
p4372
V6671
p4373
sVspecial_bonus_unique_legion_commander_3
p4374
V6526
p4375
sVspecial_bonus_unique_legion_commander_2
p4376
V6449
p4377
sVspecial_bonus_unique_phantom_lancer_3
p4378
V6849
p4379
sVspecial_bonus_unique_phantom_lancer_2
p4380
V6400
p4381
sVspecial_bonus_attack_damage_35
p4382
V6164
p4383
sVnpc_dota_dark_troll_warlord_skeleton_warrior
p4384
g2456
sVnpc_dota_hero_crystal_maiden
p4385
g2295
sVnpc_dota_hero_brewmaster
p4386
g1922
sg1719
Vnpc_dota_goodguys_fillers
p4387
sVinvoker_deafening_blast
p4388
V5390
p4389
sg2327
g4221
sVnpc_dota_badguys_fort
p4390
g1663
sg413
g4002
sVember_spirit_sleight_of_fist
p4391
V5604
p4392
sVspecial_bonus_unique_keeper_of_the_light_2
p4393
V6527
p4394
sVspecial_bonus_unique_keeper_of_the_light_3
p4395
V6665
p4396
sVnpc_dota_greevil_minion_green
p4397
g2359
sVwisp_overcharge
p4398
V5487
p4399
sg391
g391
sVnpc_dota_goodguys_melee_rax_bot
p4400
Vmelee barracks
p4401
sVitem_meteor_hammer
p4402
V223
p4403
sVdark_seer_ion_shell
p4404
V5256
p4405
sVspecial_bonus_unique_troll_warlord
p4406
V6154
p4407
sVnaga_siren_song_of_the_siren_cancel
p4408
V5478
p4409
sVnpc_dota_visage_familiar3
p4410
Vfamiliar
p4411
sg57
g56
sVspecial_bonus_unique_faceless_void_4
p4412
V7001
p4413
sVaxe_counter_helix
p4414
V5009
p4415
sVclinkz_strafe
p4416
V5259
p4417
sVnpc_dota_visage_familiar2
p4418
g2356
sVnpc_dota_warlock_golem_scepter_3
p4419
g807
sVursa_earthshock
p4420
V5357
p4421
sVspecial_bonus_unique_faceless_void_2
p4422
V6651
p4423
sVspecial_bonus_unique_faceless_void_3
p4424
V6807
p4425
sVdark_seer_wall_of_replica
p4426
V5258
p4427
sVobsidian_destroyer_mind_over_matter
p4428
V5684
p4429
sVslark_shadow_dance
p4430
V5497
p4431
sg570
Vnpc_dota_hero_witch_doctor
p4432
sVundying_flesh_golem
p4433
V5447
p4434
sVitem_recipe_solar_crest
p4435
V227
p4436
sVphantom_lancer_doppelwalk
p4437
V5066
p4438
sVcentaur_stampede
p4439
V5517
p4440
sVabaddon_death_coil
p4441
V5585
p4442
sVspecial_bonus_unique_kunkka
p4443
V6089
p4444
sVspecial_bonus_unique_slardar
p4445
V6211
p4446
sVitem_lesser_crit
p4447
V149
p4448
sg672
g4314
sVlife_stealer_consume
p4449
V5253
p4450
sVitem_dagon
p4451
V104
p4452
sVnpc_dota_greater_hawk
p4453
g804
sVspecial_bonus_spell_lifesteal_30
p4454
V6513
p4455
sg769
g3212
sVitem_recipe_ring_of_basilius
p4456
V87
p4457
sVfaceless_void_chronosphere
p4458
V5185
p4459
sVbeastmaster_call_of_the_wild
p4460
V5169
p4461
sVcrystal_maiden_crystal_nova
p4462
V5126
p4463
sVlone_druid_true_form
p4464
V5415
p4465
sVember_spirit_activate_fire_remnant
p4466
V5607
p4467
sVspecial_bonus_unique_ursa
p4468
V6132
p4469
sg3836
g2226
sVspecial_bonus_unique_dark_seer
p4470
V6047
p4471
sVkeeper_of_the_light_recall
p4472
V5475
p4473
sg905
Vnpc_dota_hero_disruptor
p4474
sVspecial_bonus_exp_boost_25
p4475
V5987
p4476
sVslark_dark_pact
p4477
V5494
p4478
sVspecial_bonus_exp_boost_20
p4479
V6017
p4480
sVobsidian_destroyer_sanity_eclipse
p4481
V5394
p4482
sVdoom_bringer_infernal_blade
p4483
V5341
p4484
sg976
Vnpc_dota_lone_druid_bear1
p4485
sVitem_diffusal_blade
p4486
V174
p4487
sg997
g3297
sg999
g4142
sVskeleton_king_mortal_strike
p4488
V5088
p4489
sg2922
g1974
sVslark_pounce
p4490
V5495
p4491
sg1163
g1163
sg244
g243
sg1212
Vnpc_dota_hero_huskar
p4492
sg1228
g1228
sVspecial_bonus_unique_elder_titan_2
p4493
V6378
p4494
sVspecial_bonus_unique_elder_titan_3
p4495
V6720
p4496
sVursa_overpower
p4497
V5358
p4498
sVitem_recipe_veil_of_discord
p4499
V189
p4500
sg1920
g1920
sg305
g304
sVnpc_dota_badguys_tower1_top
p4501
Vtower
p4502
sg1416
g3399
sVitem_recipe_rapier
p4503
V132
p4504
sg2846
g472
sVbroodmother_incapacitating_bite
p4505
V5281
p4506
sVspecial_bonus_unique_keeper_of_the_light
p4507
V6217
p4508
sVspecial_bonus_unique_zeus_3
p4509
V6518
p4510
sVspecial_bonus_unique_zeus_2
p4511
V6501
p4512
sVitem_ethereal_blade
p4513
V176
p4514
sVspecial_bonus_hp_400
p4515
V5976
p4516
sVspecial_bonus_attack_damage_65
p4517
V6142
p4518
sVspecial_bonus_hp_150
p4519
V5902
p4520
sVspecial_bonus_attack_damage_60
p4521
V6366
p4522
sVspecial_bonus_cast_range_75
p4523
V5947
p4524
sVcentaur_hoof_stomp
p4525
V5514
p4526
sg1078
g1078
sVmonkey_king_tree_dance
p4527
V5721
p4528
sVnpc_dota_goodguys_tower1_top
p4529
Vtower
p4530
sVcny_beast_force_attack
p4531
V5661
p4532
sVnpc_dota_witch_doctor_death_ward
p4533
g1793
sVnpc_dota_techies_land_mine
p4534
g432
sg2731
g1247
sg2334
g3993
sVspecial_bonus_all_stats_8
p4535
V5923
p4536
sVspecial_bonus_unique_necrophos
p4537
V6010
p4538
sVspecial_bonus_agility_40
p4539
V6430
p4540
sVspecial_bonus_all_stats_4
p4541
V5920
p4542
sVlycan_summon_wolves_critical_strike
p4543
V5399
p4544
sVspecial_bonus_all_stats_6
p4545
V5922
p4546
sVkeeper_of_the_light_illuminate
p4547
V5471
p4548
sVweaver_geminate_attack
p4549
V5291
p4550
sVwisp_tether_break
p4551
V5489
p4552
sg1957
g1957
sVitem_invis_sword
p4553
V152
p4554
sVgyrocopter_homing_missile
p4555
V5362
p4556
sVspecial_bonus_unique_brewmaster_2
p4557
V6359
p4558
sVspecial_bonus_unique_brewmaster_3
p4559
V6516
p4560
sg499
g2670
sVnpc_dota_goodguys_melee_rax_top
p4561
Vmelee barracks
p4562
sVnyx_assassin_spiked_carapace
p4563
V5464
p4564
sVspecial_bonus_unique_brewmaster_4
p4565
V6614
p4566
sVnevermore_requiem
p4567
V5064
p4568
sg2083
Vnpc_dota_hero_visage
p4569
sg804
g4453
sVitem_magic_stick
p4570
V34
p4571
sVitem_glimmer_cape
p4572
V254
p4573
sVspecial_bonus_cooldown_reduction_50
p4574
V6804
p4575
sVtusk_snowball
p4576
V5566
p4577
sVitem_ogre_axe
p4578
V21
p4579
sVmonkey_king_untransform
p4580
V5722
p4581
sg2229
Vnpc_dota_hero_dazzle
p4582
sg2245
g3359
sVwisp_spirits_in
p4583
V5490
p4584
sVnpc_dota_badguys_tower4
p4585
Vtower
p4586
sValchemist_unstable_concoction
p4587
V5366
p4588
sVspecial_bonus_evasion_30
p4589
V6700
p4590
sVnpc_dota_brewmaster_storm_3
p4591
Vstorm
p4592
sVnpc_dota_brewmaster_storm_2
p4593
Vstorm
p4594
sVnpc_dota_brewmaster_storm_1
p4595
g1652
sVnpc_dota_hero_spectre
p4596
g2558
sVbeastmaster_wild_axes
p4597
V5168
p4598
sVnpc_dota_hero_death_prophet
p4599
g981
sVlife_stealer_infest
p4600
V5252
p4601
sVnpc_dota_goodguys_tower1_bot
p4602
Vtower
p4603
sVspecial_bonus_strength_14
p4604
V6281
p4605
sVspecial_bonus_strength_15
p4606
V6145
p4607
sg3005
Vmelee barracks
p4608
sVspecial_bonus_strength_10
p4609
V6137
p4610
sVspecial_bonus_strength_12
p4611
V5928
p4612
sg2480
Vnpc_dota_hero_sven
p4613
sVnpc_dota_hero_slark
p4614
g1400
sVitem_recipe_pers
p4615
V68
p4616
sVnpc_dota_furion_treant
p4617
g2124
sVitem_assault
p4618
V112
p4619
sg2558
g4596
sg4366
g2365
sVspectre_dispersion
p4620
V5336
p4621
sVspecial_bonus_night_vision_600
p4622
V7019
p4623
sVphantom_lancer_juxtapose
p4624
V5067
p4625
sVspecial_bonus_unique_lifestealer_3
p4626
V7012
p4627
sVspecial_bonus_unique_lifestealer_2
p4628
V6676
p4629
sg4613
g2480
sVitem_recipe_ultimate_scepter
p4630
V107
p4631
sVqueenofpain_scream_of_pain
p4632
V5175
p4633
sg4220
g732
sVspecial_bonus_attack_speed_35
p4634
V6196
p4635
sVnpc_dota_neutral_ghost
p4636
g1700
sVspecial_bonus_magic_resistance_40
p4637
V6663
p4638
sg418
g418
sVmorphling_morph_agi
p4639
V5055
p4640
sVlife_stealer_rage
p4641
V5249
p4642
sg432
g4534
sg454
Vnpc_dota_hero_riki
p4643
sg4256
g1210
sg3419
g813
sVvisage_summon_familiars_stone_form
p4644
V5484
p4645
sVkeeper_of_the_light_spirit_form_illuminate
p4646
V5479
p4647
sVitem_radiance
p4648
V137
p4649
sVnpc_dota_creep_goodguys_ranged
p4650
g2556
sVjuggernaut_blade_dance
p4651
V5027
p4652
sVroshan_halloween_greater_bash
p4653
V9994
p4654
sVspecial_bonus_unique_earth_spirit_2
p4655
V6514
p4656
sVspecial_bonus_unique_earth_spirit_3
p4657
V6640
p4658
sVblue_dragonspawn_overseer_devotion_aura
p4659
V5327
p4660
sVspecial_bonus_unique_rubick_2
p4661
V6862
p4662
sVspecial_bonus_unique_rubick_3
p4663
V6863
p4664
sVspecial_bonus_unique_rubick_4
p4665
V6864
p4666
sVspecial_bonus_unique_rubick_5
p4667
V6870
p4668
sVspecial_bonus_movement_speed_10
p4669
V5958
p4670
sg1759
g4049
sVitem_recipe_oblivion_staff
p4671
V66
p4672
sVspecial_bonus_movement_speed_15
p4673
V5917
p4674
sVgreevil_fatal_bonds
p4675
V5552
p4676
sVspecial_bonus_unique_nyx
p4677
V6130
p4678
sg2966
g1457
sVcourier_go_to_sideshop
p4679
V6333
p4680
sVgreevil_miniboss_green_overgrowth
p4681
V5571
p4682
sVcentaur_khan_war_stomp
p4683
V5295
p4684
sVnpc_dota_hero_undying
p4685
g438
sg3857
g2408
sVnpc_dota_badguys_healers
p4686
g2336
sVspecial_bonus_spell_lifesteal_20
p4687
V6166
p4688
sVlion_finger_of_death
p4689
V5047
p4690
sVspecial_bonus_unique_medusa_4
p4691
V6803
p4692
sVspecial_bonus_unique_medusa_3
p4693
V6687
p4694
sVspecial_bonus_unique_medusa_2
p4695
V6392
p4696
sVspecial_bonus_unique_jakiro
p4697
V6064
p4698
sg2120
Vnpc_dota_neutral_prowler_shaman
p4699
sVearth_spirit_stone_caller
p4700
V5611
p4701
sg1130
Vnpc_dota_flying_courier
p4702
sVitem_moon_shard
p4703
V247
p4704
sVspecial_bonus_haste
p4705
V6629
p4706
sVnpc_dota_greevil_minion_purple
p4707
g632
sVitem_recipe_black_king_bar
p4708
V115
p4709
sVbounty_hunter_track
p4710
V5288
p4711
sVspecial_bonus_exp_boost_30
p4712
V6317
p4713
sVspecial_bonus_exp_boost_35
p4714
V6372
p4715
sVenchantress_enchant
p4716
V5268
p4717
sg2126
Vnpc_dota_lycan_wolf4
p4718
sg252
g251
sVcourier_transfer_items_to_other_player
p4719
V6328
p4720
sVchen_holy_persuasion
p4721
V5330
p4722
sVlich_frost_nova
p4723
V5134
p4724
sVspecial_bonus_unique_crystal_maiden_1
p4725
V6072
p4726
sVspecial_bonus_unique_crystal_maiden_3
p4727
V6520
p4728
sVspecial_bonus_unique_crystal_maiden_2
p4729
V6234
p4730
sg2897
g872
sVitem_recipe_buckler
p4731
V85
p4732
sVitem_circlet
p4733
V20
p4734
sVitem_wraith_band
p4735
V75
p4736
sg1491
Vnpc_dota_hero_morphling
p4737
sVbeastmaster_hawk_invisibility
p4738
V5170
p4739
sVitem_belt_of_strength
p4740
V17
p4741
sVspecial_bonus_hp_regen_50
p4742
V6302
p4743
sg1579
Vnpc_dota_hero_razor
p4744
sVspecial_bonus_unique_lifestealer
p4745
V6173
p4746
sVtroll_warlord_whirling_axes_ranged
p4747
V5509
p4748
sg1649
g3513
sg1652
g4593
sVspecial_bonus_unique_brewmaster
p4749
V6082
p4750
sVphoenix_fire_spirits
p4751
V5625
p4752
sVleshrac_pulse_nova
p4753
V5244
p4754
sVspecial_bonus_unique_ogre_magi_3
p4755
V7030
p4756
sg1743
g3044
sVblack_dragon_splash_attack
p4757
V5324
p4758
sVinvoker_wex
p4759
V5371
p4760
sVnpc_dota_goodguys_range_rax_bot
p4761
Vranged barracks
p4762
sg3679
g2440
sg2644
g2987
sVspecial_bonus_hp_500
p4763
V6235
p4764
sVspecial_bonus_attack_damage_12
p4765
V6159
p4766
sVspecial_bonus_attack_damage_10
p4767
V6095
p4768
sVspecial_bonus_attack_damage_15
p4769
V5938
p4770
sVnpc_dota_creep_badguys_melee_upgraded_mega
p4771
g2076
sVitem_quelling_blade
p4772
V11
p4773
sVmeepo_poof
p4774
V5431
p4775
sVantimage_mana_break
p4776
V5003
p4777
sVitem_recipe_guardian_greaves
p4778
V230
p4779
sVroshan_slam
p4780
V5215
p4781
sVvenomancer_poison_nova
p4782
V5181
p4783
sVitem_chainmail
p4784
V4
sVchaos_knight_reality_rift
p4785
V5427
p4786
sVspecial_bonus_unique_magnus_5
p4787
V6691
p4788
sVspecial_bonus_unique_magnus_4
p4789
V6690
p4790
sVspecial_bonus_unique_magnus_3
p4791
V6507
p4792
sVspecial_bonus_unique_magnus_2
p4793
V6390
p4794
sg3115
g605
sVdefault_attack
p4795
V5001
p4796
sVnpc_dota_creep_badguys_ranged
p4797
Vranged creep
p4798
sVitem_greater_crit
p4799
V141
p4800
sVchen_test_of_faith_teleport
p4801
V5522
p4802
sVgreevil_miniboss_orange_dragon_slave
p4803
V5572
p4804
sg2383
Vnpc_dota_neutral_granite_golem
p4805
sg3006
g1832
sVspecial_bonus_unique_naga_siren
p4806
V6205
p4807
sVmirana_starfall
p4808
V5051
p4809
sVmeepo_geostrike
p4810
V5432
p4811
sVcrystal_maiden_brilliance_aura
p4812
V5128
p4813
sVrubick_spell_steal
p4814
V5452
p4815
sVitem_nullifier
p4816
V225
p4817
sVnpc_dota_hero_dark_willow
p4818
g2010
sVitem_recipe_butterfly
p4819
V138
p4820
sVitem_bfury
p4821
V145
p4822
sVrattletrap_rocket_flare
p4823
V5239
p4824
sVdazzle_weave
p4825
V5236
p4826
sVlina_light_strike_array
p4827
V5041
p4828
sVspecial_bonus_truestrike
p4829
V6922
p4830
sg190
g189
sVweaver_time_lapse
p4831
V5292
p4832
sVzuus_arc_lightning
p4833
V5110
p4834
sVdark_troll_warlord_raise_dead
p4835
V5306
p4836
sVbloodseeker_thirst
p4837
V5017
p4838
sg438
g4685
sVnyx_assassin_mana_burn
p4839
V5463
p4840
sVspecial_bonus_unique_ember_spirit_1
p4841
V6172
p4842
sVriki_smoke_screen
p4843
V5142
p4844
sVspecial_bonus_unique_ember_spirit_3
p4845
V6647
p4846
sVlife_stealer_assimilate
p4847
V5671
p4848
sVspecial_bonus_unique_ember_spirit_5
p4849
V7051
p4850
sVspecial_bonus_unique_ember_spirit_4
p4851
V7050
p4852
sVitem_ring_of_basilius
p4853
V88
p4854
sVwinter_wyvern_splinter_blast
p4855
V5652
p4856
sVspecial_bonus_magic_resistance_50
p4857
V6641
p4858
sVnpc_dota_hero_templar_assassin
p4859
g1544
sVursa_fury_swipes
p4860
V5359
p4861
sVspecial_bonus_mp_125
p4862
V5904
p4863
sVspecial_bonus_unique_silencer
p4864
V6184
p4865
sg622
g3752
sVspecial_bonus_attack_speed_20
p4866
V5906
p4867
sVfaceless_void_time_dilation
p4868
V5691
p4869
sVspecial_bonus_attack_speed_25
p4870
V6016
p4871
sVmorphling_morph
p4872
V5054
p4873
sVnpc_dota_badguys_tower2_bot
p4874
Vtower
p4875
sVitem_recipe_assault
p4876
V111
p4877
sg630
g3890
sVitem_slippers
p4878
V14
p4879
sg4350
g2261
sVnpc_dota_greevil_miniboss_red
p4880
g1166
sVitem_recipe_iron_talon
p4881
V238
p4882
sg1682
g1682
sVobsidian_destroyer_astral_imprisonment
p4883
V5392
p4884
sg737
g3333
sVbeastmaster_inner_beast
p4885
V5172
p4886
sVspecial_bonus_cast_range_100
p4887
V6003
p4888
sVspecial_bonus_night_vision_500
p4889
V7022
p4890
sg297
g296
sVnyx_assassin_impale
p4891
V5462
p4892
sVgyrocopter_call_down
p4893
V5364
p4894
sVitem_tranquil_boots
p4895
V214
p4896
sVwindrunner_shackleshot
p4897
V5130
p4898
sVnpc_dota_shadow_shaman_ward_3
p4899
Vserpent ward
p4900
sVnpc_dota_shadow_shaman_ward_2
p4901
g2168
sVroshan_bash
p4902
V5214
p4903
sVitem_recipe_diffusal_blade
p4904
V173
p4905
sg420
Vnpc_dota_greevil_miniboss_blue
p4906
sValchemist_acid_spray
p4907
V5365
p4908
sVitem_hood_of_defiance
p4909
V131
p4910
sVbristleback_bristleback
p4911
V5550
p4912
sg1096
g2894
sVlone_druid_spirit_bear
p4913
V5412
p4914
sVblack_dragon_fireball
p4915
V5689
p4916
sVoracle_fates_edict
p4917
V5638
p4918
sVspecial_bonus_cooldown_reduction_25
p4919
V6222
p4920
sVitem_recipe_hood_of_defiance
p4921
V130
p4922
sVdragon_knight_dragon_tail
p4923
V5227
p4924
sVnpc_dota_lycan_wolf3
p4925
g2126
sVnpc_dota_lycan_wolf2
p4926
Vlycan wolf
p4927
sVitem_sobi_mask
p4928
V28
p4929
sg4718
Vlycan wolf
p4930
sVspecial_bonus_spell_amplify_12
p4931
V6326
p4932
sVspecial_bonus_spell_amplify_10
p4933
V5989
p4934
sVspecial_bonus_spell_amplify_15
p4935
V6055
p4936
sg117
g116
sVpolar_furbolg_ursa_warrior_thunder_clap
p4937
V5302
p4938
sVphoenix_supernova
p4939
V5630
p4940
sVtechies_remote_mines
p4941
V5602
p4942
sg1400
g4614
sVsven_warcry
p4943
V5096
p4944
sg2044
g4133
sVnpc_dota_badguys_melee_rax_mid
p4945
Vmelee barracks
p4946
sVspecial_bonus_intelligence_13
p4947
V6042
p4948
sVjakiro_dual_breath
p4949
V5297
p4950
sVspecial_bonus_unique_templar_assassin
p4951
V6071
p4952
sVspirit_breaker_greater_bash
p4953
V5355
p4954
sg311
g310
sVbatrider_sticky_napalm
p4955
V5320
p4956
sVspecial_bonus_exp_boost_40
p4957
V6447
p4958
sVitem_blade_mail
p4959
V127
p4960
sVitem_poor_mans_shield
p4961
V71
p4962
sVcourier_morph
p4963
V5642
p4964
sVnpc_dota_neutral_dark_troll_warlord
p4965
g2130
sVmonkey_king_mischief
p4966
V5719
p4967
sg1736
Vnpc_dota_brewmaster_fire_2
p4968
sVnpc_dota_brewmaster_fire_1
p4969
g1736
sg1777
Vnpc_dota_hero_silencer
p4970
sVspecial_bonus_hp_regen_40
p4971
V6022
p4972
sg1816
Vnpc_dota_hero_storm_spirit
p4973
sVgreevil_hook
p4974
V5563
p4975
sg121
g120
sVitem_recipe_mekansm
p4976
V78
p4977
sVitem_recipe_necronomicon
p4978
V105
p4979
sVnpc_dota_greevil_minion_white
p4980
g1112
sVnpc_dota_badguys_range_rax_bot
p4981
Vranged barracks
p4982
sVviper_viper_strike
p4983
V5221
p4984
sVitem_recipe_aeon_disk
p4985
V255
p4986
sVspecial_bonus_mp_800
p4987
V6816
p4988
sg3557
Vnether ward
p4989
sVfiller_ability
p4990
V6226
p4991
sVinvoker_cold_snap
p4992
V5376
p4993
sVogre_magi_bloodlust
p4994
V5440
p4995
sVitem_shivas_guard
p4996
V119
p4997
sg2124
g4617
sVbane_nightmare
p4998
V5014
p4999
sg4582
g2229
sVcourier_go_to_enemy_secretshop
p5000
V6329
p5001
sVinvoker_exort
p5002
V5372
p5003
sVrubick_null_field
p5004
V5451
p5005
sVspecial_bonus_cast_range_50
p5006
V5946
p5007
sVspecial_bonus_hp_175
p5008
V6034
p5009
sg3416
Vwarlock golem
p5010
sVspecial_bonus_unique_underlord_2
p5011
V6967
p5012
sVspecial_bonus_unique_underlord_3
p5013
V6968
p5014
sVspecial_bonus_unique_underlord_4
p5015
V6969
p5016
sVroshan_halloween_candy
p5017
V9990
p5018
sg2381
g2381
sg4805
g2383
sVspecial_bonus_unique_outworld_devourer_2
p5019
V6711
p5020
sVspecial_bonus_unique_outworld_devourer_3
p5021
V6712
p5022
sVharpy_storm_chain_lightning
p5023
V5319
p5024
sVspecial_bonus_attack_damage_120
p5025
V6112
p5026
sVspecial_bonus_hp_200
p5027
V5959
p5028
sVspecial_bonus_unique_antimage
p5029
V6012
p5030
sVbloodseeker_blood_bath
p5031
V5016
p5032
sVitem_oblivion_staff
p5033
V67
p5034
sVspecial_bonus_unique_tiny
p5035
V6153
p5036
sVspecial_bonus_unique_lycan_1
p5037
V6134
p5038
sVenraged_wildkin_toughness_aura
p5039
V5313
p5040
sVspecial_bonus_mp_regen_8
p5041
V6243
p5042
sVspecial_bonus_spell_block_15
p5043
V7034
p5044
sVspecial_bonus_unique_beastmaster
p5045
V6103
p5046
sg3324
g2612
sVbroodmother_spin_web_destroy
p5047
V5643
p5048
sVlone_druid_spirit_bear_return
p5049
V5418
p5050
sg2822
g1800
sVrattletrap_battery_assault
p5051
V5237
p5052
sg2168
g2750
sVspecial_bonus_mp_regen_14
p5053
V6255
p5054
sVnyx_assassin_vendetta
p5055
V5465
p5056
sVspecial_bonus_mp_regen_10
p5057
V6116
p5058
sg3045
g2170
sg476
g2988
sVspecial_bonus_evasion_50
p5059
V6613
p5060
sVsven_storm_bolt
p5061
V5094
p5062
sVbroodmother_insatiable_hunger
p5063
V5282
p5064
sVspecial_bonus_attack_damage_251
p5065
V7039
p5066
sVspecial_bonus_attack_damage_250
p5067
V6556
p5068
sg2520
Vnpc_dota_hero_jakiro
p5069
sVnpc_dota_brewmaster_earth_1
p5070
g849
sg4340
g2134
sVitem_void_stone
p5071
V57
p5072
sg3390
g546
sVitem_quarterstaff
p5073
V10
p5074
sVspecial_bonus_cleave_100
p5075
V6827
p5076
sg4737
g1491
sVantimage_blink
p5077
V5004
p5078
sg636
g4317
sVgreevil_miniboss_black_brain_sap
p5079
V5537
p5080
sVspecial_bonus_unique_enchantress_4
p5081
V6515
p5082
sVspecial_bonus_unique_invoker_1
p5083
V6097
p5084
sVspecial_bonus_unique_invoker_3
p5085
V6099
p5086
sVspecial_bonus_unique_invoker_2
p5087
V6098
p5088
sVspecial_bonus_unique_invoker_5
p5089
V6657
p5090
sVspecial_bonus_unique_invoker_4
p5091
V6656
p5092
sVspecial_bonus_unique_invoker_7
p5093
V7016
p5094
sVspecial_bonus_unique_invoker_6
p5095
V6811
p5096
sVspecial_bonus_unique_invoker_8
p5097
V7017
p5098
sVspecial_bonus_unique_clockwerk_4
p5099
V7028
p5100
sVwisp_relocate
p5101
V5488
p5102
sVspecial_bonus_unique_clockwerk_3
p5103
V6512
p5104
sVinvoker_emp
p5105
V5383
p5106
sVearthshaker_fissure
p5107
V5023
p5108
sVspecial_bonus_magic_resistance_25
p5109
V6091
p5110
sVnpc_dota_neutral_black_drake
p5111
g1882
sVspecial_bonus_unique_techies_4
p5112
V6998
p5113
sVspecial_bonus_unique_techies_2
p5114
V6552
p5115
sVspecial_bonus_unique_techies_3
p5116
V6997
p5117
sVspecial_bonus_mp_150
p5118
V5905
p5119
sg4744
g1579
sg815
g3334
sVwitch_doctor_paralyzing_cask
p5120
V5138
p5121
sVgreevil_miniboss_purple_plague_ward
p5122
V5575
p5123
sVnpc_dota_hero_lone_druid
p5124
g1903
sVnpc_dota_lone_druid_bear4
p5125
g976
sVnpc_dota_lone_druid_bear2
p5126
Vspirit bear
p5127
sVnpc_dota_lone_druid_bear3
p5128
Vspirit bear
p5129
sg4485
Vspirit bear
p5130
sVability_deward
p5131
V5669
p5132
sVskywrath_mage_ancient_seal
p5133
V5583
p5134
sVitem_hand_of_midas
p5135
V65
p5136
sVspecial_bonus_unique_mirana_4
p5137
V6692
p5138
sVspecial_bonus_unique_mirana_2
p5139
V6242
p5140
sVspecial_bonus_unique_mirana_3
p5141
V6397
p5142
sVspecial_bonus_unique_mirana_1
p5143
V6013
p5144
sg1143
g3574
sVvengefulspirit_command_aura
p5145
V5123
p5146
sVnecrolyte_reapers_scythe
p5147
V5161
p5148
sg1173
g3473
sVwinter_wyvern_arctic_burn
p5149
V5651
p5150
sVstorm_spirit_static_remnant
p5151
V5098
p5152
sg3692
g942
sVitem_recipe_lesser_crit
p5153
V148
p5154
sg2767
g2279
sVitem_iron_talon
p5155
V239
p5156
sVitem_recipe_soul_booster
p5157
V128
p5158
sg4257
g1230
sVcourier_take_stash_and_transfer_items
p5159
V5676
p5160
sVgreevil_miniboss_purple_venomous_gale
p5161
V5574
p5162
sVitem_trident
p5163
V275
p5164
sVmorphling_hybrid
p5165
V5674
p5166
sVlife_stealer_open_wounds
p5167
V5251
p5168
sg1560
g1560
sVbrewmaster_drunken_brawler
p5169
V5402
p5170
sVspecial_bonus_unique_gyrocopter_4
p5171
V6653
p5172
sVspecial_bonus_unique_gyrocopter_5
p5173
V6654
p5174
sVspecial_bonus_unique_gyrocopter_2
p5175
V6312
p5176
sVspecial_bonus_unique_gyrocopter_3
p5177
V6652
p5178
sVitem_mjollnir
p5179
V158
p5180
sVspecial_bonus_unique_gyrocopter_1
p5181
V6216
p5182
sg1601
g4263
sVitem_sange
p5183
V162
p5184
sVspecial_bonus_cooldown_reduction_8
p5185
V5950
p5186
sVspecial_bonus_unique_winter_wyvern_1
p5187
V6106
p5188
sVspecial_bonus_unique_furion_4
p5189
V6702
p5190
sVspecial_bonus_unique_furion_3
p5191
V6539
p5192
sVspecial_bonus_unique_furion_2
p5193
V6500
p5194
sg1684
g3962
sVspecial_bonus_agility_100
p5195
V6705
p5196
sVitem_tango
p5197
V44
p5198
sVitem_recipe_dagon_2
p5199
V197
p5200
sVspecial_bonus_unique_winter_wyvern_4
p5201
V6994
p5202
sVogre_magi_unrefined_fireblast
p5203
V5466
p5204
sVitem_recipe_dagon_4
p5205
V199
p5206
sVitem_recipe_dagon_5
p5207
V200
p5208
sg1761
Vnpc_dota_hero_gyrocopter
p5209
sg5069
g2520
sg1866
Vnpc_dota_hero_lina
p5210
sVinvoker_sun_strike
p5211
V5386
p5212
sg707
Vnpc_dota_phantomassassin_gravestone
p5213
sVgranite_golem_bash
p5214
V5680
p5215
sVelder_titan_natural_order
p5216
V5593
p5217
sVvisage_summon_familiars
p5218
V5483
p5219
sVrattletrap_power_cogs
p5220
V5238
p5221
sVspecial_bonus_spell_immunity
p5222
V6646
p5223
sVshredder_chakram_2
p5224
V5645
p5225
sVitem_gem
p5226
V30
p5227
sg632
g4707
sVitem_courier
p5228
V45
p5229
sVitem_dust
p5230
V40
p5231
sVspectre_spectral_dagger
p5232
V5334
p5233
sVphantom_assassin_coup_de_grace
p5234
V5193
p5235
sVitem_recipe_kaya
p5236
V258
p5237
sVitem_river_painter5
p5238
V1025
p5239
sVspecial_bonus_unique_naga_siren_4
p5240
V7029
p5241
sVitem_river_painter7
p5242
V1027
p5243
sVitem_river_painter6
p5244
V1026
p5245
sVlion_impale
p5246
V5044
p5247
sVspecial_bonus_unique_naga_siren_3
p5248
V6701
p5249
sVspecial_bonus_unique_naga_siren_2
p5250
V6398
p5251
sVitem_dragon_lance
p5252
V236
p5253
sg2729
g1740
sVitem_soul_booster
p5254
V129
p5255
sVwindrunner_windrun
p5256
V5132
p5257
sVtusk_launch_snowball
p5258
V5641
p5259
sVitem_shadow_amulet
p5260
V215
p5261
sVitem_sheepstick
p5262
V96
p5263
sVspecial_bonus_attack_range_250
p5264
V6040
p5265
sVnpc_dota_creep_badguys_ranged_upgraded
p5266
Vsuper ranged creep
p5267
sg937
g937
sVspecial_bonus_unique_luna_2
p5268
V6127
p5269
sVbig_thunder_lizard_slam
p5270
V5332
p5271
sVspecial_bonus_magic_resistance_8
p5272
V5936
p5273
sVspecial_bonus_magic_resistance_6
p5274
V5994
p5275
sVspecial_bonus_unique_sand_king_4
p5276
V6872
p5277
sVspecial_bonus_magic_resistance_5
p5278
V5935
p5279
sVspecial_bonus_attack_damage_30
p5280
V5939
p5281
sVspecial_bonus_unique_sand_king_3
p5282
V6530
p5283
sVspecial_bonus_unique_sand_king_2
p5284
V6409
p5285
sVpangolier_gyroshell
p5286
V6343
p5287
sVspecial_bonus_attack_range_125
p5288
V5944
p5289
sg362
g3894
sVspecial_bonus_unique_visage_3
p5290
V6522
p5291
sVspecial_bonus_unique_visage_2
p5292
V6320
p5293
sVspecial_bonus_unique_visage_1
p5294
V6031
p5295
sVrubick_fade_bolt
p5296
V5450
p5297
sVspecial_bonus_unique_visage_6
p5298
V6985
p5299
sVspecial_bonus_unique_visage_5
p5300
V6984
p5301
sVspecial_bonus_unique_visage_4
p5302
V6983
p5303
sg3025
g2028
sVrattletrap_hookshot
p5304
V5240
p5305
sg3310
g2008
sVbeastmaster_greater_boar_poison
p5306
V5352
p5307
sVoracle_fortunes_end
p5308
V5637
p5309
sg101
g100
sg3221
g626
sVspecial_bonus_attack_speed_200
p5310
V6622
p5311
sVitem_recipe_phase_boots
p5312
V49
p5313
sg1530
g3954
sVtroll_warlord_fervor
p5314
V5511
p5315
sVspecial_bonus_mana_break_20
p5316
V6987
p5317
sVzuus_cloud
p5318
V6325
p5319
sVspecial_bonus_mana_break_25
p5320
V6830
p5321
sVspecial_bonus_corruption_5
p5322
V6846
p5323
sg4258
g1279
sVitem_recipe_spirit_vessel
p5324
V266
p5325
sVspecial_bonus_unique_zeus
p5326
V6157
p5327
sVitem_cheese
p5328
V33
p5329
sVnpc_dota_necronomicon_archer_3
p5330
Vnecronomicon archer
p5331
sVnpc_dota_unit_tombstone4
p5332
Vtombstone
p5333
sVnpc_dota_unit_tombstone1
p5334
Vtombstone
p5335
sg3078
Vtombstone
p5336
sVnpc_dota_unit_tombstone2
p5337
g2590
sg634
g4033
sVtroll_warlord_whirling_axes_melee
p5338
V5510
p5339
sVphantom_assassin_phantom_strike
p5340
V5191
p5341
sVluna_lucent_beam
p5342
V5222
p5343
sVitem_octarine_core
p5344
V235
p5345
sVfurion_teleportation
p5346
V5246
p5347
sVitem_recipe_aether_lens
p5348
V233
p5349
sg1112
g4980
sVitem_recipe_sange
p5350
V161
p5351
sVnecronomicon_archer_purge
p5352
V8203
p5353
sVspecial_bonus_gold_income_15
p5354
V6007
p5355
sVspecial_bonus_gold_income_10
p5356
V5956
p5357
sVspecial_bonus_unique_ogre_magi_2
p5358
V6707
p5359
sVdrow_ranger_wave_of_silence
p5360
V5632
p5361
sg628
g4320
sVblack_dragon_dragonhide_aura
p5362
V5681
p5363
sVbrewmaster_earth_hurl_boulder
p5364
V5404
p5365
sVleshrac_split_earth
p5366
V5241
p5367
sVitem_point_booster
p5368
V60
p5369
sVitem_ward_observer
p5370
V42
p5371
sVspecial_bonus_intelligence_25
p5372
V6050
p5373
sVnecrolyte_sadist
p5374
V5160
p5375
sVbounty_hunter_wind_walk
p5376
V5287
p5377
sg1060
Vnpc_dota_hero_ursa
p5378
sVitem_recipe_bfury
p5379
V144
p5380
sVitem_pipe
p5381
V90
p5382
sVspecial_bonus_magic_resistance_35
p5383
V6386
p5384
sVspecial_bonus_magic_resistance_30
p5385
V6221
p5386
sVspecial_bonus_unique_antimage_2
p5387
V6353
p5388
sVspecial_bonus_unique_antimage_3
p5389
V6606
p5390
sVspecial_bonus_unique_antimage_4
p5391
V6607
p5392
sVspecial_bonus_unique_antimage_5
p5393
V6800
p5394
sg4359
g1629
sVitem_recipe_tranquil_boots
p5395
V213
p5396
sVoracle_false_promise
p5397
V5640
p5398
sVwindrunner_powershot
p5399
V5131
p5400
sVspecial_bonus_unique_abaddon_2
p5401
V6601
p5402
sVspecial_bonus_unique_abaddon_3
p5403
V6602
p5404
sVroshan_halloween_summon
p5405
V10001
p5406
sVnpc_dota_pugna_nether_ward_3
p5407
g2150
sVshredder_chakram
p5408
V5527
p5409
sVnpc_dota_pugna_nether_ward_1
p5410
Vnether ward
p5411
sVnpc_dota_pugna_nether_ward_4
p5412
Vnether ward
p5413
sVspecial_bonus_cast_range_125
p5414
V6197
p5415
sVsatyr_soulstealer_mana_burn
p5416
V5315
p5417
sVspecial_bonus_attack_damage_400
p5418
V6553
p5419
sVitem_robe
p5420
V19
p5421
sVspecial_bonus_unique_lycan_4
p5422
V6684
p5423
sVspecial_bonus_unique_lycan_5
p5424
V6685
p5425
sVhuskar_berserkers_blood
p5426
V5273
p5427
sVspecial_bonus_unique_lycan_2
p5428
V6140
p5429
sVspecial_bonus_unique_lycan_3
p5430
V6519
p5431
sVshoot_firework
p5432
V5650
p5433
sg2076
g3604
sg1798
g3239
sVspecial_bonus_unique_techies
p5434
V6282
p5435
sg5213
g707
sVdark_troll_warlord_ensnare
p5436
V5305
p5437
sg4161
g2311
sVelder_titan_earth_splitter
p5438
V5594
p5439
sg226
g225
sVmagnataur_shockwave
p5440
V5518
p5441
sVspecial_bonus_unique_ember_spirit_2
p5442
V6176
p5443
sVkunkka_torrent
p5444
V5031
p5445
sVitem_infused_raindrop
p5446
V265
p5447
sg1848
g3895
sVspecial_bonus_unique_abaddon
p5448
V6100
p5449
sVnight_stalker_void
p5450
V5275
p5451
sVitem_recipe_soul_ring
p5452
V177
p5453
sg4699
g2120
sVluna_eclipse
p5454
V5225
p5455
sg3856
g2405
sVtidehunter_gush
p5456
V5118
p5457
sVbristleback_warpath
p5458
V5551
p5459
sVspecial_bonus_spell_lifesteal_70
p5460
V6061
p5461
sVbackdoor_protection_in_base
p5462
V5351
p5463
sg4492
g1212
sg2010
g4818
sVitem_recipe_octarine_core
p5464
V228
p5465
sVspecial_bonus_reincarnation_200
p5466
V6677
p5467
sVnaga_siren_ensnare
p5468
V5468
p5469
sg1350
g2972
sVspecial_bonus_unique_spectre
p5470
V6148
p5471
sg2795
g1864
sVspecial_bonus_cast_range_60
p5472
V6032
p5473
sVspecial_bonus_unique_ursa_5
p5474
V6976
p5475
sVspecial_bonus_unique_ursa_4
p5476
V6975
p5477
sVspecial_bonus_unique_ursa_3
p5478
V6974
p5479
sVspecial_bonus_unique_ursa_2
p5480
V6973
p5481
sVspecial_bonus_unique_juggernaut
p5482
V6105
p5483
sVitem_black_king_bar
p5484
V116
p5485
sg4643
g454
sVthrow_snowball
p5486
V5577
p5487
sVroshan_halloween_apocalypse
p5488
V9998
p5489
sg2456
g4384
sVdragon_knight_frost_breath
p5490
V5232
p5491
sVqueenofpain_shadow_strike
p5492
V5173
p5493
sVphantom_lancer_spirit_lance
p5494
V5065
p5495
sg2424
Vnpc_dota_hero_chaos_knight
p5496
sVnpc_dota_necronomicon_warrior_1
p5497
g1313
sVnpc_dota_necronomicon_warrior_2
p5498
Vnecronomicon warrior
p5499
sg2673
Vnecronomicon warrior
p5500
sVnpc_dota_goodguys_siege
p5501
g476
sVitem_recipe_radiance
p5502
V136
p5503
sg2500
g3293
sVwitch_doctor_voodoo_restoration
p5504
V5139
p5505
sg2536
g3564
sVspecial_bonus_lifesteal_15
p5506
V6289
p5507
sVitem_ultimate_scepter
p5508
V108
p5509
sg3034
g2610
sVspecial_bonus_unique_terrorblade
p5510
V6107
p5511
sg4387
Vbuilding
p5512
sVitem_ring_of_protection
p5513
V12
p5514
sVspecial_bonus_unique_enchantress_1
p5515
V6331
p5516
sVspecial_bonus_unique_enchantress_3
p5517
V6379
p5518
sVspecial_bonus_unique_enchantress_2
p5519
V6086
p5520
sVspecial_bonus_unique_enchantress_5
p5521
V6648
p5522
sVarc_warden_flux
p5523
V5677
p5524
sVspecial_bonus_unique_centaur_1
p5525
V6322
p5526
sVspecial_bonus_unique_centaur_3
p5527
V6616
p5528
sVspecial_bonus_unique_centaur_2
p5529
V5988
p5530
sVspecial_bonus_unique_centaur_4
p5531
V6617
p5532
sVpuck_ethereal_jaunt
p5533
V5070
p5534
sg393
Vnpc_dota_creep_badguys_ranged_upgraded_mega
p5535
sVdoom_bringer_empty1
p5536
V5343
p5537
sVdoom_bringer_empty2
p5538
V5344
p5539
sVspecial_bonus_unique_chen_3
p5540
V6363
p5541
sVspecial_bonus_hp_350
p5542
V6195
p5543
sg4906
g420
sVsilencer_glaives_of_wisdom
p5544
V5378
p5545
sVspecial_bonus_unique_tusk_5
p5546
V6963
p5547
sVspecial_bonus_unique_tusk_4
p5548
V6962
p5549
sVspecial_bonus_unique_sniper_1
p5550
V6305
p5551
sVspecial_bonus_unique_tusk_3
p5552
V6961
p5553
sVspecial_bonus_unique_tusk_2
p5554
V6411
p5555
sVgreevil_miniboss_blue_ice_vortex
p5556
V5539
p5557
sVspecial_bonus_attack_damage_20
p5558
V5960
p5559
sVancient_golem_rockslide
p5560
V5686
p5561
sVspecial_bonus_attack_damage_25
p5562
V6009
p5563
sVrazor_static_link
p5564
V5083
p5565
sVtreant_natures_guise
p5566
V5434
p5567
sVnpc_dota_tusk_frozen_sigil3
p5568
Vfrozen sigil
p5569
sg562
g4128
sVitem_recipe_travel_boots
p5570
V47
p5571
sVitem_necronomicon
p5572
V106
p5573
sVspecial_bonus_hp_225
p5574
V6405
p5575
sVspecial_bonus_unique_bane_4
p5576
V6826
p5577
sVspecial_bonus_intelligence_15
p5578
V5991
p5579
sVspecial_bonus_unique_bane_2
p5580
V6069
p5581
sVspecial_bonus_unique_bane_3
p5582
V6609
p5583
sVspecial_bonus_unique_bane_1
p5584
V6068
p5585
sVitem_recipe_arcane_boots
p5586
V179
p5587
sg653
g316
sVspecial_bonus_hp_regen_80
p5588
V6660
p5589
sg711
g711
sVspecial_bonus_mana_break_35
p5590
V6825
p5591
sVnpc_dota_goodguys_tower3_mid
p5592
Vtower
p5593
sVmorphling_waveform
p5594
V5052
p5595
sVspecial_bonus_evasion_75
p5596
V6882
p5597
sg4569
g2083
sVspecial_bonus_unique_pugna_2
p5598
V6238
p5599
sVspecial_bonus_unique_huskar
p5600
V6204
p5601
sVspecial_bonus_unique_pugna_1
p5602
V6220
p5603
sVspecial_bonus_unique_pugna_6
p5604
V6859
p5605
sVspecial_bonus_unique_pugna_4
p5606
V6448
p5607
sVspecial_bonus_unique_pugna_5
p5608
V6541
p5609
sVitem_recipe_skadi
p5610
V159
p5611
sVnecronomicon_warrior_last_will
p5612
V5200
p5613
sVspecial_bonus_unique_dark_willow_2
p5614
V6465
p5615
sVspecial_bonus_unique_magnus
p5616
V6199
p5617
sVspecial_bonus_unique_dark_willow_1
p5618
V6464
p5619
sVitem_urn_of_shadows
p5620
V92
p5621
sVpudge_dismember
p5622
V5077
p5623
sVwinter_wyvern_cold_embrace
p5624
V5653
p5625
sg981
g4599
sVnpc_dota_hero_centaur
p5626
g753
sVinvoker_invoke
p5627
V5375
p5628
sVspecial_bonus_unique_nyx_2
p5629
V6399
p5630
sVspecial_bonus_unique_nyx_3
p5631
V6814
p5632
sVbrewmaster_storm_cyclone
p5633
V5409
p5634
sVspecial_bonus_unique_earthshaker_3
p5635
V6511
p5636
sVspecial_bonus_unique_bounty_hunter_3
p5637
V7040
p5638
sVspecial_bonus_unique_bounty_hunter_2
p5639
V6358
p5640
sVspecial_bonus_unique_earthshaker_2
p5641
V6425
p5642
sVnpc_dota_badguys_tower3_top
p5643
Vtower
p5644
sVbristleback_quill_spray
p5645
V5549
p5646
sVspecial_bonus_attack_range_75
p5647
V6027
p5648
sVspecial_bonus_unique_shadow_shaman_4
p5649
V6521
p5650
sVspecial_bonus_unique_shadow_shaman_5
p5651
V6877
p5652
sVspecial_bonus_unique_shadow_shaman_1
p5653
V6052
p5654
sVspecial_bonus_unique_shadow_shaman_2
p5655
V6295
p5656
sVspecial_bonus_unique_shadow_shaman_3
p5657
V6502
p5658
sVspecial_bonus_unique_phoenix_5
p5659
V6915
p5660
sVogre_magi_fireblast
p5661
V5438
p5662
sVspecial_bonus_unique_chaos_knight_2
p5663
V6618
p5664
sVspecial_bonus_unique_chaos_knight_3
p5665
V6619
p5666
sVitem_combo_breaker
p5667
V276
p5668
sVitem_recipe_medallion_of_courage
p5669
V186
p5670
sVvenomancer_poison_sting
p5671
V5179
p5672
sVspecial_bonus_unique_venomancer_4
p5673
V6980
p5674
sVspecial_bonus_unique_venomancer_5
p5675
V6981
p5676
sVspecial_bonus_unique_venomancer_6
p5677
V6999
p5678
sVitem_ultimate_orb
p5679
V24
p5680
sVspecial_bonus_unique_venomancer_2
p5681
V6532
p5682
sVspecial_bonus_unique_venomancer_3
p5683
V6979
p5684
sVabyssal_underlord_firestorm
p5685
V5613
p5686
sVspecial_bonus_mp_175
p5687
V6067
p5688
sg4125
Vundying zombie
p5689
sVmedusa_mystic_snake
p5690
V5505
p5691
sVweaver_shukuchi
p5692
V5290
p5693
sg1568
Vnpc_dota_creep_goodguys_ranged_diretide
p5694
sVitem_travel_boots
p5695
V48
p5696
sVspecial_bonus_unique_pudge_2
p5697
V6245
p5698
sVspecial_bonus_unique_pudge_3
p5699
V6506
p5700
sVspecial_bonus_unique_pudge_1
p5701
V6023
p5702
sVnpc_dota_hero_meepo
p5703
g1114
sVspecial_bonus_unique_tidehunter
p5704
V6151
p5705
sVitem_recipe_bloodthorn
p5706
V245
p5707
sg3020
g811
sVspecial_bonus_cast_range_150
p5708
V6056
p5709
sVviper_poison_attack
p5710
V5218
p5711
sVitem_stout_shield
p5712
V182
p5713
sg2764
g1575
sVlion_mana_drain
p5714
V5046
p5715
sVitem_recipe_armlet
p5716
V150
p5717
sVspecial_bonus_hp_regen_30
p5718
V6351
p5719
sg2946
g1263
sVspecial_bonus_intelligence_6
p5720
V5924
p5721
sVspecial_bonus_intelligence_7
p5722
V6117
p5723
sVbloodseeker_rupture
p5724
V5018
p5725
sVitem_lotus_orb
p5726
V226
p5727
sVspecial_bonus_cooldown_reduction_40
p5728
V6445
p5729
sVmorphling_adaptive_strike_agi
p5730
V5053
p5731
sVshadow_demon_disruption
p5732
V5421
p5733
sg1903
g5124
sg1922
g4386
sg1938
Vnpc_dota_hero_skeleton_king
p5734
sg4973
g1816
sVlycan_feral_impulse
p5735
V5397
p5736
sVitem_recipe_hurricane_pike
p5737
V262
p5738
sg1145
g2994
sVspecial_bonus_unique_enigma
p5739
V6065
p5740
sVspecial_bonus_unique_tidehunter_2
p5741
V6945
p5742
sVspecial_bonus_unique_tidehunter_3
p5743
V6946
p5744
sVspecial_bonus_unique_tidehunter_4
p5745
V6947
p5746
sVfaceless_void_time_walk
p5747
V5182
p5748
sg1663
g4390
sVspecial_bonus_unique_arc_warden_2
p5749
V6354
p5750
sg2187
g3384
sVphantom_lancer_phantom_edge
p5751
V5068
p5752
sVspecial_bonus_unique_timbersaw_3
p5753
V6949
p5754
sVspecial_bonus_unique_timbersaw_2
p5755
V6948
p5756
sVchen_hand_of_god
p5757
V5331
p5758
sVchen_penitence
p5759
V5328
p5760
sVspecial_bonus_spell_lifesteal_60
p5761
V6575
p5762
sg3387
g478
sVbloodseeker_bloodrage
p5763
V5015
p5764
sVshadow_shaman_shackles
p5765
V5080
p5766
sVspecial_bonus_unique_skywrath_5
p5767
V6921
p5768
sVspecial_bonus_unique_skywrath_4
p5769
V6886
p5770
sVspecial_bonus_unique_skywrath_3
p5771
V6885
p5772
sVspecial_bonus_unique_skywrath_2
p5773
V6884
p5774
sg2996
g1703
sVrazor_plasma_field
p5775
V5082
p5776
sg2458
g2678
sVitem_recipe_mask_of_madness
p5777
V171
p5778
sg2628
Vnpc_dota_hero_oracle
p5779
sVgreevil_phantom_strike
p5780
V5554
p5781
sg939
g2866
sVitem_recipe_necronomicon_2
p5782
V191
p5783
sVitem_recipe_necronomicon_3
p5784
V192
p5785
sVitem_recipe_ward_dispenser
p5786
V217
p5787
sVlegion_commander_moment_of_courage
p5788
V5597
p5789
sg360
g62
sVgreevil_natures_attendants
p5790
V5559
p5791
sVlone_druid_spirit_bear_demolish
p5792
V5420
p5793
sVspecial_bonus_hp_regen_14
p5794
V5913
p5795
sVitem_ancient_janggo
p5796
V185
p5797
sVtechies_land_mines
p5798
V5599
p5799
sg5734
g1938
sVmonkey_king_wukongs_command
p5800
V5725
p5801
sVspecial_bonus_day_vision_400
p5802
V6092
p5803
sVitem_staff_of_wizardry
p5804
V23
p5805
sVspecial_bonus_unique_dragon_knight_2
p5806
V6635
p5807
sVspecial_bonus_20_crit_15
p5808
V7045
p5809
sg470
g470
sVitem_energy_booster
p5810
V59
p5811
sg5378
g1060
sg4152
g2574
sg157
g156
sg1882
g5111
sg2356
g4410
sVspecial_bonus_unique_witch_doctor_5
p5812
V6996
p5813
sVspecial_bonus_unique_witch_doctor_4
p5814
V6995
p5815
sVspecial_bonus_unique_witch_doctor_3
p5816
V6524
p5817
sVspecial_bonus_unique_witch_doctor_2
p5818
V6298
p5819
sVspecial_bonus_unique_witch_doctor_1
p5820
V5998
p5821
sg586
g586
sVearthshaker_aftershock
p5822
V5025
p5823
sVspecial_bonus_unique_death_prophet
p5824
V6191
p5825
sVshredder_return_chakram
p5826
V5528
p5827
sVitem_aegis
p5828
V117
p5829
sVspecial_bonus_hp_325
p5830
V6423
p5831
sVnpc_dota_goodguys_tower1_mid
p5832
Vtower
p5833
sVenigma_demonic_conversion
p5834
V5147
p5835
sVnpc_dota_badguys_siege_upgraded_mega
p5836
g360
sg3591
g2498
sg1572
g3081
sVsniper_assassinate
p5837
V5157
p5838
sVroshan_halloween_shell
p5839
V9997
p5840
sVitem_recipe_echo_sabre
p5841
V251
p5842
sVspecial_bonus_attack_range_100
p5843
V5943
p5844
sVitem_recipe_orchid
p5845
V97
p5846
sVgreevil_shadow_strike
p5847
V5534
p5848
sVspecial_bonus_agility_16
p5849
V6169
p5850
sVspecial_bonus_agility_15
p5851
V5929
p5852
sVspecial_bonus_agility_14
p5853
V6170
p5854
sVspecial_bonus_agility_13
p5855
V6011
p5856
sVtinker_heat_seeking_missile
p5857
V5151
p5858
sVskeleton_king_reincarnation
p5859
V5089
p5860
sVspecial_bonus_agility_10
p5861
V6029
p5862
sVspecial_bonus_hp_250
p5863
V5903
p5864
sVspecial_bonus_unique_leshrac_1
p5865
V6063
p5866
sVspecial_bonus_unique_leshrac_3
p5867
V6672
p5868
sVspecial_bonus_unique_leshrac_2
p5869
V6240
p5870
sVabaddon_frostmourne
p5871
V5587
p5872
sVspecial_bonus_strength_8
p5873
V5982
p5874
sVspecial_bonus_strength_9
p5875
V6250
p5876
sVspecial_bonus_strength_6
p5877
V6048
p5878
sVspecial_bonus_strength_7
p5879
V6115
p5880
sVspecial_bonus_strength_4
p5881
V6005
p5882
sVspecial_bonus_strength_5
p5883
V5927
p5884
sVspecial_bonus_strength_3
p5885
V6002
p5886
sg3801
g1660
sVshadow_shaman_voodoo
p5887
V5079
p5888
sVgreevil_miniboss_white_degen_aura
p5889
V5545
p5890
sVenchantress_untouchable
p5891
V5267
p5892
sg1114
g5703
sVspecial_bonus_unique_drow_ranger_3
p5893
V6280
p5894
sVspecial_bonus_unique_drow_ranger_2
p5895
V6209
p5896
sVspecial_bonus_unique_drow_ranger_1
p5897
V6202
p5898
sVspecial_bonus_spell_block_20
p5899
V7035
p5900
sVspecial_bonus_unique_drow_ranger_4
p5901
V6634
p5902
sVitem_lifesteal
p5903
V26
p5904
sg3566
g2329
sg230
g229
sVspecial_bonus_gold_income_30
p5905
V6026
p5906
sVspecial_bonus_mp_300
p5907
V5990
p5908
sVsatyr_hellcaller_unholy_aura
p5909
V5317
p5910
sVdragon_knight_dragon_blood
p5911
V5228
p5912
sVdark_willow_terrorize
p5913
V8340
p5914
sVnpc_dota_lycan_wolf1
p5915
Vlycan wolf
p5916
sg2973
g2538
sVnpc_dota_hero_luna
p5917
g1512
sg27
g26
sVspecial_bonus_unique_sniper_4
p5918
V6897
p5919
sVitem_armlet
p5920
V151
p5921
sg1544
g4859
sVspecial_bonus_unique_morphling_3
p5922
V6698
p5923
sVspecial_bonus_unique_morphling_2
p5924
V6225
p5925
sVspecial_bonus_unique_morphling_1
p5926
V6062
p5927
sVspecial_bonus_unique_morphling_7
p5928
V7056
p5929
sVspecial_bonus_unique_morphling_6
p5930
V7052
p5931
sVspecial_bonus_unique_morphling_5
p5932
V6927
p5933
sVspecial_bonus_unique_morphling_4
p5934
V6840
p5935
sVnpc_dota_visage_familiar1
p5936
Vfamiliar
p5937
sVspecial_bonus_unique_morphling_8
p5938
V7060
p5939
sVspecial_bonus_lifesteal_100
p5940
V6721
p5941
sVspecial_bonus_unique_sniper_3
p5942
V6896
p5943
sVspecial_bonus_magic_resistance_15
p5944
V6138
p5945
sVspecial_bonus_unique_sniper_2
p5946
V6198
p5947
sVspecial_bonus_magic_resistance_10
p5948
V5937
p5949
sVspecial_bonus_magic_resistance_12
p5950
V6299
p5951
sg3468
g1623
sVphantom_assassin_stifling_dagger
p5952
V5190
p5953
sg382
Vnpc_dota_greevil_miniboss_white
p5954
sVspecial_bonus_unique_vengeful_spirit_6
p5955
V7018
p5956
sVspecial_bonus_unique_vengeful_spirit_5
p5957
V6978
p5958
sVspecial_bonus_unique_vengeful_spirit_4
p5959
V6977
p5960
sVspecial_bonus_unique_vengeful_spirit_3
p5961
V6057
p5962
sVspecial_bonus_unique_vengeful_spirit_2
p5963
V6237
p5964
sVspecial_bonus_unique_vengeful_spirit_1
p5965
V6310
p5966
sg174
g173
sg1885
Vnpc_dota_hero_monkey_king
p5967
sVitem_ring_of_regen
p5968
V27
p5969
sVgyrocopter_rocket_barrage
p5970
V5361
p5971
sVitem_abyssal_blade
p5972
V208
p5973
sg5954
g382
sVspecial_bonus_cleave_60
p5974
V6631
p5975
sVitem_butterfly
p5976
V139
p5977
sVinvoker_attribute_bonus
p5978
V5690
p5979
sVkeeper_of_the_light_spirit_form
p5980
V5474
p5981
sVitem_dagon_4
p5982
V203
p5983
sVitem_dagon_5
p5984
V204
p5985
sVitem_dagon_2
p5986
V201
p5987
sVitem_dagon_3
p5988
V202
p5989
sVspecial_bonus_unique_lich_2
p5990
V6292
p5991
sVspecial_bonus_unique_lich_3
p5992
V6387
p5993
sVspecial_bonus_unique_lich_1
p5994
V6039
p5995
sg2359
g4397
sVinvoker_forge_spirit
p5996
V5387
p5997
sVtemplar_assassin_meld
p5998
V5195
p5999
sVspecial_bonus_unique_slark
p6000
V6147
p6001
sVnpc_dota_badguys_tower1_mid
p6002
Vtower
p6003
sVspecial_bonus_unique_crystal_maiden_4
p6004
V7042
p6005
sg79
g78
sg5209
g1761
sVomniknight_guardian_angel
p6006
V5266
p6007
sVearth_spirit_boulder_smash
p6008
V5608
p6009
sg5210
g1866
sVenigma_midnight_pulse
p6010
V5148
p6011
sVitem_bracer
p6012
V73
p6013
sg283
g282
sVspecial_bonus_unique_medusa
p6014
V6182
p6015
sg2504
g4096
sVitem_ring_of_aquila
p6016
V212
p6017
sVspecial_bonus_unique_queen_of_pain_2
p6018
V6856
p6019
sVtroll_warlord_battle_trance
p6020
V5512
p6021
sVitem_recipe_maelstrom
p6022
V165
p6023
sg2295
g4385
sg4474
g905
sVsatyr_hellcaller_shockwave
p6024
V5316
p6025
sVember_spirit_flame_guard
p6026
V5605
p6027
sVspecial_bonus_unique_axe
p6028
V6102
p6029
sVitem_recipe_moon_shard
p6030
V246
p6031
sVelder_titan_echo_stomp_spirit
p6032
V5590
p6033
sVpuck_illusory_orb
p6034
V5069
p6035
sVgreevil_miniboss_red_earthshock
p6036
V5540
p6037
sVitem_recipe_yasha
p6038
V169
p6039
sVitem_recipe_urn_of_shadows
p6040
V91
p6041
sVlich_chain_frost
p6042
V5137
p6043
sVnaga_siren_song_of_the_siren
p6044
V5470
p6045
sg2784
g2389
sg3228
g1597
sVspecial_bonus_unique_storm_spirit
p6046
V6167
p6047
sVslardar_slithereen_crush
p6048
V5115
p6049
sVinvoker_quas
p6050
V5370
p6051
sVgreevil_laguna_blade
p6052
V5535
p6053
sVantimage_spell_shield
p6054
V5005
p6055
sVspecial_bonus_attack_range_200
p6056
V5945
p6057
sVnpc_dota_goodguys_tower2_bot
p6058
Vtower
p6059
sg495
g5266
sg105
g104
sVkeeper_of_the_light_empty1
p6060
V5501
p6061
sVkeeper_of_the_light_empty2
p6062
V5502
p6063
sVspecial_bonus_mp_regen_4
p6064
V5916
p6065
sVspecial_bonus_mp_regen_5
p6066
V6410
p6067
sVspecial_bonus_mp_regen_6
p6068
V5980
p6069
sVspecial_bonus_mp_regen_1
p6070
V5915
p6071
sVspecial_bonus_mp_regen_2
p6072
V5961
p6073
sVspecial_bonus_mp_regen_3
p6074
V6160
p6075
sVdark_seer_vacuum
p6076
V5255
p6077
sVmudgolem_cloak_aura
p6078
V5688
p6079
sg5967
g1885
sVitem_blade_of_alacrity
p6080
V22
p6081
sVgreevil_diabolic_edict
p6082
V5532
p6083
sVkobold_taskmaster_speed_aura
p6084
V5293
p6085
sg1166
g4880
sVenigma_black_hole
p6086
V5149
p6087
sg753
g5626
sVundying_soul_rip
p6088
V5443
p6089
sVpuck_waning_rift
p6090
V5071
p6091
sVspecial_bonus_unique_riki_3
p6092
V6865
p6093
sg5535
Vmega ranged creep
p6094
sVnpc_dota_badguys_melee_rax_top
p6095
g1795
sVitem_recipe_bracer
p6096
V72
p6097
sVstorm_spirit_overload
p6098
V5100
p6099
sVdisruptor_static_storm
p6100
V5461
p6101
sVterrorblade_sunder
p6102
V5622
p6103
sVspecial_bonus_corruption_4
p6104
V7011
p6105
sVphoenix_icarus_dive
p6106
V5623
p6107
sVforged_spirit_melting_strike
p6108
V5388
p6109
sg238
g237
sVcourier_go_to_secretshop
p6110
V5492
p6111
sVitem_blink
p6112
V1
sVspecial_bonus_vision_200
p6113
V6228
p6114
sg4702
g1130
sVitem_soul_ring
p6115
V178
p6116
sVarc_warden_magnetic_field
p6117
V5678
p6118
sVgreevil_purification
p6119
V5561
p6120
sVslardar_sprint
p6121
V5114
p6122
sVcrystal_maiden_frostbite
p6123
V5127
p6124
sVitem_recipe_glimmer_cape
p6125
V253
p6126
sVnpc_dota_creep_goodguys_ranged_upgraded
p6127
g495
sVspecial_bonus_attack_speed_140
p6128
V6555
p6129
sVspecial_bonus_unique_chaos_knight
p6130
V6133
p6131
sVsandking_burrowstrike
p6132
V5102
p6133
sVnpc_dota_beastmaster_boar
p6134
Vboar
p6135
sVitem_cyclone
p6136
V100
p6137
sg4970
g1777
sVdrow_ranger_silence
p6138
V5020
p6139
sVnevermore_necromastery
p6140
V5062
p6141
sVspecial_bonus_unique_chen_4
p6142
V6535
p6143
sVspecial_bonus_unique_chen_2
p6144
V6260
p6145
sVtemplar_assassin_psionic_trap
p6146
V5197
p6147
sVmagnataur_skewer
p6148
V5520
p6149
sVspecial_bonus_unique_chen_1
p6150
V6259
p6151
sVspecial_bonus_intelligence_12
p6152
V5926
p6153
sVspecial_bonus_unique_huskar_2
p6154
V6380
p6155
sVspecial_bonus_intelligence_10
p6156
V5965
p6157
sVspecial_bonus_unique_phantom_lancer_4
p6158
V6850
p6159
sVspecial_bonus_intelligence_16
p6160
V6332
p6161
sVspecial_bonus_intelligence_14
p6162
V6567
p6163
sVcourier_return_stash_items
p6164
V5207
p6165
sVsandking_sand_storm
p6166
V5103
p6167
sg1512
g5917
sVspawnlord_master_stomp
p6168
V6270
p6169
sVdark_willow_cursed_crown
p6170
V6342
p6171
sVspecial_bonus_agility_20
p6172
V5962
p6173
sVspecial_bonus_agility_25
p6174
V6150
p6175
sVtechies_focused_detonate
p6176
V5635
p6177
sVspecial_bonus_unique_monkey_king
p6178
V6303
p6179
sVvengefulspirit_nether_swap
p6180
V5125
p6181
sVitem_basher
p6182
V143
p6183
sg4329
g2026
sVspecial_bonus_gold_income_25
p6184
V5957
p6185
sVshadow_demon_demonic_purge
p6186
V5425
p6187
sVspecial_bonus_gold_income_20
p6188
V6008
p6189
sVitem_tpscroll
p6190
V46
p6191
sVogre_magi_ignite
p6192
V5439
p6193
sg1793
g4533
sVspecial_bonus_attack_range_50
p6194
V5992
p6195
sVspecial_bonus_unique_terrorblade_3
p6196
V6943
p6197
sVspecial_bonus_unique_terrorblade_2
p6198
V6942
p6199
sVbane_fiends_grip
p6200
V5013
p6201
sg4968
Vfire
p6202
sVspecial_bonus_unique_pugna_3
p6203
V6403
p6204
sg3411
Vroshling
p6205
sg5779
g2628
sVtusk_walrus_punch
p6206
V5568
p6207
sVitem_refresher_shard
p6208
V260
p6209
sVspecial_bonus_unique_broodmother_1
p6210
V6257
p6211
sVspecial_bonus_unique_broodmother_2
p6212
V6258
p6213
sVspecial_bonus_unique_broodmother_3
p6214
V6361
p6215
sVspecial_bonus_unique_broodmother_4
p6216
V6362
p6217
sg833
g3201
sVspecial_bonus_hp_800
p6218
V6905
p6219
sVitem_smoke_of_deceit
p6220
V188
p6221
sVspecial_bonus_cast_range_175
p6222
V6120
p6223
sVspecial_bonus_mp_200
p6224
V6094
p6225
sg2130
g4965
sVitem_vladmir
p6226
V81
p6227
sg2152
Vnpc_dota_hero_tidehunter
p6228
sVtemplar_assassin_psi_blades
p6229
V5196
p6230
sVgreevil_miniboss_orange_light_strike_array
p6231
V5573
p6232
sVspecial_bonus_unique_bristleback
p6233
V6083
p6234
sg274
g273
sVnpc_dota_beastmaster_hawk_1
p6235
Vhawk
p6236
sVwitch_doctor_death_ward
p6237
V5141
p6238
sVrubick_telekinesis_land
p6239
V5449
p6240
sVchen_test_of_faith
p6241
V5329
p6242
sg3110
g2340
sVvisage_gravekeepers_cloak
p6243
V5482
p6244
sVgreevil_miniboss_white_purification
p6245
V5544
p6246
sVnpc_dota_beastmaster_hawk_4
p6247
Vhawk
p6248
sVnaga_siren_rip_tide
p6249
V5469
p6250
sg5694
g1568
sVspecial_bonus_unique_viper_4
p6251
V6820
p6252
sVgreevil_rot
p6253
V5564
p6254
sVspecial_bonus_unique_viper_1
p6255
V6156
p6256
sg5496
g2424
sVspecial_bonus_unique_viper_3
p6257
V6819
p6258
sVspecial_bonus_unique_viper_2
p6259
V6165
p6260
sg6228
g2152
sg4432
g570
sg3061
g624
sg2657
g771
sVkeeper_of_the_light_spirit_form_illuminate_end
p6261
V5503
p6262
sVmirana_leap
p6263
V5050
p6264
sVdeath_prophet_exorcism
p6265
V5093
p6266
sg2502
g2502
sg1700
g4636
sVviper_nethertoxin
p6267
V5219
p6268
sVitem_kaya
p6269
V259
p6270
sVitem_claymore
p6271
V5
sValpha_wolf_critical_strike
p6272
V5308
p6273
sVspecial_bonus_unique_clockwerk
p6274
V5977
p6275
sg2556
g4797
sVitem_platemail
p6276
V9
sVspecial_bonus_unique_night_stalker_2
p6277
V6704
p6278
sValchemist_chemical_rage
p6279
V5369
p6280
s.